ARM GAS  /tmp/ccxnLgeo.s 			page 1


   1              		.syntax unified
   2              		.cpu cortex-m4
   3              		.fpu softvfp
   4              		.eabi_attribute 20, 1
   5              		.eabi_attribute 21, 1
   6              		.eabi_attribute 23, 3
   7              		.eabi_attribute 24, 1
   8              		.eabi_attribute 25, 1
   9              		.eabi_attribute 26, 1
  10              		.eabi_attribute 30, 2
  11              		.eabi_attribute 34, 1
  12              		.eabi_attribute 18, 4
  13              		.thumb
  14              		.file	"adc_lld.c"
  15              		.text
  16              	.Ltext0:
  17              		.cfi_sections	.debug_frame
  18              		.section	.text.adc_lld_init,"ax",%progbits
  19              		.align	2
  20              		.p2align 4,,15
  21              		.global	adc_lld_init
  22              		.thumb
  23              		.thumb_func
  24              		.type	adc_lld_init, %function
  25              	adc_lld_init:
  26              	.LFB129:
  27              		.file 1 "../../../os/hal/platforms/STM32F30x/adc_lld.c"
  28              		.loc 1 323 0
  29              		.cfi_startproc
  30              		@ args = 0, pretend = 0, frame = 0
  31              		@ frame_needed = 0, uses_anonymous_args = 0
  32 0000 F8B5     		push	{r3, r4, r5, r6, r7, lr}
  33              	.LCFI0:
  34              		.cfi_def_cfa_offset 24
  35              		.cfi_offset 3, -24
  36              		.cfi_offset 4, -20
  37              		.cfi_offset 5, -16
  38              		.cfi_offset 6, -12
  39              		.cfi_offset 7, -8
  40              		.cfi_offset 14, -4
  41              		.loc 1 327 0
  42 0002 40F20005 		movw	r5, #:lower16:.LANCHOR0
  43 0006 C0F20005 		movt	r5, #:upper16:.LANCHOR0
  44 000a 2846     		mov	r0, r5
  45 000c FFF7FEFF 		bl	adcObjectInit
  46              	.LVL0:
  47              		.loc 1 328 0
  48 0010 4FF44072 		mov	r2, #768
  49 0014 C5F20002 		movt	r2, 20480
  50              		.loc 1 333 0
  51 0018 40F20006 		movw	r6, #:lower16:_stm32_dma_streams
  52              		.loc 1 331 0
  53 001c 4FF48073 		mov	r3, #256
  54              		.loc 1 345 0
  55 0020 40F20004 		movw	r4, #:lower16:.LANCHOR1
  56 0024 C0F20004 		movt	r4, #:upper16:.LANCHOR1
  57              		.loc 1 339 0
ARM GAS  /tmp/ccxnLgeo.s 			page 2


  58 0028 5021     		movs	r1, #80
  59              		.loc 1 331 0
  60 002a C5F20003 		movt	r3, 20480
  61              		.loc 1 334 0
  62 002e 42F68A27 		movw	r7, #10890
  63              		.loc 1 339 0
  64 0032 1220     		movs	r0, #18
  65              		.loc 1 328 0
  66 0034 AA62     		str	r2, [r5, #40]
  67              		.loc 1 333 0
  68 0036 C0F20006 		movt	r6, #:upper16:_stm32_dma_streams
  69              		.loc 1 329 0
  70 003a 4FF0A042 		mov	r2, #1342177280
  71 003e EA62     		str	r2, [r5, #44]
  72              		.loc 1 331 0
  73 0040 2B63     		str	r3, [r5, #48]
  74              		.loc 1 333 0
  75 0042 6E63     		str	r6, [r5, #52]
  76              		.loc 1 334 0
  77 0044 AF63     		str	r7, [r5, #56]
  78              		.loc 1 339 0
  79 0046 FFF7FEFF 		bl	nvicEnableVector
  80              	.LVL1:
  81              		.loc 1 345 0
  82 004a 2046     		mov	r0, r4
  83 004c FFF7FEFF 		bl	adcObjectInit
  84              	.LVL2:
  85              		.loc 1 346 0
  86 0050 4FF4E065 		mov	r5, #1792
  87              		.loc 1 347 0
  88 0054 4FF48062 		mov	r2, #1024
  89              		.loc 1 349 0
  90 0058 4FF4A063 		mov	r3, #1280
  91              		.loc 1 347 0
  92 005c C5F20002 		movt	r2, 20480
  93              		.loc 1 349 0
  94 0060 C5F20003 		movt	r3, 20480
  95              		.loc 1 357 0
  96 0064 2F20     		movs	r0, #47
  97 0066 5021     		movs	r1, #80
  98              		.loc 1 346 0
  99 0068 C5F20005 		movt	r5, 20480
 100              		.loc 1 351 0
 101 006c 8436     		adds	r6, r6, #132
 102              		.loc 1 346 0
 103 006e A562     		str	r5, [r4, #40]
 104              		.loc 1 347 0
 105 0070 E262     		str	r2, [r4, #44]
 106              		.loc 1 349 0
 107 0072 2363     		str	r3, [r4, #48]
 108              		.loc 1 351 0
 109 0074 6663     		str	r6, [r4, #52]
 110              		.loc 1 352 0
 111 0076 A763     		str	r7, [r4, #56]
 112              		.loc 1 357 0
 113 0078 FFF7FEFF 		bl	nvicEnableVector
 114              	.LVL3:
ARM GAS  /tmp/ccxnLgeo.s 			page 3


 115              		.loc 1 360 0
 116 007c 3D20     		movs	r0, #61
 117 007e 5021     		movs	r1, #80
 118              		.loc 1 364 0
 119 0080 BDE8F840 		pop	{r3, r4, r5, r6, r7, lr}
 120              		.loc 1 360 0
 121 0084 FFF7FEBF 		b	nvicEnableVector
 122              	.LVL4:
 123              		.cfi_endproc
 124              	.LFE129:
 125              		.size	adc_lld_init, .-adc_lld_init
 126 0088 AFF30080 		.section	.text.adc_lld_start,"ax",%progbits
 126      AFF30080 
 127              		.align	2
 128              		.p2align 4,,15
 129              		.global	adc_lld_start
 130              		.thumb
 131              		.thumb_func
 132              		.type	adc_lld_start, %function
 133              	adc_lld_start:
 134              	.LFB130:
 135              		.loc 1 373 0
 136              		.cfi_startproc
 137              		@ args = 0, pretend = 0, frame = 0
 138              		@ frame_needed = 0, uses_anonymous_args = 0
 139              	.LVL5:
 140 0000 38B5     		push	{r3, r4, r5, lr}
 141              	.LCFI1:
 142              		.cfi_def_cfa_offset 16
 143              		.cfi_offset 3, -16
 144              		.cfi_offset 4, -12
 145              		.cfi_offset 5, -8
 146              		.cfi_offset 14, -4
 147              		.loc 1 376 0
 148 0002 0378     		ldrb	r3, [r0, #0]	@ zero_extendqisi2
 149 0004 012B     		cmp	r3, #1
 150              		.loc 1 373 0
 151 0006 0546     		mov	r5, r0
 152              		.loc 1 376 0
 153 0008 00D0     		beq	.L48
 154 000a 38BD     		pop	{r3, r4, r5, pc}
 155              	.L48:
 156              		.loc 1 378 0
 157 000c 4048     		ldr	r0, .L53
 158              	.LVL6:
 159 000e 8542     		cmp	r5, r0
 160 0010 65D0     		beq	.L49
 161              		.loc 1 390 0
 162 0012 4049     		ldr	r1, .L53+4
 163 0014 8D42     		cmp	r5, r1
 164 0016 52D0     		beq	.L50
 165              	.L6:
 166              		.loc 1 403 0
 167 0018 6A6B     		ldr	r2, [r5, #52]
 168 001a A86A     		ldr	r0, [r5, #40]
 169 001c 1368     		ldr	r3, [r2, #0]
 170              		.loc 1 408 0
ARM GAS  /tmp/ccxnLgeo.s 			page 4


 171 001e E96A     		ldr	r1, [r5, #44]
 172              		.loc 1 403 0
 173 0020 00F10C04 		add	r4, r0, #12
 174 0024 9C60     		str	r4, [r3, #8]
 175              		.loc 1 408 0
 176 0026 8A68     		ldr	r2, [r1, #8]
 177 0028 42F00203 		orr	r3, r2, #2
 178 002c 8B60     		str	r3, [r1, #8]
 179              	.L8:
 180              		.loc 1 409 0 discriminator 1
 181 002e 8C68     		ldr	r4, [r1, #8]
 182 0030 E207     		lsls	r2, r4, #31
 183 0032 FCD5     		bpl	.L8
 184              		.loc 1 412 0
 185 0034 2C6B     		ldr	r4, [r5, #48]
 186 0036 A268     		ldr	r2, [r4, #8]
 187 0038 42F00203 		orr	r3, r2, #2
 188 003c A360     		str	r3, [r4, #8]
 189              	.L9:
 190              		.loc 1 413 0 discriminator 1
 191 003e A268     		ldr	r2, [r4, #8]
 192 0040 D307     		lsls	r3, r2, #31
 193 0042 FCD5     		bpl	.L9
 194              		.loc 1 418 0
 195 0044 4FF4C032 		mov	r2, #98304
 196 0048 8260     		str	r2, [r0, #8]
 197              	.LVL7:
 198              	.LBB16:
 199              	.LBB17:
 200              		.loc 1 89 0
 201 004a 4FF08053 		mov	r3, #268435456
 202              		.loc 1 88 0
 203 004e 0022     		movs	r2, #0
 204 0050 8A60     		str	r2, [r1, #8]
 205              		.loc 1 93 0
 206 0052 4FF43470 		mov	r0, #720
 207              		.loc 1 89 0
 208 0056 8B60     		str	r3, [r1, #8]
 209              		.loc 1 91 0
 210 0058 A360     		str	r3, [r4, #8]
 211              		.loc 1 93 0
 212 005a FFF7FEFF 		bl	halPolledDelay
 213              	.LVL8:
 214              	.LBE17:
 215              	.LBE16:
 216              	.LBB18:
 217              	.LBB19:
 218              		.loc 1 151 0
 219 005e EA6A     		ldr	r2, [r5, #44]
 220 0060 9068     		ldr	r0, [r2, #8]
 221 0062 B0F1805F 		cmp	r0, #268435456
 222 0066 03D0     		beq	.L10
 223 0068 2B48     		ldr	r0, .L53+8
 224 006a FFF7FEFF 		bl	chDbgPanic
 225              	.LVL9:
 226 006e EA6A     		ldr	r2, [r5, #44]
 227              	.L10:
ARM GAS  /tmp/ccxnLgeo.s 			page 5


 228              		.loc 1 153 0
 229 0070 9168     		ldr	r1, [r2, #8]
 230 0072 41F00043 		orr	r3, r1, #-2147483648
 231 0076 9360     		str	r3, [r2, #8]
 232              	.L11:
 233              		.loc 1 154 0
 234 0078 9068     		ldr	r0, [r2, #8]
 235 007a 0028     		cmp	r0, #0
 236 007c FCDB     		blt	.L11
 237              		.loc 1 157 0
 238 007e 296B     		ldr	r1, [r5, #48]
 239 0080 8B68     		ldr	r3, [r1, #8]
 240 0082 B3F1805F 		cmp	r3, #268435456
 241 0086 04D0     		beq	.L12
 242 0088 2448     		ldr	r0, .L53+12
 243 008a FFF7FEFF 		bl	chDbgPanic
 244              	.LVL10:
 245 008e 296B     		ldr	r1, [r5, #48]
 246 0090 EA6A     		ldr	r2, [r5, #44]
 247              	.L12:
 248              		.loc 1 159 0
 249 0092 8868     		ldr	r0, [r1, #8]
 250 0094 40F00043 		orr	r3, r0, #-2147483648
 251 0098 8B60     		str	r3, [r1, #8]
 252              	.L13:
 253              		.loc 1 160 0
 254 009a 8868     		ldr	r0, [r1, #8]
 255 009c 0028     		cmp	r0, #0
 256 009e FCDB     		blt	.L13
 257              	.LBE19:
 258              	.LBE18:
 259              	.LBB20:
 260              	.LBB21:
 261              		.loc 1 117 0
 262 00a0 9368     		ldr	r3, [r2, #8]
 263 00a2 43F00100 		orr	r0, r3, #1
 264 00a6 9060     		str	r0, [r2, #8]
 265              	.L14:
 266              		.loc 1 118 0
 267 00a8 1368     		ldr	r3, [r2, #0]
 268 00aa D807     		lsls	r0, r3, #31
 269 00ac FCD5     		bpl	.L14
 270              		.loc 1 121 0
 271 00ae 8A68     		ldr	r2, [r1, #8]
 272 00b0 42F00100 		orr	r0, r2, #1
 273 00b4 8860     		str	r0, [r1, #8]
 274              	.L15:
 275              		.loc 1 122 0
 276 00b6 0B68     		ldr	r3, [r1, #0]
 277 00b8 DB07     		lsls	r3, r3, #31
 278 00ba FCD5     		bpl	.L15
 279 00bc 38BD     		pop	{r3, r4, r5, pc}
 280              	.LVL11:
 281              	.L50:
 282              	.LBE21:
 283              	.LBE20:
 284              	.LBB22:
ARM GAS  /tmp/ccxnLgeo.s 			page 6


 285              		.loc 1 392 0
 286 00be 686B     		ldr	r0, [r5, #52]
 287 00c0 174A     		ldr	r2, .L53+16
 288 00c2 0521     		movs	r1, #5
 289 00c4 2B46     		mov	r3, r5
 290 00c6 FFF7FEFF 		bl	dmaStreamAllocate
 291              	.LVL12:
 292              		.loc 1 396 0
 293 00ca C0B9     		cbnz	r0, .L51
 294              	.LVL13:
 295              	.L7:
 296              		.loc 1 397 0
 297 00cc 4FF48054 		mov	r4, #4096
 298 00d0 C4F20204 		movt	r4, 16386
 299 00d4 6269     		ldr	r2, [r4, #20]
 300 00d6 42F00053 		orr	r3, r2, #536870912
 301 00da 6361     		str	r3, [r4, #20]
 302 00dc 9CE7     		b	.L6
 303              	.L49:
 304              	.LBE22:
 305              	.LBB23:
 306              		.loc 1 380 0
 307 00de 686B     		ldr	r0, [r5, #52]
 308 00e0 0F4A     		ldr	r2, .L53+16
 309 00e2 0521     		movs	r1, #5
 310 00e4 2B46     		mov	r3, r5
 311 00e6 FFF7FEFF 		bl	dmaStreamAllocate
 312              	.LVL14:
 313              		.loc 1 384 0
 314 00ea 60B9     		cbnz	r0, .L52
 315              	.LVL15:
 316              	.L5:
 317              		.loc 1 385 0
 318 00ec 4FF48050 		mov	r0, #4096
 319 00f0 C4F20200 		movt	r0, 16386
 320 00f4 4169     		ldr	r1, [r0, #20]
 321 00f6 41F08054 		orr	r4, r1, #268435456
 322 00fa 4461     		str	r4, [r0, #20]
 323 00fc 8CE7     		b	.L6
 324              	.LVL16:
 325              	.L51:
 326              	.LBE23:
 327              	.LBB24:
 328              		.loc 1 396 0 discriminator 1
 329 00fe 0948     		ldr	r0, .L53+20
 330              	.LVL17:
 331 0100 FFF7FEFF 		bl	chDbgPanic
 332              	.LVL18:
 333 0104 E2E7     		b	.L7
 334              	.LVL19:
 335              	.L52:
 336              	.LBE24:
 337              	.LBB25:
 338              		.loc 1 384 0 discriminator 1
 339 0106 0848     		ldr	r0, .L53+24
 340              	.LVL20:
 341 0108 FFF7FEFF 		bl	chDbgPanic
ARM GAS  /tmp/ccxnLgeo.s 			page 7


 342              	.LVL21:
 343 010c EEE7     		b	.L5
 344              	.L54:
 345 010e 00BF     		.align	2
 346              	.L53:
 347 0110 00000000 		.word	.LANCHOR0
 348 0114 00000000 		.word	.LANCHOR1
 349 0118 28000000 		.word	.LC2
 350 011c 40000000 		.word	.LC3
 351 0120 00000000 		.word	adc_lld_serve_dma_interrupt
 352 0124 14000000 		.word	.LC1
 353 0128 00000000 		.word	.LC0
 354              	.LBE25:
 355              		.cfi_endproc
 356              	.LFE130:
 357              		.size	adc_lld_start, .-adc_lld_start
 358 012c AFF30080 		.section	.text.adc_lld_stop,"ax",%progbits
 359              		.align	2
 360              		.p2align 4,,15
 361              		.global	adc_lld_stop
 362              		.thumb
 363              		.thumb_func
 364              		.type	adc_lld_stop, %function
 365              	adc_lld_stop:
 366              	.LFB131:
 367              		.loc 1 436 0
 368              		.cfi_startproc
 369              		@ args = 0, pretend = 0, frame = 0
 370              		@ frame_needed = 0, uses_anonymous_args = 0
 371              	.LVL22:
 372              		.loc 1 439 0
 373 0000 0378     		ldrb	r3, [r0, #0]	@ zero_extendqisi2
 374 0002 022B     		cmp	r3, #2
 375              		.loc 1 436 0
 376 0004 10B5     		push	{r4, lr}
 377              	.LCFI2:
 378              		.cfi_def_cfa_offset 8
 379              		.cfi_offset 4, -8
 380              		.cfi_offset 14, -4
 381              		.loc 1 436 0
 382 0006 0446     		mov	r4, r0
 383              		.loc 1 439 0
 384 0008 00D0     		beq	.L67
 385              	.LVL23:
 386              	.L55:
 387 000a 10BD     		pop	{r4, pc}
 388              	.LVL24:
 389              	.L67:
 390              		.loc 1 442 0
 391 000c 406B     		ldr	r0, [r0, #52]
 392              	.LVL25:
 393 000e FFF7FEFF 		bl	dmaStreamRelease
 394              	.LVL26:
 395              	.LBB32:
 396              	.LBB33:
 397              		.loc 1 172 0
 398 0012 E26A     		ldr	r2, [r4, #44]
ARM GAS  /tmp/ccxnLgeo.s 			page 8


 399 0014 9068     		ldr	r0, [r2, #8]
 400 0016 4307     		lsls	r3, r0, #29
 401 0018 06D5     		bpl	.L61
 402              		.loc 1 173 0
 403 001a 9168     		ldr	r1, [r2, #8]
 404 001c 41F01003 		orr	r3, r1, #16
 405 0020 9360     		str	r3, [r2, #8]
 406              	.L60:
 407              		.loc 1 174 0
 408 0022 9068     		ldr	r0, [r2, #8]
 409 0024 C006     		lsls	r0, r0, #27
 410 0026 FCD4     		bmi	.L60
 411              	.L61:
 412              	.LVL27:
 413              	.LBE33:
 414              	.LBE32:
 415              	.LBB34:
 416              	.LBB35:
 417              		.loc 1 134 0
 418 0028 9168     		ldr	r1, [r2, #8]
 419 002a 41F00203 		orr	r3, r1, #2
 420 002e 9360     		str	r3, [r2, #8]
 421              	.L59:
 422              		.loc 1 135 0
 423 0030 9068     		ldr	r0, [r2, #8]
 424 0032 8107     		lsls	r1, r0, #30
 425 0034 FCD4     		bmi	.L59
 426              		.loc 1 138 0
 427 0036 216B     		ldr	r1, [r4, #48]
 428 0038 8B68     		ldr	r3, [r1, #8]
 429 003a 43F00200 		orr	r0, r3, #2
 430 003e 8860     		str	r0, [r1, #8]
 431              	.L62:
 432              		.loc 1 139 0
 433 0040 8B68     		ldr	r3, [r1, #8]
 434 0042 13F00200 		ands	r0, r3, #2
 435 0046 FBD1     		bne	.L62
 436              	.LVL28:
 437              	.LBE35:
 438              	.LBE34:
 439              	.LBB36:
 440              	.LBB37:
 441              		.loc 1 104 0
 442 0048 4FF00053 		mov	r3, #536870912
 443              		.loc 1 103 0
 444 004c 9060     		str	r0, [r2, #8]
 445              		.loc 1 104 0
 446 004e 9360     		str	r3, [r2, #8]
 447              	.LBE37:
 448              	.LBE36:
 449              		.loc 1 452 0
 450 0050 084A     		ldr	r2, .L68
 451              	.LBB39:
 452              	.LBB38:
 453              		.loc 1 106 0
 454 0052 8B60     		str	r3, [r1, #8]
 455              	.LBE38:
ARM GAS  /tmp/ccxnLgeo.s 			page 9


 456              	.LBE39:
 457              		.loc 1 452 0
 458 0054 9442     		cmp	r4, r2
 459 0056 D8D1     		bne	.L55
 460              		.loc 1 453 0
 461 0058 4FF48051 		mov	r1, #4096
 462 005c C4F20201 		movt	r1, 16386
 463 0060 4869     		ldr	r0, [r1, #20]
 464 0062 20F08053 		bic	r3, r0, #268435456
 465 0066 4B61     		str	r3, [r1, #20]
 466              		.loc 1 458 0
 467 0068 4A69     		ldr	r2, [r1, #20]
 468 006a 22F00050 		bic	r0, r2, #536870912
 469 006e 4861     		str	r0, [r1, #20]
 470 0070 CBE7     		b	.L55
 471              	.L69:
 472 0072 00BF     		.align	2
 473              	.L68:
 474 0074 00000000 		.word	.LANCHOR0
 475              		.cfi_endproc
 476              	.LFE131:
 477              		.size	adc_lld_stop, .-adc_lld_stop
 478 0078 AFF30080 		.section	.text.adc_lld_start_conversion,"ax",%progbits
 478      AFF30080 
 479              		.align	2
 480              		.p2align 4,,15
 481              		.global	adc_lld_start_conversion
 482              		.thumb
 483              		.thumb_func
 484              		.type	adc_lld_start_conversion, %function
 485              	adc_lld_start_conversion:
 486              	.LFB132:
 487              		.loc 1 470 0
 488              		.cfi_startproc
 489              		@ args = 0, pretend = 0, frame = 0
 490              		@ frame_needed = 0, uses_anonymous_args = 0
 491              	.LVL29:
 492 0000 2DE9F843 		push	{r3, r4, r5, r6, r7, r8, r9, lr}
 493              	.LCFI3:
 494              		.cfi_def_cfa_offset 32
 495              		.cfi_offset 3, -32
 496              		.cfi_offset 4, -28
 497              		.cfi_offset 5, -24
 498              		.cfi_offset 6, -20
 499              		.cfi_offset 7, -16
 500              		.cfi_offset 8, -12
 501              		.cfi_offset 9, -8
 502              		.cfi_offset 14, -4
 503              		.loc 1 472 0
 504 0004 0469     		ldr	r4, [r0, #16]
 505              	.LVL30:
 506              		.loc 1 474 0
 507 0006 B4F80290 		ldrh	r9, [r4, #2]
 508 000a 19F0010F 		tst	r9, #1
 509              		.loc 1 470 0
 510 000e 0546     		mov	r5, r0
 511              		.loc 1 474 0
ARM GAS  /tmp/ccxnLgeo.s 			page 10


 512 0010 55D1     		bne	.L78
 513              	.LVL31:
 514              	.L71:
 515              		.loc 1 480 0
 516 0012 AF6A     		ldr	r7, [r5, #40]
 517              		.loc 1 482 0
 518 0014 E268     		ldr	r2, [r4, #12]
 519              		.loc 1 480 0
 520 0016 BE68     		ldr	r6, [r7, #8]
 521 0018 6369     		ldr	r3, [r4, #20]
 522              		.loc 1 483 0
 523 001a 2178     		ldrb	r1, [r4, #0]	@ zero_extendqisi2
 524              		.loc 1 479 0
 525 001c A86B     		ldr	r0, [r5, #56]
 526              	.LVL32:
 527              		.loc 1 480 0
 528 001e 06F47038 		and	r8, r6, #245760
 529              		.loc 1 482 0
 530 0022 42F4005C 		orr	ip, r2, #8192
 531              		.loc 1 480 0
 532 0026 48EA0308 		orr	r8, r8, r3
 533              	.LVL33:
 534              		.loc 1 482 0
 535 002a 4CF0010C 		orr	ip, ip, #1
 536              	.LVL34:
 537              		.loc 1 490 0
 538 002e EE68     		ldr	r6, [r5, #12]
 539              		.loc 1 483 0
 540 0030 39B1     		cbz	r1, .L73
 541              	.LVL35:
 542              		.loc 1 490 0
 543 0032 012E     		cmp	r6, #1
 544              		.loc 1 486 0
 545 0034 48F40058 		orr	r8, r8, #8192
 546              	.LVL36:
 547              		.loc 1 484 0
 548 0038 94BF     		ite	ls
 549 003a 40F02000 		orrls	r0, r0, #32
 550              	.LVL37:
 551              		.loc 1 493 0
 552 003e 40F02400 		orrhi	r0, r0, #36
 553              	.LVL38:
 554              	.L73:
 555              		.loc 1 498 0
 556 0042 6A6B     		ldr	r2, [r5, #52]
 557 0044 A968     		ldr	r1, [r5, #8]
 558 0046 1268     		ldr	r2, [r2, #0]
 559              		.loc 1 516 0
 560 0048 EB6A     		ldr	r3, [r5, #44]
 561              		.loc 1 498 0
 562 004a D160     		str	r1, [r2, #12]
 563              		.loc 1 500 0
 564 004c 4FEA5909 		lsr	r9, r9, #1
 565 0050 09FB06F6 		mul	r6, r9, r6
 566 0054 5660     		str	r6, [r2, #4]
 567              		.loc 1 506 0
 568 0056 1060     		str	r0, [r2, #0]
ARM GAS  /tmp/ccxnLgeo.s 			page 11


 569              		.loc 1 507 0
 570 0058 1068     		ldr	r0, [r2, #0]
 571              	.LVL39:
 572              		.loc 1 526 0
 573 005a 2D6B     		ldr	r5, [r5, #48]
 574              	.LVL40:
 575              		.loc 1 528 0
 576 005c A66B     		ldr	r6, [r4, #56]
 577              		.loc 1 507 0
 578 005e 40F00101 		orr	r1, r0, #1
 579 0062 1160     		str	r1, [r2, #0]
 580              		.loc 1 512 0
 581 0064 C7F80880 		str	r8, [r7, #8]
 582              		.loc 1 516 0
 583 0068 1A68     		ldr	r2, [r3, #0]
 584              	.LVL41:
 585              		.loc 1 522 0
 586 006a 276A     		ldr	r7, [r4, #32]
 587              		.loc 1 518 0
 588 006c 2169     		ldr	r1, [r4, #16]
 589              		.loc 1 516 0
 590 006e 1A60     		str	r2, [r3, #0]
 591              		.loc 1 517 0
 592 0070 9020     		movs	r0, #144
 593              		.loc 1 520 0
 594 0072 A269     		ldr	r2, [r4, #24]
 595              		.loc 1 517 0
 596 0074 5860     		str	r0, [r3, #4]
 597              		.loc 1 521 0
 598 0076 E069     		ldr	r0, [r4, #28]
 599              		.loc 1 518 0
 600 0078 1962     		str	r1, [r3, #32]
 601              		.loc 1 522 0
 602 007a 09F1FF39 		add	r9, r9, #-1
 603              		.loc 1 520 0
 604 007e 5A61     		str	r2, [r3, #20]
 605              		.loc 1 523 0
 606 0080 616A     		ldr	r1, [r4, #36]
 607              		.loc 1 524 0
 608 0082 A26A     		ldr	r2, [r4, #40]
 609              		.loc 1 521 0
 610 0084 9861     		str	r0, [r3, #24]
 611              		.loc 1 522 0
 612 0086 49EA0707 		orr	r7, r9, r7
 613              		.loc 1 525 0
 614 008a E06A     		ldr	r0, [r4, #44]
 615              		.loc 1 522 0
 616 008c 1F63     		str	r7, [r3, #48]
 617              		.loc 1 523 0
 618 008e 5963     		str	r1, [r3, #52]
 619              		.loc 1 524 0
 620 0090 9A63     		str	r2, [r3, #56]
 621              		.loc 1 526 0
 622 0092 216B     		ldr	r1, [r4, #48]
 623              		.loc 1 527 0
 624 0094 626B     		ldr	r2, [r4, #52]
 625              		.loc 1 525 0
ARM GAS  /tmp/ccxnLgeo.s 			page 12


 626 0096 D863     		str	r0, [r3, #60]
 627              		.loc 1 528 0
 628 0098 49EA0606 		orr	r6, r9, r6
 629              		.loc 1 531 0
 630 009c 04F13C00 		add	r0, r4, #60
 631              		.loc 1 526 0
 632 00a0 6961     		str	r1, [r5, #20]
 633              		.loc 1 527 0
 634 00a2 AA61     		str	r2, [r5, #24]
 635              		.loc 1 528 0
 636 00a4 2E63     		str	r6, [r5, #48]
 637              		.loc 1 531 0
 638 00a6 07C8     		ldmia	r0, {r0, r1, r2}
 639              		.loc 1 529 0
 640 00a8 6863     		str	r0, [r5, #52]
 641              		.loc 1 530 0
 642 00aa A963     		str	r1, [r5, #56]
 643              		.loc 1 531 0
 644 00ac EA63     		str	r2, [r5, #60]
 645              		.loc 1 543 0
 646 00ae C3F80CC0 		str	ip, [r3, #12]
 647              		.loc 1 546 0
 648 00b2 9968     		ldr	r1, [r3, #8]
 649 00b4 41F00402 		orr	r2, r1, #4
 650 00b8 9A60     		str	r2, [r3, #8]
 651 00ba BDE8F883 		pop	{r3, r4, r5, r6, r7, r8, r9, pc}
 652              	.LVL42:
 653              	.L78:
 654              		.loc 1 474 0 discriminator 1
 655 00be 0348     		ldr	r0, .L79
 656              	.LVL43:
 657 00c0 FFF7FEFF 		bl	chDbgPanic
 658              	.LVL44:
 659 00c4 B4F80290 		ldrh	r9, [r4, #2]
 660 00c8 A3E7     		b	.L71
 661              	.L80:
 662 00ca 00BF     		.align	2
 663              	.L79:
 664 00cc 58000000 		.word	.LC4
 665              		.cfi_endproc
 666              	.LFE132:
 667              		.size	adc_lld_start_conversion, .-adc_lld_start_conversion
 668              		.section	.text.adc_lld_stop_conversion,"ax",%progbits
 669              		.align	2
 670              		.p2align 4,,15
 671              		.global	adc_lld_stop_conversion
 672              		.thumb
 673              		.thumb_func
 674              		.type	adc_lld_stop_conversion, %function
 675              	adc_lld_stop_conversion:
 676              	.LFB133:
 677              		.loc 1 556 0
 678              		.cfi_startproc
 679              		@ args = 0, pretend = 0, frame = 0
 680              		@ frame_needed = 0, uses_anonymous_args = 0
 681              		@ link register save eliminated.
 682              	.LVL45:
ARM GAS  /tmp/ccxnLgeo.s 			page 13


 683              		.loc 1 558 0
 684 0000 436B     		ldr	r3, [r0, #52]
 685              	.LBB40:
 686              	.LBB41:
 687              		.loc 1 172 0
 688 0002 C26A     		ldr	r2, [r0, #44]
 689              	.LBE41:
 690              	.LBE40:
 691              		.loc 1 558 0
 692 0004 1968     		ldr	r1, [r3, #0]
 693 0006 5868     		ldr	r0, [r3, #4]
 694              	.LVL46:
 695              		.loc 1 556 0
 696 0008 10B4     		push	{r4}
 697              	.LCFI4:
 698              		.cfi_def_cfa_offset 4
 699              		.cfi_offset 4, -4
 700              		.loc 1 558 0
 701 000a 0C68     		ldr	r4, [r1, #0]
 702 000c 24F00F04 		bic	r4, r4, #15
 703 0010 0C60     		str	r4, [r1, #0]
 704 0012 1B7A     		ldrb	r3, [r3, #8]	@ zero_extendqisi2
 705 0014 0F21     		movs	r1, #15
 706 0016 01FA03F3 		lsl	r3, r1, r3
 707 001a 0360     		str	r3, [r0, #0]
 708              	.LVL47:
 709              	.LBB43:
 710              	.LBB42:
 711              		.loc 1 172 0
 712 001c 9068     		ldr	r0, [r2, #8]
 713 001e 4007     		lsls	r0, r0, #29
 714 0020 06D5     		bpl	.L81
 715              		.loc 1 173 0
 716 0022 9168     		ldr	r1, [r2, #8]
 717 0024 41F01003 		orr	r3, r1, #16
 718 0028 9360     		str	r3, [r2, #8]
 719              	.L83:
 720              		.loc 1 174 0
 721 002a 9068     		ldr	r0, [r2, #8]
 722 002c C106     		lsls	r1, r0, #27
 723 002e FCD4     		bmi	.L83
 724              	.L81:
 725              	.LBE42:
 726              	.LBE43:
 727              		.loc 1 560 0
 728 0030 10BC     		pop	{r4}
 729 0032 7047     		bx	lr
 730              		.cfi_endproc
 731              	.LFE133:
 732              		.size	adc_lld_stop_conversion, .-adc_lld_stop_conversion
 733 0034 AFF30080 		.section	.text.adc_lld_serve_dma_interrupt,"ax",%progbits
 733      AFF30080 
 733      AFF30080 
 734              		.align	2
 735              		.p2align 4,,15
 736              		.thumb
 737              		.thumb_func
ARM GAS  /tmp/ccxnLgeo.s 			page 14


 738              		.type	adc_lld_serve_dma_interrupt, %function
 739              	adc_lld_serve_dma_interrupt:
 740              	.LFB124:
 741              		.loc 1 185 0
 742              		.cfi_startproc
 743              		@ args = 0, pretend = 0, frame = 0
 744              		@ frame_needed = 0, uses_anonymous_args = 0
 745              	.LVL48:
 746 0000 38B5     		push	{r3, r4, r5, lr}
 747              	.LCFI5:
 748              		.cfi_def_cfa_offset 16
 749              		.cfi_offset 3, -16
 750              		.cfi_offset 4, -12
 751              		.cfi_offset 5, -8
 752              		.cfi_offset 14, -4
 753              		.loc 1 188 0
 754 0002 0B07     		lsls	r3, r1, #28
 755              		.loc 1 185 0
 756 0004 0446     		mov	r4, r0
 757              		.loc 1 188 0
 758 0006 1DD4     		bmi	.L117
 759              		.loc 1 196 0
 760 0008 0369     		ldr	r3, [r0, #16]
 761 000a D3B1     		cbz	r3, .L86
 762              		.loc 1 197 0
 763 000c 8A07     		lsls	r2, r1, #30
 764 000e 10D5     		bpl	.L93
 765              		.loc 1 199 0
 766 0010 1D78     		ldrb	r5, [r3, #0]	@ zero_extendqisi2
 767 0012 002D     		cmp	r5, #0
 768 0014 3FD0     		beq	.L94
 769              		.loc 1 199 0 is_stmt 0 discriminator 1
 770 0016 5D68     		ldr	r5, [r3, #4]
 771 0018 9DB1     		cbz	r5, .L86
 772              		.loc 1 199 0 discriminator 3
 773 001a C268     		ldr	r2, [r0, #12]
 774 001c 012A     		cmp	r2, #1
 775 001e 37D9     		bls	.L95
 776              	.LBB44:
 777              		.loc 1 199 0 discriminator 4
 778 0020 5988     		ldrh	r1, [r3, #2]
 779              	.LVL49:
 780 0022 8368     		ldr	r3, [r0, #8]
 781 0024 5208     		lsrs	r2, r2, #1
 782              	.LVL50:
 783 0026 01FB02F1 		mul	r1, r1, r2
 784 002a 03EB4101 		add	r1, r3, r1, lsl #1
 785 002e A847     		blx	r5
 786              	.LVL51:
 787 0030 38BD     		pop	{r3, r4, r5, pc}
 788              	.LVL52:
 789              	.L93:
 790              	.LBE44:
 791              		.loc 1 201 0 is_stmt 1
 792 0032 4A07     		lsls	r2, r1, #29
 793 0034 05D5     		bpl	.L86
 794              		.loc 1 203 0
ARM GAS  /tmp/ccxnLgeo.s 			page 15


 795 0036 5B68     		ldr	r3, [r3, #4]
 796 0038 1BB1     		cbz	r3, .L86
 797              		.loc 1 203 0 is_stmt 0 discriminator 1
 798 003a C268     		ldr	r2, [r0, #12]
 799 003c 8168     		ldr	r1, [r0, #8]
 800              	.LVL53:
 801 003e 5208     		lsrs	r2, r2, #1
 802 0040 9847     		blx	r3
 803              	.LVL54:
 804              	.L86:
 805 0042 38BD     		pop	{r3, r4, r5, pc}
 806              	.LVL55:
 807              	.L117:
 808              		.loc 1 191 0 is_stmt 1
 809 0044 FFF7FEFF 		bl	adc_lld_stop_conversion
 810              	.LVL56:
 811 0048 2569     		ldr	r5, [r4, #16]
 812 004a AB68     		ldr	r3, [r5, #8]
 813 004c 3BB1     		cbz	r3, .L89
 814              		.loc 1 191 0 is_stmt 0 discriminator 1
 815 004e 0520     		movs	r0, #5
 816 0050 2070     		strb	r0, [r4, #0]
 817 0052 0021     		movs	r1, #0
 818 0054 2046     		mov	r0, r4
 819 0056 9847     		blx	r3
 820              	.LVL57:
 821 0058 2278     		ldrb	r2, [r4, #0]	@ zero_extendqisi2
 822 005a 052A     		cmp	r2, #5
 823 005c 15D0     		beq	.L118
 824              	.L89:
 825              		.loc 1 191 0 discriminator 2
 826 005e 0025     		movs	r5, #0
 827 0060 2561     		str	r5, [r4, #16]
 828              	.LBB45:
 829 0062 2023     		movs	r3, #32
 830              	.LVL58:
 831              	@ 191 "../../../os/hal/platforms/STM32F30x/adc_lld.c" 1
 832 0064 83F31188 		msr     BASEPRI, r3
 833              	@ 0 "" 2
 834              	.LVL59:
 835              		.thumb
 836              	.LBE45:
 837 0068 FFF7FEFF 		bl	dbg_check_lock_from_isr
 838              	.LVL60:
 839 006c 6369     		ldr	r3, [r4, #20]
 840 006e 33B1     		cbz	r3, .L98
 841              	.LVL61:
 842              	.LBB46:
 843              		.loc 1 191 0 discriminator 4
 844 0070 4FF0FF32 		mov	r2, #-1
 845 0074 6561     		str	r5, [r4, #20]
 846 0076 1846     		mov	r0, r3
 847 0078 9A62     		str	r2, [r3, #40]
 848 007a FFF7FEFF 		bl	chSchReadyI
 849              	.LVL62:
 850              	.L98:
 851              	.LBE46:
ARM GAS  /tmp/ccxnLgeo.s 			page 16


 852              		.loc 1 199 0 is_stmt 1 discriminator 11
 853 007e FFF7FEFF 		bl	dbg_check_unlock_from_isr
 854              	.LVL63:
 855              	.LBB47:
 856 0082 0023     		movs	r3, #0
 857              	.LVL64:
 858              	@ 199 "../../../os/hal/platforms/STM32F30x/adc_lld.c" 1
 859 0084 83F31188 		msr     BASEPRI, r3
 860              	@ 0 "" 2
 861              	.LVL65:
 862              		.thumb
 863 0088 38BD     		pop	{r3, r4, r5, pc}
 864              	.LVL66:
 865              	.L118:
 866              	.LBE47:
 867              		.loc 1 191 0 discriminator 3
 868 008a 0221     		movs	r1, #2
 869 008c 2170     		strb	r1, [r4, #0]
 870 008e E6E7     		b	.L89
 871              	.LVL67:
 872              	.L95:
 873              		.loc 1 199 0 discriminator 5
 874 0090 8168     		ldr	r1, [r0, #8]
 875              	.LVL68:
 876 0092 A847     		blx	r5
 877              	.LVL69:
 878 0094 38BD     		pop	{r3, r4, r5, pc}
 879              	.LVL70:
 880              	.L94:
 881              		.loc 1 199 0 is_stmt 0 discriminator 2
 882 0096 FFF7FEFF 		bl	adc_lld_stop_conversion
 883              	.LVL71:
 884 009a 2069     		ldr	r0, [r4, #16]
 885 009c 4368     		ldr	r3, [r0, #4]
 886 009e DBB1     		cbz	r3, .L96
 887              		.loc 1 199 0 discriminator 6
 888 00a0 0422     		movs	r2, #4
 889 00a2 2270     		strb	r2, [r4, #0]
 890 00a4 2046     		mov	r0, r4
 891 00a6 A168     		ldr	r1, [r4, #8]
 892 00a8 E268     		ldr	r2, [r4, #12]
 893 00aa 9847     		blx	r3
 894              	.LVL72:
 895 00ac 2078     		ldrb	r0, [r4, #0]	@ zero_extendqisi2
 896 00ae 0428     		cmp	r0, #4
 897 00b0 0ED0     		beq	.L119
 898              	.L97:
 899              	.LBB48:
 900              		.loc 1 199 0 discriminator 9
 901 00b2 2023     		movs	r3, #32
 902              	.LVL73:
 903              	@ 199 "../../../os/hal/platforms/STM32F30x/adc_lld.c" 1
 904 00b4 83F31188 		msr     BASEPRI, r3
 905              	@ 0 "" 2
 906              	.LVL74:
 907              		.thumb
 908              	.LBE48:
ARM GAS  /tmp/ccxnLgeo.s 			page 17


 909 00b8 FFF7FEFF 		bl	dbg_check_lock_from_isr
 910              	.LVL75:
 911 00bc 6169     		ldr	r1, [r4, #20]
 912 00be 0029     		cmp	r1, #0
 913 00c0 DDD0     		beq	.L98
 914              	.LVL76:
 915              	.LBB49:
 916              		.loc 1 199 0 discriminator 10
 917 00c2 0022     		movs	r2, #0
 918 00c4 6261     		str	r2, [r4, #20]
 919 00c6 0846     		mov	r0, r1
 920 00c8 8A62     		str	r2, [r1, #40]
 921 00ca FFF7FEFF 		bl	chSchReadyI
 922              	.LVL77:
 923 00ce D6E7     		b	.L98
 924              	.L119:
 925              	.LBE49:
 926              		.loc 1 199 0 discriminator 8
 927 00d0 0223     		movs	r3, #2
 928 00d2 2370     		strb	r3, [r4, #0]
 929 00d4 2561     		str	r5, [r4, #16]
 930 00d6 ECE7     		b	.L97
 931              	.L96:
 932              		.loc 1 199 0 discriminator 7
 933 00d8 0221     		movs	r1, #2
 934 00da 2170     		strb	r1, [r4, #0]
 935 00dc 2361     		str	r3, [r4, #16]
 936 00de E8E7     		b	.L97
 937              		.cfi_endproc
 938              	.LFE124:
 939              		.size	adc_lld_serve_dma_interrupt, .-adc_lld_serve_dma_interrupt
 940              		.section	.text.adc_lld_serve_interrupt,"ax",%progbits
 941              		.align	2
 942              		.p2align 4,,15
 943              		.thumb
 944              		.thumb_func
 945              		.type	adc_lld_serve_interrupt, %function
 946              	adc_lld_serve_interrupt:
 947              	.LFB125:
 948              		.loc 1 215 0 is_stmt 1
 949              		.cfi_startproc
 950              		@ args = 0, pretend = 0, frame = 0
 951              		@ frame_needed = 0, uses_anonymous_args = 0
 952              	.LVL78:
 953              		.loc 1 219 0
 954 0000 0369     		ldr	r3, [r0, #16]
 955              		.loc 1 215 0
 956 0002 70B5     		push	{r4, r5, r6, lr}
 957              	.LCFI6:
 958              		.cfi_def_cfa_offset 16
 959              		.cfi_offset 4, -16
 960              		.cfi_offset 5, -12
 961              		.cfi_offset 6, -8
 962              		.cfi_offset 14, -4
 963              		.loc 1 215 0
 964 0004 0446     		mov	r4, r0
 965 0006 0D46     		mov	r5, r1
ARM GAS  /tmp/ccxnLgeo.s 			page 18


 966              		.loc 1 219 0
 967 0008 3BB1     		cbz	r3, .L120
 968              		.loc 1 222 0
 969 000a CB06     		lsls	r3, r1, #27
 970 000c 06D4     		bmi	.L170
 971              	.LVL79:
 972              	.L123:
 973              		.loc 1 228 0
 974 000e 2806     		lsls	r0, r5, #24
 975              	.LVL80:
 976 0010 2ED4     		bmi	.L171
 977              	.LVL81:
 978              	.L128:
 979              		.loc 1 232 0
 980 0012 E905     		lsls	r1, r5, #23
 981 0014 53D4     		bmi	.L172
 982              	.LVL82:
 983              	.L133:
 984              		.loc 1 236 0
 985 0016 AA05     		lsls	r2, r5, #22
 986 0018 78D4     		bmi	.L173
 987              	.LVL83:
 988              	.L120:
 989 001a 70BD     		pop	{r4, r5, r6, pc}
 990              	.LVL84:
 991              	.L170:
 992              		.loc 1 223 0 discriminator 1
 993 001c 416B     		ldr	r1, [r0, #52]
 994              	.LVL85:
 995 001e 0A68     		ldr	r2, [r1, #0]
 996 0020 5368     		ldr	r3, [r2, #4]
 997              		.loc 1 222 0 discriminator 1
 998 0022 002B     		cmp	r3, #0
 999 0024 F3D0     		beq	.L123
 1000              		.loc 1 226 0
 1001 0026 FFF7FEFF 		bl	adc_lld_stop_conversion
 1002              	.LVL86:
 1003 002a 2069     		ldr	r0, [r4, #16]
 1004 002c 8668     		ldr	r6, [r0, #8]
 1005 002e 46B1     		cbz	r6, .L125
 1006              		.loc 1 226 0 is_stmt 0 discriminator 1
 1007 0030 0521     		movs	r1, #5
 1008 0032 2170     		strb	r1, [r4, #0]
 1009 0034 2046     		mov	r0, r4
 1010 0036 0121     		movs	r1, #1
 1011 0038 B047     		blx	r6
 1012              	.LVL87:
 1013 003a 2278     		ldrb	r2, [r4, #0]	@ zero_extendqisi2
 1014 003c 052A     		cmp	r2, #5
 1015 003e 00F08C80 		beq	.L174
 1016              	.L125:
 1017              		.loc 1 226 0 discriminator 2
 1018 0042 0026     		movs	r6, #0
 1019 0044 2661     		str	r6, [r4, #16]
 1020              	.LBB50:
 1021 0046 2023     		movs	r3, #32
 1022              	.LVL88:
ARM GAS  /tmp/ccxnLgeo.s 			page 19


 1023              	@ 226 "../../../os/hal/platforms/STM32F30x/adc_lld.c" 1
 1024 0048 83F31188 		msr     BASEPRI, r3
 1025              	@ 0 "" 2
 1026              	.LVL89:
 1027              		.thumb
 1028              	.LBE50:
 1029 004c FFF7FEFF 		bl	dbg_check_lock_from_isr
 1030              	.LVL90:
 1031 0050 6169     		ldr	r1, [r4, #20]
 1032 0052 31B1     		cbz	r1, .L127
 1033              	.LVL91:
 1034              	.LBB51:
 1035              		.loc 1 226 0 discriminator 4
 1036 0054 4FF0FF32 		mov	r2, #-1
 1037 0058 6661     		str	r6, [r4, #20]
 1038 005a 0846     		mov	r0, r1
 1039 005c 8A62     		str	r2, [r1, #40]
 1040 005e FFF7FEFF 		bl	chSchReadyI
 1041              	.LVL92:
 1042              	.L127:
 1043              	.LBE51:
 1044              		.loc 1 226 0 discriminator 5
 1045 0062 FFF7FEFF 		bl	dbg_check_unlock_from_isr
 1046              	.LVL93:
 1047              	.LBB52:
 1048 0066 0023     		movs	r3, #0
 1049              	@ 226 "../../../os/hal/platforms/STM32F30x/adc_lld.c" 1
 1050 0068 83F31188 		msr     BASEPRI, r3
 1051              	@ 0 "" 2
 1052              	.LVL94:
 1053              		.thumb
 1054              	.LBE52:
 1055              		.loc 1 228 0 is_stmt 1 discriminator 5
 1056 006c 2806     		lsls	r0, r5, #24
 1057 006e D0D5     		bpl	.L128
 1058              	.L171:
 1059              		.loc 1 230 0
 1060 0070 2046     		mov	r0, r4
 1061 0072 FFF7FEFF 		bl	adc_lld_stop_conversion
 1062              	.LVL95:
 1063 0076 2069     		ldr	r0, [r4, #16]
 1064 0078 8668     		ldr	r6, [r0, #8]
 1065 007a 4EB1     		cbz	r6, .L130
 1066              		.loc 1 230 0 is_stmt 0 discriminator 1
 1067 007c 0523     		movs	r3, #5
 1068 007e 0221     		movs	r1, #2
 1069 0080 2370     		strb	r3, [r4, #0]
 1070 0082 2046     		mov	r0, r4
 1071 0084 B047     		blx	r6
 1072              	.LVL96:
 1073 0086 2178     		ldrb	r1, [r4, #0]	@ zero_extendqisi2
 1074 0088 0529     		cmp	r1, #5
 1075 008a 01D1     		bne	.L130
 1076              		.loc 1 230 0 discriminator 3
 1077 008c 0222     		movs	r2, #2
 1078 008e 2270     		strb	r2, [r4, #0]
 1079              	.L130:
ARM GAS  /tmp/ccxnLgeo.s 			page 20


 1080              		.loc 1 230 0 discriminator 2
 1081 0090 0026     		movs	r6, #0
 1082 0092 2661     		str	r6, [r4, #16]
 1083              	.LBB53:
 1084 0094 2023     		movs	r3, #32
 1085              	.LVL97:
 1086              	@ 230 "../../../os/hal/platforms/STM32F30x/adc_lld.c" 1
 1087 0096 83F31188 		msr     BASEPRI, r3
 1088              	@ 0 "" 2
 1089              	.LVL98:
 1090              		.thumb
 1091              	.LBE53:
 1092 009a FFF7FEFF 		bl	dbg_check_lock_from_isr
 1093              	.LVL99:
 1094 009e 6369     		ldr	r3, [r4, #20]
 1095 00a0 33B1     		cbz	r3, .L132
 1096              	.LVL100:
 1097              	.LBB54:
 1098              		.loc 1 230 0 discriminator 4
 1099 00a2 4FF0FF31 		mov	r1, #-1
 1100 00a6 6661     		str	r6, [r4, #20]
 1101 00a8 1846     		mov	r0, r3
 1102 00aa 9962     		str	r1, [r3, #40]
 1103 00ac FFF7FEFF 		bl	chSchReadyI
 1104              	.LVL101:
 1105              	.L132:
 1106              	.LBE54:
 1107              		.loc 1 230 0 discriminator 5
 1108 00b0 FFF7FEFF 		bl	dbg_check_unlock_from_isr
 1109              	.LVL102:
 1110              	.LBB55:
 1111 00b4 0023     		movs	r3, #0
 1112              	@ 230 "../../../os/hal/platforms/STM32F30x/adc_lld.c" 1
 1113 00b6 83F31188 		msr     BASEPRI, r3
 1114              	@ 0 "" 2
 1115              	.LVL103:
 1116              		.thumb
 1117              	.LBE55:
 1118              		.loc 1 232 0 is_stmt 1 discriminator 5
 1119 00ba E905     		lsls	r1, r5, #23
 1120 00bc ABD5     		bpl	.L133
 1121              	.LVL104:
 1122              	.L172:
 1123              		.loc 1 234 0
 1124 00be 2046     		mov	r0, r4
 1125 00c0 FFF7FEFF 		bl	adc_lld_stop_conversion
 1126              	.LVL105:
 1127 00c4 2069     		ldr	r0, [r4, #16]
 1128 00c6 8668     		ldr	r6, [r0, #8]
 1129 00c8 4EB1     		cbz	r6, .L135
 1130              		.loc 1 234 0 is_stmt 0 discriminator 1
 1131 00ca 0522     		movs	r2, #5
 1132 00cc 0321     		movs	r1, #3
 1133 00ce 2270     		strb	r2, [r4, #0]
 1134 00d0 2046     		mov	r0, r4
 1135 00d2 B047     		blx	r6
 1136              	.LVL106:
ARM GAS  /tmp/ccxnLgeo.s 			page 21


 1137 00d4 2378     		ldrb	r3, [r4, #0]	@ zero_extendqisi2
 1138 00d6 052B     		cmp	r3, #5
 1139 00d8 01D1     		bne	.L135
 1140              		.loc 1 234 0 discriminator 3
 1141 00da 0221     		movs	r1, #2
 1142 00dc 2170     		strb	r1, [r4, #0]
 1143              	.L135:
 1144              		.loc 1 234 0 discriminator 2
 1145 00de 0026     		movs	r6, #0
 1146 00e0 2661     		str	r6, [r4, #16]
 1147              	.LBB56:
 1148 00e2 2023     		movs	r3, #32
 1149              	.LVL107:
 1150              	@ 234 "../../../os/hal/platforms/STM32F30x/adc_lld.c" 1
 1151 00e4 83F31188 		msr     BASEPRI, r3
 1152              	@ 0 "" 2
 1153              	.LVL108:
 1154              		.thumb
 1155              	.LBE56:
 1156 00e8 FFF7FEFF 		bl	dbg_check_lock_from_isr
 1157              	.LVL109:
 1158 00ec 6369     		ldr	r3, [r4, #20]
 1159 00ee 33B1     		cbz	r3, .L137
 1160              	.LVL110:
 1161              	.LBB57:
 1162              		.loc 1 234 0 discriminator 4
 1163 00f0 4FF0FF32 		mov	r2, #-1
 1164 00f4 6661     		str	r6, [r4, #20]
 1165 00f6 1846     		mov	r0, r3
 1166 00f8 9A62     		str	r2, [r3, #40]
 1167 00fa FFF7FEFF 		bl	chSchReadyI
 1168              	.LVL111:
 1169              	.L137:
 1170              	.LBE57:
 1171              		.loc 1 234 0 discriminator 5
 1172 00fe FFF7FEFF 		bl	dbg_check_unlock_from_isr
 1173              	.LVL112:
 1174              	.LBB58:
 1175 0102 0023     		movs	r3, #0
 1176              	@ 234 "../../../os/hal/platforms/STM32F30x/adc_lld.c" 1
 1177 0104 83F31188 		msr     BASEPRI, r3
 1178              	@ 0 "" 2
 1179              	.LVL113:
 1180              		.thumb
 1181              	.LBE58:
 1182              		.loc 1 236 0 is_stmt 1 discriminator 5
 1183 0108 AA05     		lsls	r2, r5, #22
 1184 010a 86D5     		bpl	.L120
 1185              	.LVL114:
 1186              	.L173:
 1187              		.loc 1 238 0
 1188 010c 2046     		mov	r0, r4
 1189 010e FFF7FEFF 		bl	adc_lld_stop_conversion
 1190              	.LVL115:
 1191 0112 2569     		ldr	r5, [r4, #16]
 1192              	.LVL116:
 1193 0114 AB68     		ldr	r3, [r5, #8]
ARM GAS  /tmp/ccxnLgeo.s 			page 22


 1194 0116 3BB1     		cbz	r3, .L140
 1195              		.loc 1 238 0 is_stmt 0 discriminator 1
 1196 0118 0520     		movs	r0, #5
 1197 011a 0421     		movs	r1, #4
 1198 011c 2070     		strb	r0, [r4, #0]
 1199 011e 2046     		mov	r0, r4
 1200 0120 9847     		blx	r3
 1201              	.LVL117:
 1202 0122 2178     		ldrb	r1, [r4, #0]	@ zero_extendqisi2
 1203 0124 0529     		cmp	r1, #5
 1204 0126 15D0     		beq	.L175
 1205              	.L140:
 1206              		.loc 1 238 0 discriminator 2
 1207 0128 0025     		movs	r5, #0
 1208 012a 2561     		str	r5, [r4, #16]
 1209              	.LBB59:
 1210 012c 2023     		movs	r3, #32
 1211              	.LVL118:
 1212              	@ 238 "../../../os/hal/platforms/STM32F30x/adc_lld.c" 1
 1213 012e 83F31188 		msr     BASEPRI, r3
 1214              	@ 0 "" 2
 1215              	.LVL119:
 1216              		.thumb
 1217              	.LBE59:
 1218 0132 FFF7FEFF 		bl	dbg_check_lock_from_isr
 1219              	.LVL120:
 1220 0136 6369     		ldr	r3, [r4, #20]
 1221 0138 33B1     		cbz	r3, .L142
 1222              	.LVL121:
 1223              	.LBB60:
 1224              		.loc 1 238 0 discriminator 4
 1225 013a 4FF0FF31 		mov	r1, #-1
 1226 013e 6561     		str	r5, [r4, #20]
 1227 0140 1846     		mov	r0, r3
 1228 0142 9962     		str	r1, [r3, #40]
 1229 0144 FFF7FEFF 		bl	chSchReadyI
 1230              	.LVL122:
 1231              	.L142:
 1232              	.LBE60:
 1233              		.loc 1 238 0 discriminator 5
 1234 0148 FFF7FEFF 		bl	dbg_check_unlock_from_isr
 1235              	.LVL123:
 1236              	.LBB61:
 1237 014c 0023     		movs	r3, #0
 1238              	.LVL124:
 1239              	@ 238 "../../../os/hal/platforms/STM32F30x/adc_lld.c" 1
 1240 014e 83F31188 		msr     BASEPRI, r3
 1241              	@ 0 "" 2
 1242              	.LVL125:
 1243              		.thumb
 1244 0152 70BD     		pop	{r4, r5, r6, pc}
 1245              	.LVL126:
 1246              	.L175:
 1247              	.LBE61:
 1248              		.loc 1 238 0 discriminator 3
 1249 0154 0222     		movs	r2, #2
 1250 0156 2270     		strb	r2, [r4, #0]
ARM GAS  /tmp/ccxnLgeo.s 			page 23


 1251 0158 E6E7     		b	.L140
 1252              	.LVL127:
 1253              	.L174:
 1254              		.loc 1 226 0 is_stmt 1 discriminator 3
 1255 015a 0223     		movs	r3, #2
 1256 015c 2370     		strb	r3, [r4, #0]
 1257 015e 70E7     		b	.L125
 1258              		.cfi_endproc
 1259              	.LFE125:
 1260              		.size	adc_lld_serve_interrupt, .-adc_lld_serve_interrupt
 1261              		.section	.text.Vector134,"ax",%progbits
 1262              		.align	2
 1263              		.p2align 4,,15
 1264              		.global	Vector134
 1265              		.thumb
 1266              		.thumb_func
 1267              		.type	Vector134, %function
 1268              	Vector134:
 1269              	.LFB128:
 1270              		.loc 1 299 0
 1271              		.cfi_startproc
 1272              		@ args = 0, pretend = 0, frame = 0
 1273              		@ frame_needed = 0, uses_anonymous_args = 0
 1274 0000 08B5     		push	{r3, lr}
 1275              	.LCFI7:
 1276              		.cfi_def_cfa_offset 8
 1277              		.cfi_offset 3, -8
 1278              		.cfi_offset 14, -4
 1279              		.loc 1 302 0
 1280 0002 FFF7FEFF 		bl	dbg_check_enter_isr
 1281              	.LVL128:
 1282              		.loc 1 304 0
 1283 0006 4FF4A063 		mov	r3, #1280
 1284 000a C5F20003 		movt	r3, 20480
 1285              		.loc 1 307 0
 1286 000e 40F20000 		movw	r0, #:lower16:.LANCHOR1
 1287              		.loc 1 304 0
 1288 0012 1A68     		ldr	r2, [r3, #0]
 1289              	.LVL129:
 1290              		.loc 1 307 0
 1291 0014 C0F20000 		movt	r0, #:upper16:.LANCHOR1
 1292 0018 1146     		mov	r1, r2
 1293              		.loc 1 305 0
 1294 001a 1A60     		str	r2, [r3, #0]
 1295              		.loc 1 307 0
 1296 001c FFF7FEFF 		bl	adc_lld_serve_interrupt
 1297              	.LVL130:
 1298              		.loc 1 309 0
 1299 0020 FFF7FEFF 		bl	dbg_check_leave_isr
 1300              	.LVL131:
 1301              		.loc 1 310 0
 1302 0024 BDE80840 		pop	{r3, lr}
 1303              		.loc 1 309 0
 1304 0028 FFF7FEBF 		b	_port_irq_epilogue
 1305              	.LVL132:
 1306              		.cfi_endproc
 1307              	.LFE128:
ARM GAS  /tmp/ccxnLgeo.s 			page 24


 1308              		.size	Vector134, .-Vector134
 1309 002c AFF30080 		.section	.text.VectorFC,"ax",%progbits
 1310              		.align	2
 1311              		.p2align 4,,15
 1312              		.global	VectorFC
 1313              		.thumb
 1314              		.thumb_func
 1315              		.type	VectorFC, %function
 1316              	VectorFC:
 1317              	.LFB127:
 1318              		.loc 1 280 0
 1319              		.cfi_startproc
 1320              		@ args = 0, pretend = 0, frame = 0
 1321              		@ frame_needed = 0, uses_anonymous_args = 0
 1322 0000 08B5     		push	{r3, lr}
 1323              	.LCFI8:
 1324              		.cfi_def_cfa_offset 8
 1325              		.cfi_offset 3, -8
 1326              		.cfi_offset 14, -4
 1327              		.loc 1 283 0
 1328 0002 FFF7FEFF 		bl	dbg_check_enter_isr
 1329              	.LVL133:
 1330              		.loc 1 285 0
 1331 0006 4FF48063 		mov	r3, #1024
 1332 000a C5F20003 		movt	r3, 20480
 1333              		.loc 1 288 0
 1334 000e 40F20000 		movw	r0, #:lower16:.LANCHOR1
 1335              		.loc 1 285 0
 1336 0012 1A68     		ldr	r2, [r3, #0]
 1337              	.LVL134:
 1338              		.loc 1 288 0
 1339 0014 C0F20000 		movt	r0, #:upper16:.LANCHOR1
 1340 0018 1146     		mov	r1, r2
 1341              		.loc 1 286 0
 1342 001a 1A60     		str	r2, [r3, #0]
 1343              		.loc 1 288 0
 1344 001c FFF7FEFF 		bl	adc_lld_serve_interrupt
 1345              	.LVL135:
 1346              		.loc 1 290 0
 1347 0020 FFF7FEFF 		bl	dbg_check_leave_isr
 1348              	.LVL136:
 1349              		.loc 1 291 0
 1350 0024 BDE80840 		pop	{r3, lr}
 1351              		.loc 1 290 0
 1352 0028 FFF7FEBF 		b	_port_irq_epilogue
 1353              	.LVL137:
 1354              		.cfi_endproc
 1355              	.LFE127:
 1356              		.size	VectorFC, .-VectorFC
 1357 002c AFF30080 		.section	.text.Vector88,"ax",%progbits
 1358              		.align	2
 1359              		.p2align 4,,15
 1360              		.global	Vector88
 1361              		.thumb
 1362              		.thumb_func
 1363              		.type	Vector88, %function
 1364              	Vector88:
ARM GAS  /tmp/ccxnLgeo.s 			page 25


 1365              	.LFB126:
 1366              		.loc 1 253 0
 1367              		.cfi_startproc
 1368              		@ args = 0, pretend = 0, frame = 0
 1369              		@ frame_needed = 0, uses_anonymous_args = 0
 1370 0000 08B5     		push	{r3, lr}
 1371              	.LCFI9:
 1372              		.cfi_def_cfa_offset 8
 1373              		.cfi_offset 3, -8
 1374              		.cfi_offset 14, -4
 1375              		.loc 1 256 0
 1376 0002 FFF7FEFF 		bl	dbg_check_enter_isr
 1377              	.LVL138:
 1378              		.loc 1 260 0
 1379 0006 4FF48073 		mov	r3, #256
 1380 000a C5F20003 		movt	r3, 20480
 1381              		.loc 1 259 0
 1382 000e 4FF0A041 		mov	r1, #1342177280
 1383 0012 0A68     		ldr	r2, [r1, #0]
 1384              	.LVL139:
 1385              		.loc 1 260 0
 1386 0014 1868     		ldr	r0, [r3, #0]
 1387 0016 0243     		orrs	r2, r2, r0
 1388              	.LVL140:
 1389              		.loc 1 268 0
 1390 0018 40F20000 		movw	r0, #:lower16:.LANCHOR0
 1391              		.loc 1 261 0
 1392 001c 0A60     		str	r2, [r1, #0]
 1393              		.loc 1 268 0
 1394 001e C0F20000 		movt	r0, #:upper16:.LANCHOR0
 1395 0022 1146     		mov	r1, r2
 1396              		.loc 1 262 0
 1397 0024 1A60     		str	r2, [r3, #0]
 1398              		.loc 1 268 0
 1399 0026 FFF7FEFF 		bl	adc_lld_serve_interrupt
 1400              	.LVL141:
 1401              		.loc 1 270 0
 1402 002a FFF7FEFF 		bl	dbg_check_leave_isr
 1403              	.LVL142:
 1404              		.loc 1 271 0
 1405 002e BDE80840 		pop	{r3, lr}
 1406              		.loc 1 270 0
 1407 0032 FFF7FEBF 		b	_port_irq_epilogue
 1408              	.LVL143:
 1409              		.cfi_endproc
 1410              	.LFE126:
 1411              		.size	Vector88, .-Vector88
 1412              		.global	ADCD3
 1413              		.global	ADCD1
 1414 0036 00BFAFF3 		.section	.bss.ADCD1,"aw",%nobits
 1414      0080AFF3 
 1414      0080
 1415              		.align	2
 1416              		.set	.LANCHOR0,. + 0
 1417              		.type	ADCD1, %object
 1418              		.size	ADCD1, 60
 1419              	ADCD1:
ARM GAS  /tmp/ccxnLgeo.s 			page 26


 1420 0000 00000000 		.space	60
 1420      00000000 
 1420      00000000 
 1420      00000000 
 1420      00000000 
 1421              		.section	.bss.ADCD3,"aw",%nobits
 1422              		.align	2
 1423              		.set	.LANCHOR1,. + 0
 1424              		.type	ADCD3, %object
 1425              		.size	ADCD3, 60
 1426              	ADCD3:
 1427 0000 00000000 		.space	60
 1427      00000000 
 1427      00000000 
 1427      00000000 
 1427      00000000 
 1428              		.section	.rodata.str1.4,"aMS",%progbits,1
 1429              		.align	2
 1430              	.LC0:
 1431 0000 6164635F 		.ascii	"adc_lld_start(), #1\000"
 1431      6C6C645F 
 1431      73746172 
 1431      7428292C 
 1431      20233100 
 1432              	.LC1:
 1433 0014 6164635F 		.ascii	"adc_lld_start(), #2\000"
 1433      6C6C645F 
 1433      73746172 
 1433      7428292C 
 1433      20233200 
 1434              	.LC2:
 1435 0028 6164635F 		.ascii	"adc_lld_calibrate(), #1\000"
 1435      6C6C645F 
 1435      63616C69 
 1435      62726174 
 1435      6528292C 
 1436              	.LC3:
 1437 0040 6164635F 		.ascii	"adc_lld_calibrate(), #2\000"
 1437      6C6C645F 
 1437      63616C69 
 1437      62726174 
 1437      6528292C 
 1438              	.LC4:
 1439 0058 6164635F 		.ascii	"adc_lld_start_conversion(), #1\000"
 1439      6C6C645F 
 1439      73746172 
 1439      745F636F 
 1439      6E766572 
 1440 0077 00       		.text
 1441              	.Letext0:
 1442              		.file 2 "/opt/ChibiStudio/tools/gcc-arm-none-eabi-4_7-2013q1/bin/../lib/gcc/arm-none-eabi/4.7.3/in
 1443              		.file 3 "/opt/ChibiStudio/tools/gcc-arm-none-eabi-4_7-2013q1/bin/../lib/gcc/arm-none-eabi/4.7.3/..
 1444              		.file 4 "../../../os/ports/GCC/ARMCMx/chtypes.h"
 1445              		.file 5 "../../../os/kernel/include/chlists.h"
 1446              		.file 6 "../../../os/kernel/include/chthreads.h"
 1447              		.file 7 "../../../os/ports/GCC/ARMCMx/chcore_v7m.h"
 1448              		.file 8 "../../../os/kernel/include/chmtx.h"
ARM GAS  /tmp/ccxnLgeo.s 			page 27


 1449              		.file 9 "../../../os/hal/platforms/STM32F30x/stm32f30x.h"
 1450              		.file 10 "../../../os/hal/platforms/STM32F30x/hal_lld.h"
 1451              		.file 11 "../../../os/hal/platforms/STM32F30x/stm32_dma.h"
 1452              		.file 12 "../../../os/hal/include/adc.h"
 1453              		.file 13 "../../../os/hal/platforms/STM32F30x/adc_lld.h"
 1454              		.file 14 "../../../os/ports/common/ARMCMx/CMSIS/include/core_cm4.h"
 1455              		.file 15 "../../../os/ports/common/ARMCMx/nvic.h"
 1456              		.file 16 "../../../os/hal/include/hal.h"
 1457              		.file 17 "../../../os/kernel/include/chdebug.h"
 1458              		.file 18 "../../../os/kernel/include/chschd.h"