ARM GAS  /tmp/ccevInyS.s 			page 1


   1              		.syntax unified
   2              		.cpu cortex-m4
   3              		.fpu softvfp
   4              		.eabi_attribute 20, 1
   5              		.eabi_attribute 21, 1
   6              		.eabi_attribute 23, 3
   7              		.eabi_attribute 24, 1
   8              		.eabi_attribute 25, 1
   9              		.eabi_attribute 26, 1
  10              		.eabi_attribute 30, 2
  11              		.eabi_attribute 34, 1
  12              		.eabi_attribute 18, 4
  13              		.thumb
  14              		.file	"chevents.c"
  15              		.text
  16              	.Ltext0:
  17              		.cfi_sections	.debug_frame
  18              		.section	.text.chEvtRegisterMask,"ax",%progbits
  19              		.align	2
  20              		.p2align 4,,15
  21              		.global	chEvtRegisterMask
  22              		.thumb
  23              		.thumb_func
  24              		.type	chEvtRegisterMask, %function
  25              	chEvtRegisterMask:
  26              	.LFB7:
  27              		.file 1 "../../../os/kernel/src/chevents.c"
  28              		.loc 1 85 0
  29              		.cfi_startproc
  30              		@ args = 0, pretend = 0, frame = 0
  31              		@ frame_needed = 0, uses_anonymous_args = 0
  32              	.LVL0:
  33 0000 F8B5     		push	{r3, r4, r5, r6, r7, lr}
  34              	.LCFI0:
  35              		.cfi_def_cfa_offset 24
  36              		.cfi_offset 3, -24
  37              		.cfi_offset 4, -20
  38              		.cfi_offset 5, -16
  39              		.cfi_offset 6, -12
  40              		.cfi_offset 7, -8
  41              		.cfi_offset 14, -4
  42              		.loc 1 87 0
  43 0002 0546     		mov	r5, r0
  44              		.loc 1 85 0
  45 0004 0C46     		mov	r4, r1
  46 0006 1746     		mov	r7, r2
  47              		.loc 1 87 0
  48 0008 A0B1     		cbz	r0, .L2
  49              		.loc 1 87 0 is_stmt 0 discriminator 2
  50 000a 99B1     		cbz	r1, .L2
  51              	.LVL1:
  52              	.L3:
  53              	.LBB2:
  54              		.loc 1 89 0 is_stmt 1
  55 000c 2023     		movs	r3, #32
  56              	.LVL2:
  57              	@ 89 "../../../os/kernel/src/chevents.c" 1
ARM GAS  /tmp/ccevInyS.s 			page 2


  58 000e 83F31188 		msr     BASEPRI, r3
  59              	@ 0 "" 2
  60              	.LVL3:
  61              		.thumb
  62              	.LBE2:
  63 0012 FFF7FEFF 		bl	dbg_check_lock
  64              	.LVL4:
  65              		.loc 1 92 0
  66 0016 094B     		ldr	r3, .L8
  67              		.loc 1 90 0
  68 0018 2A68     		ldr	r2, [r5, #0]
  69              		.loc 1 92 0
  70 001a 9869     		ldr	r0, [r3, #24]
  71              		.loc 1 90 0
  72 001c 2260     		str	r2, [r4, #0]
  73              		.loc 1 94 0
  74 001e 0026     		movs	r6, #0
  75              		.loc 1 91 0
  76 0020 2C60     		str	r4, [r5, #0]
  77              		.loc 1 92 0
  78 0022 6060     		str	r0, [r4, #4]
  79              		.loc 1 93 0
  80 0024 A760     		str	r7, [r4, #8]
  81              		.loc 1 94 0
  82 0026 E660     		str	r6, [r4, #12]
  83              		.loc 1 95 0
  84 0028 FFF7FEFF 		bl	dbg_check_unlock
  85              	.LVL5:
  86              	.LBB3:
  87 002c 3346     		mov	r3, r6
  88              	.LVL6:
  89              	@ 95 "../../../os/kernel/src/chevents.c" 1
  90 002e 83F31188 		msr     BASEPRI, r3
  91              	@ 0 "" 2
  92              	.LVL7:
  93              		.thumb
  94 0032 F8BD     		pop	{r3, r4, r5, r6, r7, pc}
  95              	.LVL8:
  96              	.L2:
  97              	.LBE3:
  98              		.loc 1 87 0 discriminator 1
  99 0034 0248     		ldr	r0, .L8+4
 100              	.LVL9:
 101 0036 FFF7FEFF 		bl	chDbgPanic
 102              	.LVL10:
 103 003a E7E7     		b	.L3
 104              	.L9:
 105              		.align	2
 106              	.L8:
 107 003c 00000000 		.word	rlist
 108 0040 00000000 		.word	.LC0
 109              		.cfi_endproc
 110              	.LFE7:
 111              		.size	chEvtRegisterMask, .-chEvtRegisterMask
 112 0044 AFF30080 		.section	.text.chEvtUnregister,"ax",%progbits
 112      AFF30080 
 112      AFF30080 
ARM GAS  /tmp/ccevInyS.s 			page 3


 113              		.align	2
 114              		.p2align 4,,15
 115              		.global	chEvtUnregister
 116              		.thumb
 117              		.thumb_func
 118              		.type	chEvtUnregister, %function
 119              	chEvtUnregister:
 120              	.LFB8:
 121              		.loc 1 111 0
 122              		.cfi_startproc
 123              		@ args = 0, pretend = 0, frame = 0
 124              		@ frame_needed = 0, uses_anonymous_args = 0
 125              	.LVL11:
 126 0000 38B5     		push	{r3, r4, r5, lr}
 127              	.LCFI1:
 128              		.cfi_def_cfa_offset 16
 129              		.cfi_offset 3, -16
 130              		.cfi_offset 4, -12
 131              		.cfi_offset 5, -8
 132              		.cfi_offset 14, -4
 133              		.loc 1 114 0
 134 0002 0446     		mov	r4, r0
 135              		.loc 1 111 0
 136 0004 0D46     		mov	r5, r1
 137              		.loc 1 114 0
 138 0006 A8B1     		cbz	r0, .L11
 139              		.loc 1 114 0 is_stmt 0 discriminator 2
 140 0008 A1B1     		cbz	r1, .L11
 141              	.LVL12:
 142              	.L12:
 143              	.LBB4:
 144              		.loc 1 117 0 is_stmt 1
 145 000a 2023     		movs	r3, #32
 146              	.LVL13:
 147              	@ 117 "../../../os/kernel/src/chevents.c" 1
 148 000c 83F31188 		msr     BASEPRI, r3
 149              	@ 0 "" 2
 150              	.LVL14:
 151              		.thumb
 152              	.LBE4:
 153 0010 FFF7FEFF 		bl	dbg_check_lock
 154              	.LVL15:
 155              		.loc 1 118 0
 156 0014 2246     		mov	r2, r4
 157 0016 00E0     		b	.L13
 158              	.LVL16:
 159              	.L16:
 160              		.loc 1 119 0
 161 0018 1A46     		mov	r2, r3
 162              	.LVL17:
 163              	.L13:
 164              		.loc 1 118 0 discriminator 1
 165 001a 1368     		ldr	r3, [r2, #0]
 166 001c A342     		cmp	r3, r4
 167 001e 03D0     		beq	.L14
 168              		.loc 1 119 0
 169 0020 9D42     		cmp	r5, r3
ARM GAS  /tmp/ccevInyS.s 			page 4


 170 0022 F9D1     		bne	.L16
 171              		.loc 1 120 0
 172 0024 2868     		ldr	r0, [r5, #0]
 173 0026 1060     		str	r0, [r2, #0]
 174              	.L14:
 175              		.loc 1 125 0
 176 0028 FFF7FEFF 		bl	dbg_check_unlock
 177              	.LVL18:
 178              	.LBB5:
 179 002c 0023     		movs	r3, #0
 180              	.LVL19:
 181              	@ 125 "../../../os/kernel/src/chevents.c" 1
 182 002e 83F31188 		msr     BASEPRI, r3
 183              	@ 0 "" 2
 184              	.LVL20:
 185              		.thumb
 186 0032 38BD     		pop	{r3, r4, r5, pc}
 187              	.LVL21:
 188              	.L11:
 189              	.LBE5:
 190              		.loc 1 114 0 discriminator 1
 191 0034 0148     		ldr	r0, .L20
 192              	.LVL22:
 193 0036 FFF7FEFF 		bl	chDbgPanic
 194              	.LVL23:
 195 003a E6E7     		b	.L12
 196              	.L21:
 197              		.align	2
 198              	.L20:
 199 003c 18000000 		.word	.LC1
 200              		.cfi_endproc
 201              	.LFE8:
 202              		.size	chEvtUnregister, .-chEvtUnregister
 203              		.section	.text.chEvtGetAndClearEvents,"ax",%progbits
 204              		.align	2
 205              		.p2align 4,,15
 206              		.global	chEvtGetAndClearEvents
 207              		.thumb
 208              		.thumb_func
 209              		.type	chEvtGetAndClearEvents, %function
 210              	chEvtGetAndClearEvents:
 211              	.LFB9:
 212              		.loc 1 136 0
 213              		.cfi_startproc
 214              		@ args = 0, pretend = 0, frame = 0
 215              		@ frame_needed = 0, uses_anonymous_args = 0
 216              	.LVL24:
 217 0000 10B5     		push	{r4, lr}
 218              	.LCFI2:
 219              		.cfi_def_cfa_offset 8
 220              		.cfi_offset 4, -8
 221              		.cfi_offset 14, -4
 222              	.LBB6:
 223              		.loc 1 139 0
 224 0002 2023     		movs	r3, #32
 225              	.LVL25:
 226              	.LBE6:
ARM GAS  /tmp/ccevInyS.s 			page 5


 227              		.loc 1 136 0
 228 0004 0446     		mov	r4, r0
 229              	.LBB7:
 230              		.loc 1 139 0
 231              	@ 139 "../../../os/kernel/src/chevents.c" 1
 232 0006 83F31188 		msr     BASEPRI, r3
 233              	@ 0 "" 2
 234              	.LVL26:
 235              		.thumb
 236              	.LBE7:
 237 000a FFF7FEFF 		bl	dbg_check_lock
 238              	.LVL27:
 239              		.loc 1 141 0
 240 000e 40F20003 		movw	r3, #:lower16:rlist
 241 0012 C0F20003 		movt	r3, #:upper16:rlist
 242 0016 9969     		ldr	r1, [r3, #24]
 243 0018 C86B     		ldr	r0, [r1, #60]
 244              		.loc 1 142 0
 245 001a 20EA0402 		bic	r2, r0, r4
 246 001e CA63     		str	r2, [r1, #60]
 247              		.loc 1 141 0
 248 0020 0440     		ands	r4, r4, r0
 249              	.LVL28:
 250              		.loc 1 144 0
 251 0022 FFF7FEFF 		bl	dbg_check_unlock
 252              	.LVL29:
 253              	.LBB8:
 254 0026 0023     		movs	r3, #0
 255              	.LVL30:
 256              	@ 144 "../../../os/kernel/src/chevents.c" 1
 257 0028 83F31188 		msr     BASEPRI, r3
 258              	@ 0 "" 2
 259              	.LVL31:
 260              		.thumb
 261              	.LBE8:
 262              		.loc 1 146 0
 263 002c 2046     		mov	r0, r4
 264 002e 10BD     		pop	{r4, pc}
 265              		.cfi_endproc
 266              	.LFE9:
 267              		.size	chEvtGetAndClearEvents, .-chEvtGetAndClearEvents
 268              		.section	.text.chEvtAddEvents,"ax",%progbits
 269              		.align	2
 270              		.p2align 4,,15
 271              		.global	chEvtAddEvents
 272              		.thumb
 273              		.thumb_func
 274              		.type	chEvtAddEvents, %function
 275              	chEvtAddEvents:
 276              	.LFB10:
 277              		.loc 1 157 0
 278              		.cfi_startproc
 279              		@ args = 0, pretend = 0, frame = 0
 280              		@ frame_needed = 0, uses_anonymous_args = 0
 281              	.LVL32:
 282 0000 10B5     		push	{r4, lr}
 283              	.LCFI3:
ARM GAS  /tmp/ccevInyS.s 			page 6


 284              		.cfi_def_cfa_offset 8
 285              		.cfi_offset 4, -8
 286              		.cfi_offset 14, -4
 287              	.LBB9:
 288              		.loc 1 159 0
 289 0002 2023     		movs	r3, #32
 290              	.LVL33:
 291              	.LBE9:
 292              		.loc 1 157 0
 293 0004 0446     		mov	r4, r0
 294              	.LBB10:
 295              		.loc 1 159 0
 296              	@ 159 "../../../os/kernel/src/chevents.c" 1
 297 0006 83F31188 		msr     BASEPRI, r3
 298              	@ 0 "" 2
 299              	.LVL34:
 300              		.thumb
 301              	.LBE10:
 302 000a FFF7FEFF 		bl	dbg_check_lock
 303              	.LVL35:
 304              		.loc 1 161 0
 305 000e 40F20003 		movw	r3, #:lower16:rlist
 306 0012 C0F20003 		movt	r3, #:upper16:rlist
 307 0016 9869     		ldr	r0, [r3, #24]
 308 0018 C26B     		ldr	r2, [r0, #60]
 309 001a 1443     		orrs	r4, r4, r2
 310              	.LVL36:
 311 001c C463     		str	r4, [r0, #60]
 312              	.LVL37:
 313              		.loc 1 163 0
 314 001e FFF7FEFF 		bl	dbg_check_unlock
 315              	.LVL38:
 316              	.LBB11:
 317 0022 0023     		movs	r3, #0
 318              	.LVL39:
 319              	@ 163 "../../../os/kernel/src/chevents.c" 1
 320 0024 83F31188 		msr     BASEPRI, r3
 321              	@ 0 "" 2
 322              	.LVL40:
 323              		.thumb
 324              	.LBE11:
 325              		.loc 1 165 0
 326 0028 2046     		mov	r0, r4
 327 002a 10BD     		pop	{r4, pc}
 328              		.cfi_endproc
 329              	.LFE10:
 330              		.size	chEvtAddEvents, .-chEvtAddEvents
 331 002c AFF30080 		.section	.text.chEvtGetAndClearFlags,"ax",%progbits
 332              		.align	2
 333              		.p2align 4,,15
 334              		.global	chEvtGetAndClearFlags
 335              		.thumb
 336              		.thumb_func
 337              		.type	chEvtGetAndClearFlags, %function
 338              	chEvtGetAndClearFlags:
 339              	.LFB12:
 340              		.loc 1 209 0
ARM GAS  /tmp/ccevInyS.s 			page 7


 341              		.cfi_startproc
 342              		@ args = 0, pretend = 0, frame = 0
 343              		@ frame_needed = 0, uses_anonymous_args = 0
 344              	.LVL41:
 345 0000 70B5     		push	{r4, r5, r6, lr}
 346              	.LCFI4:
 347              		.cfi_def_cfa_offset 16
 348              		.cfi_offset 4, -16
 349              		.cfi_offset 5, -12
 350              		.cfi_offset 6, -8
 351              		.cfi_offset 14, -4
 352              	.LBB12:
 353              		.loc 1 212 0
 354 0002 2023     		movs	r3, #32
 355              	.LVL42:
 356              	.LBE12:
 357              		.loc 1 209 0
 358 0004 0546     		mov	r5, r0
 359              	.LBB13:
 360              		.loc 1 212 0
 361              	@ 212 "../../../os/kernel/src/chevents.c" 1
 362 0006 83F31188 		msr     BASEPRI, r3
 363              	@ 0 "" 2
 364              	.LVL43:
 365              		.thumb
 366              	.LBE13:
 367              		.loc 1 215 0
 368 000a 0024     		movs	r4, #0
 369              		.loc 1 212 0
 370 000c FFF7FEFF 		bl	dbg_check_lock
 371              	.LVL44:
 372              		.loc 1 214 0
 373 0010 EE68     		ldr	r6, [r5, #12]
 374              	.LVL45:
 375              		.loc 1 215 0
 376 0012 EC60     		str	r4, [r5, #12]
 377              		.loc 1 217 0
 378 0014 FFF7FEFF 		bl	dbg_check_unlock
 379              	.LVL46:
 380              	.LBB14:
 381 0018 2346     		mov	r3, r4
 382              	.LVL47:
 383              	@ 217 "../../../os/kernel/src/chevents.c" 1
 384 001a 83F31188 		msr     BASEPRI, r3
 385              	@ 0 "" 2
 386              	.LVL48:
 387              		.thumb
 388              	.LBE14:
 389              		.loc 1 219 0
 390 001e 3046     		mov	r0, r6
 391 0020 70BD     		pop	{r4, r5, r6, pc}
 392              		.cfi_endproc
 393              	.LFE12:
 394              		.size	chEvtGetAndClearFlags, .-chEvtGetAndClearFlags
 395 0022 00BFAFF3 		.section	.text.chEvtSignalI,"ax",%progbits
 395      0080AFF3 
 395      0080AFF3 
ARM GAS  /tmp/ccevInyS.s 			page 8


 395      0080
 396              		.align	2
 397              		.p2align 4,,15
 398              		.global	chEvtSignalI
 399              		.thumb
 400              		.thumb_func
 401              		.type	chEvtSignalI, %function
 402              	chEvtSignalI:
 403              	.LFB14:
 404              		.loc 1 251 0
 405              		.cfi_startproc
 406              		@ args = 0, pretend = 0, frame = 0
 407              		@ frame_needed = 0, uses_anonymous_args = 0
 408              	.LVL49:
 409 0000 38B5     		push	{r3, r4, r5, lr}
 410              	.LCFI5:
 411              		.cfi_def_cfa_offset 16
 412              		.cfi_offset 3, -16
 413              		.cfi_offset 4, -12
 414              		.cfi_offset 5, -8
 415              		.cfi_offset 14, -4
 416              		.loc 1 251 0
 417 0002 0446     		mov	r4, r0
 418 0004 0D46     		mov	r5, r1
 419              		.loc 1 253 0
 420 0006 FFF7FEFF 		bl	chDbgCheckClassI
 421              	.LVL50:
 422              		.loc 1 254 0
 423 000a C4B1     		cbz	r4, .L30
 424              	.L26:
 425              		.loc 1 256 0
 426 000c E26B     		ldr	r2, [r4, #60]
 427              		.loc 1 258 0
 428 000e 94F82030 		ldrb	r3, [r4, #32]	@ zero_extendqisi2
 429              		.loc 1 256 0
 430 0012 45EA0201 		orr	r1, r5, r2
 431              		.loc 1 258 0
 432 0016 082B     		cmp	r3, #8
 433              		.loc 1 256 0
 434 0018 E163     		str	r1, [r4, #60]
 435              		.loc 1 258 0
 436 001a 0CD0     		beq	.L31
 437              		.loc 1 259 0
 438 001c 092B     		cmp	r3, #9
 439 001e 00D0     		beq	.L32
 440              	.L25:
 441 0020 38BD     		pop	{r3, r4, r5, pc}
 442              	.L32:
 443              		.loc 1 261 0
 444 0022 A06A     		ldr	r0, [r4, #40]
 445 0024 0140     		ands	r1, r1, r0
 446              		.loc 1 260 0
 447 0026 8842     		cmp	r0, r1
 448 0028 FAD1     		bne	.L25
 449              	.L28:
 450              	.LVL51:
 451              	.LBB17:
ARM GAS  /tmp/ccevInyS.s 			page 9


 452              	.LBB18:
 453              		.loc 1 262 0
 454 002a 2046     		mov	r0, r4
 455 002c FFF7FEFF 		bl	chSchReadyI
 456              	.LVL52:
 457 0030 0023     		movs	r3, #0
 458 0032 8362     		str	r3, [r0, #40]
 459 0034 38BD     		pop	{r3, r4, r5, pc}
 460              	.LVL53:
 461              	.L31:
 462              	.LBE18:
 463              	.LBE17:
 464              		.loc 1 259 0 discriminator 1
 465 0036 A26A     		ldr	r2, [r4, #40]
 466              		.loc 1 258 0 discriminator 1
 467 0038 1142     		tst	r1, r2
 468 003a F6D1     		bne	.L28
 469 003c 38BD     		pop	{r3, r4, r5, pc}
 470              	.L30:
 471              		.loc 1 254 0 discriminator 1
 472 003e 0248     		ldr	r0, .L33
 473 0040 FFF7FEFF 		bl	chDbgPanic
 474              	.LVL54:
 475 0044 E2E7     		b	.L26
 476              	.L34:
 477 0046 00BF     		.align	2
 478              	.L33:
 479 0048 2C000000 		.word	.LC2
 480              		.cfi_endproc
 481              	.LFE14:
 482              		.size	chEvtSignalI, .-chEvtSignalI
 483 004c AFF30080 		.section	.text.chEvtSignal,"ax",%progbits
 484              		.align	2
 485              		.p2align 4,,15
 486              		.global	chEvtSignal
 487              		.thumb
 488              		.thumb_func
 489              		.type	chEvtSignal, %function
 490              	chEvtSignal:
 491              	.LFB13:
 492              		.loc 1 229 0
 493              		.cfi_startproc
 494              		@ args = 0, pretend = 0, frame = 0
 495              		@ frame_needed = 0, uses_anonymous_args = 0
 496              	.LVL55:
 497 0000 38B5     		push	{r3, r4, r5, lr}
 498              	.LCFI6:
 499              		.cfi_def_cfa_offset 16
 500              		.cfi_offset 3, -16
 501              		.cfi_offset 4, -12
 502              		.cfi_offset 5, -8
 503              		.cfi_offset 14, -4
 504              		.loc 1 231 0
 505 0002 0446     		mov	r4, r0
 506              		.loc 1 229 0
 507 0004 0D46     		mov	r5, r1
 508              		.loc 1 231 0
ARM GAS  /tmp/ccevInyS.s 			page 10


 509 0006 80B1     		cbz	r0, .L37
 510              	.LVL56:
 511              	.L36:
 512              	.LBB19:
 513              		.loc 1 233 0
 514 0008 2023     		movs	r3, #32
 515              	.LVL57:
 516              	@ 233 "../../../os/kernel/src/chevents.c" 1
 517 000a 83F31188 		msr     BASEPRI, r3
 518              	@ 0 "" 2
 519              	.LVL58:
 520              		.thumb
 521              	.LBE19:
 522 000e FFF7FEFF 		bl	dbg_check_lock
 523              	.LVL59:
 524              		.loc 1 234 0
 525 0012 2046     		mov	r0, r4
 526 0014 2946     		mov	r1, r5
 527 0016 FFF7FEFF 		bl	chEvtSignalI
 528              	.LVL60:
 529              		.loc 1 235 0
 530 001a FFF7FEFF 		bl	chSchRescheduleS
 531              	.LVL61:
 532              		.loc 1 236 0
 533 001e FFF7FEFF 		bl	dbg_check_unlock
 534              	.LVL62:
 535              	.LBB20:
 536 0022 0023     		movs	r3, #0
 537              	.LVL63:
 538              	@ 236 "../../../os/kernel/src/chevents.c" 1
 539 0024 83F31188 		msr     BASEPRI, r3
 540              	@ 0 "" 2
 541              	.LVL64:
 542              		.thumb
 543 0028 38BD     		pop	{r3, r4, r5, pc}
 544              	.LVL65:
 545              	.L37:
 546              	.LBE20:
 547              		.loc 1 231 0 discriminator 1
 548 002a 0248     		ldr	r0, .L38
 549              	.LVL66:
 550 002c FFF7FEFF 		bl	chDbgPanic
 551              	.LVL67:
 552 0030 EAE7     		b	.L36
 553              	.L39:
 554 0032 00BF     		.align	2
 555              	.L38:
 556 0034 40000000 		.word	.LC3
 557              		.cfi_endproc
 558              	.LFE13:
 559              		.size	chEvtSignal, .-chEvtSignal
 560 0038 AFF30080 		.section	.text.chEvtBroadcastFlagsI,"ax",%progbits
 560      AFF30080 
 561              		.align	2
 562              		.p2align 4,,15
 563              		.global	chEvtBroadcastFlagsI
 564              		.thumb
ARM GAS  /tmp/ccevInyS.s 			page 11


 565              		.thumb_func
 566              		.type	chEvtBroadcastFlagsI, %function
 567              	chEvtBroadcastFlagsI:
 568              	.LFB11:
 569              		.loc 1 184 0
 570              		.cfi_startproc
 571              		@ args = 0, pretend = 0, frame = 0
 572              		@ frame_needed = 0, uses_anonymous_args = 0
 573              	.LVL68:
 574 0000 70B5     		push	{r4, r5, r6, lr}
 575              	.LCFI7:
 576              		.cfi_def_cfa_offset 16
 577              		.cfi_offset 4, -16
 578              		.cfi_offset 5, -12
 579              		.cfi_offset 6, -8
 580              		.cfi_offset 14, -4
 581              		.loc 1 184 0
 582 0002 0546     		mov	r5, r0
 583 0004 0E46     		mov	r6, r1
 584              		.loc 1 187 0
 585 0006 FFF7FEFF 		bl	chDbgCheckClassI
 586              	.LVL69:
 587              		.loc 1 188 0
 588 000a 65B1     		cbz	r5, .L47
 589              	.L41:
 590              		.loc 1 190 0
 591 000c 2C68     		ldr	r4, [r5, #0]
 592              	.LVL70:
 593              		.loc 1 191 0
 594 000e A542     		cmp	r5, r4
 595 0010 08D0     		beq	.L40
 596              	.L45:
 597              		.loc 1 193 0
 598 0012 201D     		adds	r0, r4, #4
 599 0014 0BC8     		ldmia	r0, {r0, r1, r3}
 600              		.loc 1 192 0
 601 0016 3343     		orrs	r3, r3, r6
 602 0018 E360     		str	r3, [r4, #12]
 603              		.loc 1 193 0
 604 001a FFF7FEFF 		bl	chEvtSignalI
 605              	.LVL71:
 606              		.loc 1 194 0
 607 001e 2468     		ldr	r4, [r4, #0]
 608              	.LVL72:
 609              		.loc 1 191 0
 610 0020 A542     		cmp	r5, r4
 611 0022 F6D1     		bne	.L45
 612              	.L40:
 613 0024 70BD     		pop	{r4, r5, r6, pc}
 614              	.LVL73:
 615              	.L47:
 616              		.loc 1 188 0 discriminator 1
 617 0026 0248     		ldr	r0, .L48
 618 0028 FFF7FEFF 		bl	chDbgPanic
 619              	.LVL74:
 620 002c EEE7     		b	.L41
 621              	.L49:
ARM GAS  /tmp/ccevInyS.s 			page 12


 622 002e 00BF     		.align	2
 623              	.L48:
 624 0030 50000000 		.word	.LC4
 625              		.cfi_endproc
 626              	.LFE11:
 627              		.size	chEvtBroadcastFlagsI, .-chEvtBroadcastFlagsI
 628 0034 AFF30080 		.section	.text.chEvtBroadcastFlags,"ax",%progbits
 628      AFF30080 
 628      AFF30080 
 629              		.align	2
 630              		.p2align 4,,15
 631              		.global	chEvtBroadcastFlags
 632              		.thumb
 633              		.thumb_func
 634              		.type	chEvtBroadcastFlags, %function
 635              	chEvtBroadcastFlags:
 636              	.LFB15:
 637              		.loc 1 278 0
 638              		.cfi_startproc
 639              		@ args = 0, pretend = 0, frame = 0
 640              		@ frame_needed = 0, uses_anonymous_args = 0
 641              	.LVL75:
 642 0000 38B5     		push	{r3, r4, r5, lr}
 643              	.LCFI8:
 644              		.cfi_def_cfa_offset 16
 645              		.cfi_offset 3, -16
 646              		.cfi_offset 4, -12
 647              		.cfi_offset 5, -8
 648              		.cfi_offset 14, -4
 649              		.loc 1 278 0
 650 0002 0546     		mov	r5, r0
 651 0004 0C46     		mov	r4, r1
 652              	.LBB21:
 653              		.loc 1 280 0
 654 0006 2023     		movs	r3, #32
 655              	.LVL76:
 656              	@ 280 "../../../os/kernel/src/chevents.c" 1
 657 0008 83F31188 		msr     BASEPRI, r3
 658              	@ 0 "" 2
 659              	.LVL77:
 660              		.thumb
 661              	.LBE21:
 662 000c FFF7FEFF 		bl	dbg_check_lock
 663              	.LVL78:
 664              		.loc 1 281 0
 665 0010 2846     		mov	r0, r5
 666 0012 2146     		mov	r1, r4
 667 0014 FFF7FEFF 		bl	chEvtBroadcastFlagsI
 668              	.LVL79:
 669              		.loc 1 282 0
 670 0018 FFF7FEFF 		bl	chSchRescheduleS
 671              	.LVL80:
 672              		.loc 1 283 0
 673 001c FFF7FEFF 		bl	dbg_check_unlock
 674              	.LVL81:
 675              	.LBB22:
 676 0020 0023     		movs	r3, #0
ARM GAS  /tmp/ccevInyS.s 			page 13


 677              	.LVL82:
 678              	@ 283 "../../../os/kernel/src/chevents.c" 1
 679 0022 83F31188 		msr     BASEPRI, r3
 680              	@ 0 "" 2
 681              	.LVL83:
 682              		.thumb
 683 0026 38BD     		pop	{r3, r4, r5, pc}
 684              	.LBE22:
 685              		.cfi_endproc
 686              	.LFE15:
 687              		.size	chEvtBroadcastFlags, .-chEvtBroadcastFlags
 688 0028 AFF30080 		.section	.text.chEvtGetAndClearFlagsI,"ax",%progbits
 688      AFF30080 
 689              		.align	2
 690              		.p2align 4,,15
 691              		.global	chEvtGetAndClearFlagsI
 692              		.thumb
 693              		.thumb_func
 694              		.type	chEvtGetAndClearFlagsI, %function
 695              	chEvtGetAndClearFlagsI:
 696              	.LFB16:
 697              		.loc 1 297 0
 698              		.cfi_startproc
 699              		@ args = 0, pretend = 0, frame = 0
 700              		@ frame_needed = 0, uses_anonymous_args = 0
 701              		@ link register save eliminated.
 702              	.LVL84:
 703              		.loc 1 297 0
 704 0000 0346     		mov	r3, r0
 705              		.loc 1 301 0
 706 0002 0022     		movs	r2, #0
 707              		.loc 1 300 0
 708 0004 C068     		ldr	r0, [r0, #12]
 709              	.LVL85:
 710              		.loc 1 301 0
 711 0006 DA60     		str	r2, [r3, #12]
 712              		.loc 1 304 0
 713 0008 7047     		bx	lr
 714              		.cfi_endproc
 715              	.LFE16:
 716              		.size	chEvtGetAndClearFlagsI, .-chEvtGetAndClearFlagsI
 717 000a 00BFAFF3 		.section	.text.chEvtDispatch,"ax",%progbits
 717      0080
 718              		.align	2
 719              		.p2align 4,,15
 720              		.global	chEvtDispatch
 721              		.thumb
 722              		.thumb_func
 723              		.type	chEvtDispatch, %function
 724              	chEvtDispatch:
 725              	.LFB17:
 726              		.loc 1 315 0
 727              		.cfi_startproc
 728              		@ args = 0, pretend = 0, frame = 0
 729              		@ frame_needed = 0, uses_anonymous_args = 0
 730              	.LVL86:
 731 0000 2DE9F041 		push	{r4, r5, r6, r7, r8, lr}
ARM GAS  /tmp/ccevInyS.s 			page 14


 732              	.LCFI9:
 733              		.cfi_def_cfa_offset 24
 734              		.cfi_offset 4, -24
 735              		.cfi_offset 5, -20
 736              		.cfi_offset 6, -16
 737              		.cfi_offset 7, -12
 738              		.cfi_offset 8, -8
 739              		.cfi_offset 14, -4
 740              		.loc 1 318 0
 741 0004 8046     		mov	r8, r0
 742              		.loc 1 315 0
 743 0006 0D46     		mov	r5, r1
 744              		.loc 1 318 0
 745 0008 D0B1     		cbz	r0, .L63
 746              	.LVL87:
 747              	.L53:
 748              		.loc 1 321 0 discriminator 1
 749 000a 8DB1     		cbz	r5, .L52
 750              		.loc 1 321 0 is_stmt 0
 751 000c 0026     		movs	r6, #0
 752 000e 3446     		mov	r4, r6
 753              		.loc 1 322 0 is_stmt 1
 754 0010 0127     		movs	r7, #1
 755              	.LVL88:
 756              	.L54:
 757 0012 07FA04F3 		lsl	r3, r7, r4
 758 0016 2B42     		tst	r3, r5
 759 0018 06D0     		beq	.L55
 760              		.loc 1 323 0
 761 001a 58F80620 		ldr	r2, [r8, r6]
 762              		.loc 1 326 0
 763 001e 25EA0305 		bic	r5, r5, r3
 764              	.LVL89:
 765              		.loc 1 323 0
 766 0022 3AB1     		cbz	r2, .L64
 767              	.L56:
 768              	.LVL90:
 769              		.loc 1 327 0
 770 0024 2046     		mov	r0, r4
 771 0026 9047     		blx	r2
 772              	.LVL91:
 773              	.L55:
 774              		.loc 1 329 0
 775 0028 0134     		adds	r4, r4, #1
 776              	.LVL92:
 777 002a 0436     		adds	r6, r6, #4
 778              		.loc 1 321 0
 779 002c 002D     		cmp	r5, #0
 780 002e F0D1     		bne	.L54
 781              	.LVL93:
 782              	.L52:
 783 0030 BDE8F081 		pop	{r4, r5, r6, r7, r8, pc}
 784              	.LVL94:
 785              	.L64:
 786              		.loc 1 323 0 discriminator 1
 787 0034 0448     		ldr	r0, .L65
 788 0036 FFF7FEFF 		bl	chDbgPanic
ARM GAS  /tmp/ccevInyS.s 			page 15


 789              	.LVL95:
 790 003a 58F80620 		ldr	r2, [r8, r6]
 791 003e F1E7     		b	.L56
 792              	.LVL96:
 793              	.L63:
 794              		.loc 1 318 0 discriminator 1
 795 0040 0248     		ldr	r0, .L65+4
 796              	.LVL97:
 797 0042 FFF7FEFF 		bl	chDbgPanic
 798              	.LVL98:
 799 0046 E0E7     		b	.L53
 800              	.L66:
 801              		.align	2
 802              	.L65:
 803 0048 7C000000 		.word	.LC6
 804 004c 68000000 		.word	.LC5
 805              		.cfi_endproc
 806              	.LFE17:
 807              		.size	chEvtDispatch, .-chEvtDispatch
 808              		.section	.text.chEvtWaitOne,"ax",%progbits
 809              		.align	2
 810              		.p2align 4,,15
 811              		.global	chEvtWaitOne
 812              		.thumb
 813              		.thumb_func
 814              		.type	chEvtWaitOne, %function
 815              	chEvtWaitOne:
 816              	.LFB18:
 817              		.loc 1 350 0
 818              		.cfi_startproc
 819              		@ args = 0, pretend = 0, frame = 0
 820              		@ frame_needed = 0, uses_anonymous_args = 0
 821              	.LVL99:
 822 0000 38B5     		push	{r3, r4, r5, lr}
 823              	.LCFI10:
 824              		.cfi_def_cfa_offset 16
 825              		.cfi_offset 3, -16
 826              		.cfi_offset 4, -12
 827              		.cfi_offset 5, -8
 828              		.cfi_offset 14, -4
 829              		.loc 1 351 0
 830 0002 0F4B     		ldr	r3, .L69
 831              		.loc 1 350 0
 832 0004 0446     		mov	r4, r0
 833              		.loc 1 351 0
 834 0006 9D69     		ldr	r5, [r3, #24]
 835              	.LVL100:
 836              	.LBB23:
 837              		.loc 1 354 0
 838 0008 2023     		movs	r3, #32
 839              	.LVL101:
 840              	@ 354 "../../../os/kernel/src/chevents.c" 1
 841 000a 83F31188 		msr     BASEPRI, r3
 842              	@ 0 "" 2
 843              	.LVL102:
 844              		.thumb
 845              	.LBE23:
ARM GAS  /tmp/ccevInyS.s 			page 16


 846 000e FFF7FEFF 		bl	dbg_check_lock
 847              	.LVL103:
 848              		.loc 1 356 0
 849 0012 E86B     		ldr	r0, [r5, #60]
 850              	.LVL104:
 851 0014 14EA0002 		ands	r2, r4, r0
 852              	.LVL105:
 853 0018 06D1     		bne	.L68
 854              		.loc 1 358 0
 855 001a 0820     		movs	r0, #8
 856              		.loc 1 357 0
 857 001c AC62     		str	r4, [r5, #40]
 858              		.loc 1 358 0
 859 001e FFF7FEFF 		bl	chSchGoSleepS
 860              	.LVL106:
 861              		.loc 1 359 0
 862 0022 E86B     		ldr	r0, [r5, #60]
 863 0024 04EA0002 		and	r2, r4, r0
 864              	.LVL107:
 865              	.L68:
 866              		.loc 1 361 0
 867 0028 5442     		negs	r4, r2
 868              	.LVL108:
 869 002a 1440     		ands	r4, r4, r2
 870              	.LVL109:
 871              		.loc 1 362 0
 872 002c 20EA0400 		bic	r0, r0, r4
 873 0030 E863     		str	r0, [r5, #60]
 874              		.loc 1 364 0
 875 0032 FFF7FEFF 		bl	dbg_check_unlock
 876              	.LVL110:
 877              	.LBB24:
 878 0036 0023     		movs	r3, #0
 879              	.LVL111:
 880              	@ 364 "../../../os/kernel/src/chevents.c" 1
 881 0038 83F31188 		msr     BASEPRI, r3
 882              	@ 0 "" 2
 883              	.LVL112:
 884              		.thumb
 885              	.LBE24:
 886              		.loc 1 366 0
 887 003c 2046     		mov	r0, r4
 888 003e 38BD     		pop	{r3, r4, r5, pc}
 889              	.L70:
 890              		.align	2
 891              	.L69:
 892 0040 00000000 		.word	rlist
 893              		.cfi_endproc
 894              	.LFE18:
 895              		.size	chEvtWaitOne, .-chEvtWaitOne
 896 0044 AFF30080 		.section	.text.chEvtWaitAny,"ax",%progbits
 896      AFF30080 
 896      AFF30080 
 897              		.align	2
 898              		.p2align 4,,15
 899              		.global	chEvtWaitAny
 900              		.thumb
ARM GAS  /tmp/ccevInyS.s 			page 17


 901              		.thumb_func
 902              		.type	chEvtWaitAny, %function
 903              	chEvtWaitAny:
 904              	.LFB19:
 905              		.loc 1 379 0
 906              		.cfi_startproc
 907              		@ args = 0, pretend = 0, frame = 0
 908              		@ frame_needed = 0, uses_anonymous_args = 0
 909              	.LVL113:
 910              		.loc 1 380 0
 911 0000 0E4B     		ldr	r3, .L73
 912              		.loc 1 379 0
 913 0002 70B5     		push	{r4, r5, r6, lr}
 914              	.LCFI11:
 915              		.cfi_def_cfa_offset 16
 916              		.cfi_offset 4, -16
 917              		.cfi_offset 5, -12
 918              		.cfi_offset 6, -8
 919              		.cfi_offset 14, -4
 920              		.loc 1 380 0
 921 0004 9D69     		ldr	r5, [r3, #24]
 922              	.LVL114:
 923              		.loc 1 379 0
 924 0006 0446     		mov	r4, r0
 925              	.LBB25:
 926              		.loc 1 383 0
 927 0008 2023     		movs	r3, #32
 928              	.LVL115:
 929              	@ 383 "../../../os/kernel/src/chevents.c" 1
 930 000a 83F31188 		msr     BASEPRI, r3
 931              	@ 0 "" 2
 932              	.LVL116:
 933              		.thumb
 934              	.LBE25:
 935 000e FFF7FEFF 		bl	dbg_check_lock
 936              	.LVL117:
 937              		.loc 1 385 0
 938 0012 E86B     		ldr	r0, [r5, #60]
 939              	.LVL118:
 940 0014 14EA0006 		ands	r6, r4, r0
 941              	.LVL119:
 942 0018 06D1     		bne	.L72
 943              		.loc 1 387 0
 944 001a 0820     		movs	r0, #8
 945              		.loc 1 386 0
 946 001c AC62     		str	r4, [r5, #40]
 947              		.loc 1 387 0
 948 001e FFF7FEFF 		bl	chSchGoSleepS
 949              	.LVL120:
 950              		.loc 1 388 0
 951 0022 E86B     		ldr	r0, [r5, #60]
 952 0024 04EA0006 		and	r6, r4, r0
 953              	.LVL121:
 954              	.L72:
 955              		.loc 1 390 0
 956 0028 20EA0600 		bic	r0, r0, r6
 957 002c E863     		str	r0, [r5, #60]
ARM GAS  /tmp/ccevInyS.s 			page 18


 958              		.loc 1 392 0
 959 002e FFF7FEFF 		bl	dbg_check_unlock
 960              	.LVL122:
 961              	.LBB26:
 962 0032 0023     		movs	r3, #0
 963              	.LVL123:
 964              	@ 392 "../../../os/kernel/src/chevents.c" 1
 965 0034 83F31188 		msr     BASEPRI, r3
 966              	@ 0 "" 2
 967              	.LVL124:
 968              		.thumb
 969              	.LBE26:
 970              		.loc 1 394 0
 971 0038 3046     		mov	r0, r6
 972 003a 70BD     		pop	{r4, r5, r6, pc}
 973              	.L74:
 974              		.align	2
 975              	.L73:
 976 003c 00000000 		.word	rlist
 977              		.cfi_endproc
 978              	.LFE19:
 979              		.size	chEvtWaitAny, .-chEvtWaitAny
 980              		.section	.text.chEvtWaitAll,"ax",%progbits
 981              		.align	2
 982              		.p2align 4,,15
 983              		.global	chEvtWaitAll
 984              		.thumb
 985              		.thumb_func
 986              		.type	chEvtWaitAll, %function
 987              	chEvtWaitAll:
 988              	.LFB20:
 989              		.loc 1 407 0
 990              		.cfi_startproc
 991              		@ args = 0, pretend = 0, frame = 0
 992              		@ frame_needed = 0, uses_anonymous_args = 0
 993              	.LVL125:
 994 0000 38B5     		push	{r3, r4, r5, lr}
 995              	.LCFI12:
 996              		.cfi_def_cfa_offset 16
 997              		.cfi_offset 3, -16
 998              		.cfi_offset 4, -12
 999              		.cfi_offset 5, -8
 1000              		.cfi_offset 14, -4
 1001              		.loc 1 408 0
 1002 0002 0E4B     		ldr	r3, .L77
 1003              		.loc 1 407 0
 1004 0004 0446     		mov	r4, r0
 1005              		.loc 1 408 0
 1006 0006 9D69     		ldr	r5, [r3, #24]
 1007              	.LVL126:
 1008              	.LBB27:
 1009              		.loc 1 410 0
 1010 0008 2023     		movs	r3, #32
 1011              	.LVL127:
 1012              	@ 410 "../../../os/kernel/src/chevents.c" 1
 1013 000a 83F31188 		msr     BASEPRI, r3
 1014              	@ 0 "" 2
ARM GAS  /tmp/ccevInyS.s 			page 19


 1015              	.LVL128:
 1016              		.thumb
 1017              	.LBE27:
 1018 000e FFF7FEFF 		bl	dbg_check_lock
 1019              	.LVL129:
 1020              		.loc 1 412 0
 1021 0012 E86B     		ldr	r0, [r5, #60]
 1022 0014 04EA0002 		and	r2, r4, r0
 1023 0018 A242     		cmp	r2, r4
 1024 001a 04D0     		beq	.L76
 1025              		.loc 1 414 0
 1026 001c 0920     		movs	r0, #9
 1027              		.loc 1 413 0
 1028 001e AC62     		str	r4, [r5, #40]
 1029              		.loc 1 414 0
 1030 0020 FFF7FEFF 		bl	chSchGoSleepS
 1031              	.LVL130:
 1032 0024 E86B     		ldr	r0, [r5, #60]
 1033              	.L76:
 1034              		.loc 1 416 0
 1035 0026 20EA0400 		bic	r0, r0, r4
 1036 002a E863     		str	r0, [r5, #60]
 1037              		.loc 1 418 0
 1038 002c FFF7FEFF 		bl	dbg_check_unlock
 1039              	.LVL131:
 1040              	.LBB28:
 1041 0030 0023     		movs	r3, #0
 1042              	.LVL132:
 1043              	@ 418 "../../../os/kernel/src/chevents.c" 1
 1044 0032 83F31188 		msr     BASEPRI, r3
 1045              	@ 0 "" 2
 1046              	.LVL133:
 1047              		.thumb
 1048              	.LBE28:
 1049              		.loc 1 420 0
 1050 0036 2046     		mov	r0, r4
 1051 0038 38BD     		pop	{r3, r4, r5, pc}
 1052              	.L78:
 1053 003a 00BF     		.align	2
 1054              	.L77:
 1055 003c 00000000 		.word	rlist
 1056              		.cfi_endproc
 1057              	.LFE20:
 1058              		.size	chEvtWaitAll, .-chEvtWaitAll
 1059              		.section	.text.chEvtWaitOneTimeout,"ax",%progbits
 1060              		.align	2
 1061              		.p2align 4,,15
 1062              		.global	chEvtWaitOneTimeout
 1063              		.thumb
 1064              		.thumb_func
 1065              		.type	chEvtWaitOneTimeout, %function
 1066              	chEvtWaitOneTimeout:
 1067              	.LFB21:
 1068              		.loc 1 446 0
 1069              		.cfi_startproc
 1070              		@ args = 0, pretend = 0, frame = 0
 1071              		@ frame_needed = 0, uses_anonymous_args = 0
ARM GAS  /tmp/ccevInyS.s 			page 20


 1072              	.LVL134:
 1073 0000 F8B5     		push	{r3, r4, r5, r6, r7, lr}
 1074              	.LCFI13:
 1075              		.cfi_def_cfa_offset 24
 1076              		.cfi_offset 3, -24
 1077              		.cfi_offset 4, -20
 1078              		.cfi_offset 5, -16
 1079              		.cfi_offset 6, -12
 1080              		.cfi_offset 7, -8
 1081              		.cfi_offset 14, -4
 1082              		.loc 1 447 0
 1083 0002 154B     		ldr	r3, .L85
 1084              		.loc 1 446 0
 1085 0004 0546     		mov	r5, r0
 1086              		.loc 1 447 0
 1087 0006 9E69     		ldr	r6, [r3, #24]
 1088              	.LVL135:
 1089              		.loc 1 446 0
 1090 0008 0F46     		mov	r7, r1
 1091              	.LBB29:
 1092              		.loc 1 450 0
 1093 000a 2023     		movs	r3, #32
 1094              	.LVL136:
 1095              	@ 450 "../../../os/kernel/src/chevents.c" 1
 1096 000c 83F31188 		msr     BASEPRI, r3
 1097              	@ 0 "" 2
 1098              	.LVL137:
 1099              		.thumb
 1100              	.LBE29:
 1101 0010 FFF7FEFF 		bl	dbg_check_lock
 1102              	.LVL138:
 1103              		.loc 1 452 0
 1104 0014 F06B     		ldr	r0, [r6, #60]
 1105              	.LVL139:
 1106 0016 15EA0004 		ands	r4, r5, r0
 1107              	.LVL140:
 1108 001a 0AD1     		bne	.L80
 1109              		.loc 1 453 0
 1110 001c AFB1     		cbz	r7, .L84
 1111              		.loc 1 458 0
 1112 001e 0820     		movs	r0, #8
 1113              		.loc 1 457 0
 1114 0020 B562     		str	r5, [r6, #40]
 1115              		.loc 1 458 0
 1116 0022 3946     		mov	r1, r7
 1117 0024 FFF7FEFF 		bl	chSchGoSleepTimeoutS
 1118              	.LVL141:
 1119 0028 0028     		cmp	r0, #0
 1120 002a 0EDB     		blt	.L84
 1121              		.loc 1 462 0
 1122 002c F06B     		ldr	r0, [r6, #60]
 1123 002e 05EA0004 		and	r4, r5, r0
 1124              	.LVL142:
 1125              	.L80:
 1126              		.loc 1 464 0
 1127 0032 6242     		negs	r2, r4
 1128 0034 1440     		ands	r4, r4, r2
ARM GAS  /tmp/ccevInyS.s 			page 21


 1129              	.LVL143:
 1130              		.loc 1 465 0
 1131 0036 20EA0400 		bic	r0, r0, r4
 1132 003a F063     		str	r0, [r6, #60]
 1133              		.loc 1 467 0
 1134 003c FFF7FEFF 		bl	dbg_check_unlock
 1135              	.LVL144:
 1136              	.LBB30:
 1137 0040 0023     		movs	r3, #0
 1138              	.LVL145:
 1139              	@ 467 "../../../os/kernel/src/chevents.c" 1
 1140 0042 83F31188 		msr     BASEPRI, r3
 1141              	@ 0 "" 2
 1142              	.LVL146:
 1143              		.thumb
 1144              	.LBE30:
 1145              		.loc 1 469 0
 1146 0046 2046     		mov	r0, r4
 1147 0048 F8BD     		pop	{r3, r4, r5, r6, r7, pc}
 1148              	.LVL147:
 1149              	.L84:
 1150              		.loc 1 459 0
 1151 004a FFF7FEFF 		bl	dbg_check_unlock
 1152              	.LVL148:
 1153              	.LBB31:
 1154 004e 2346     		mov	r3, r4
 1155              	.LVL149:
 1156              	@ 459 "../../../os/kernel/src/chevents.c" 1
 1157 0050 83F31188 		msr     BASEPRI, r3
 1158              	@ 0 "" 2
 1159              	.LVL150:
 1160              		.thumb
 1161              	.LBE31:
 1162              		.loc 1 469 0
 1163 0054 2046     		mov	r0, r4
 1164 0056 F8BD     		pop	{r3, r4, r5, r6, r7, pc}
 1165              	.L86:
 1166              		.align	2
 1167              	.L85:
 1168 0058 00000000 		.word	rlist
 1169              		.cfi_endproc
 1170              	.LFE21:
 1171              		.size	chEvtWaitOneTimeout, .-chEvtWaitOneTimeout
 1172 005c AFF30080 		.section	.text.chEvtWaitAnyTimeout,"ax",%progbits
 1173              		.align	2
 1174              		.p2align 4,,15
 1175              		.global	chEvtWaitAnyTimeout
 1176              		.thumb
 1177              		.thumb_func
 1178              		.type	chEvtWaitAnyTimeout, %function
 1179              	chEvtWaitAnyTimeout:
 1180              	.LFB22:
 1181              		.loc 1 489 0
 1182              		.cfi_startproc
 1183              		@ args = 0, pretend = 0, frame = 0
 1184              		@ frame_needed = 0, uses_anonymous_args = 0
 1185              	.LVL151:
ARM GAS  /tmp/ccevInyS.s 			page 22


 1186 0000 F8B5     		push	{r3, r4, r5, r6, r7, lr}
 1187              	.LCFI14:
 1188              		.cfi_def_cfa_offset 24
 1189              		.cfi_offset 3, -24
 1190              		.cfi_offset 4, -20
 1191              		.cfi_offset 5, -16
 1192              		.cfi_offset 6, -12
 1193              		.cfi_offset 7, -8
 1194              		.cfi_offset 14, -4
 1195              		.loc 1 490 0
 1196 0002 144B     		ldr	r3, .L93
 1197              		.loc 1 489 0
 1198 0004 0446     		mov	r4, r0
 1199              		.loc 1 490 0
 1200 0006 9D69     		ldr	r5, [r3, #24]
 1201              	.LVL152:
 1202              		.loc 1 489 0
 1203 0008 0F46     		mov	r7, r1
 1204              	.LBB32:
 1205              		.loc 1 493 0
 1206 000a 2023     		movs	r3, #32
 1207              	.LVL153:
 1208              	@ 493 "../../../os/kernel/src/chevents.c" 1
 1209 000c 83F31188 		msr     BASEPRI, r3
 1210              	@ 0 "" 2
 1211              	.LVL154:
 1212              		.thumb
 1213              	.LBE32:
 1214 0010 FFF7FEFF 		bl	dbg_check_lock
 1215              	.LVL155:
 1216              		.loc 1 495 0
 1217 0014 EA6B     		ldr	r2, [r5, #60]
 1218              	.LVL156:
 1219 0016 14EA0206 		ands	r6, r4, r2
 1220              	.LVL157:
 1221 001a 0AD1     		bne	.L88
 1222              		.loc 1 496 0
 1223 001c 9FB1     		cbz	r7, .L92
 1224              		.loc 1 501 0
 1225 001e 0820     		movs	r0, #8
 1226              		.loc 1 500 0
 1227 0020 AC62     		str	r4, [r5, #40]
 1228              		.loc 1 501 0
 1229 0022 3946     		mov	r1, r7
 1230 0024 FFF7FEFF 		bl	chSchGoSleepTimeoutS
 1231              	.LVL158:
 1232 0028 0028     		cmp	r0, #0
 1233 002a 0CDB     		blt	.L92
 1234              		.loc 1 505 0
 1235 002c EA6B     		ldr	r2, [r5, #60]
 1236 002e 04EA0206 		and	r6, r4, r2
 1237              	.LVL159:
 1238              	.L88:
 1239              		.loc 1 507 0
 1240 0032 22EA0602 		bic	r2, r2, r6
 1241 0036 EA63     		str	r2, [r5, #60]
 1242              		.loc 1 509 0
ARM GAS  /tmp/ccevInyS.s 			page 23


 1243 0038 FFF7FEFF 		bl	dbg_check_unlock
 1244              	.LVL160:
 1245              	.LBB33:
 1246 003c 0023     		movs	r3, #0
 1247              	.LVL161:
 1248              	@ 509 "../../../os/kernel/src/chevents.c" 1
 1249 003e 83F31188 		msr     BASEPRI, r3
 1250              	@ 0 "" 2
 1251              	.LVL162:
 1252              		.thumb
 1253              	.LBE33:
 1254              		.loc 1 511 0
 1255 0042 3046     		mov	r0, r6
 1256 0044 F8BD     		pop	{r3, r4, r5, r6, r7, pc}
 1257              	.LVL163:
 1258              	.L92:
 1259              		.loc 1 502 0
 1260 0046 FFF7FEFF 		bl	dbg_check_unlock
 1261              	.LVL164:
 1262              	.LBB34:
 1263 004a 3346     		mov	r3, r6
 1264              	.LVL165:
 1265              	@ 502 "../../../os/kernel/src/chevents.c" 1
 1266 004c 83F31188 		msr     BASEPRI, r3
 1267              	@ 0 "" 2
 1268              	.LVL166:
 1269              		.thumb
 1270              	.LBE34:
 1271              		.loc 1 511 0
 1272 0050 3046     		mov	r0, r6
 1273 0052 F8BD     		pop	{r3, r4, r5, r6, r7, pc}
 1274              	.L94:
 1275              		.align	2
 1276              	.L93:
 1277 0054 00000000 		.word	rlist
 1278              		.cfi_endproc
 1279              	.LFE22:
 1280              		.size	chEvtWaitAnyTimeout, .-chEvtWaitAnyTimeout
 1281 0058 AFF30080 		.section	.text.chEvtWaitAllTimeout,"ax",%progbits
 1281      AFF30080 
 1282              		.align	2
 1283              		.p2align 4,,15
 1284              		.global	chEvtWaitAllTimeout
 1285              		.thumb
 1286              		.thumb_func
 1287              		.type	chEvtWaitAllTimeout, %function
 1288              	chEvtWaitAllTimeout:
 1289              	.LFB23:
 1290              		.loc 1 530 0
 1291              		.cfi_startproc
 1292              		@ args = 0, pretend = 0, frame = 0
 1293              		@ frame_needed = 0, uses_anonymous_args = 0
 1294              	.LVL167:
 1295              		.loc 1 531 0
 1296 0000 184B     		ldr	r3, .L101
 1297              		.loc 1 530 0
 1298 0002 70B5     		push	{r4, r5, r6, lr}
ARM GAS  /tmp/ccevInyS.s 			page 24


 1299              	.LCFI15:
 1300              		.cfi_def_cfa_offset 16
 1301              		.cfi_offset 4, -16
 1302              		.cfi_offset 5, -12
 1303              		.cfi_offset 6, -8
 1304              		.cfi_offset 14, -4
 1305              		.loc 1 531 0
 1306 0004 9D69     		ldr	r5, [r3, #24]
 1307              	.LVL168:
 1308              		.loc 1 530 0
 1309 0006 0446     		mov	r4, r0
 1310 0008 0E46     		mov	r6, r1
 1311              	.LBB35:
 1312              		.loc 1 533 0
 1313 000a 2023     		movs	r3, #32
 1314              	.LVL169:
 1315              	@ 533 "../../../os/kernel/src/chevents.c" 1
 1316 000c 83F31188 		msr     BASEPRI, r3
 1317              	@ 0 "" 2
 1318              	.LVL170:
 1319              		.thumb
 1320              	.LBE35:
 1321 0010 FFF7FEFF 		bl	dbg_check_lock
 1322              	.LVL171:
 1323              		.loc 1 535 0
 1324 0014 EA6B     		ldr	r2, [r5, #60]
 1325 0016 04EA0200 		and	r0, r4, r2
 1326 001a A042     		cmp	r0, r4
 1327 001c 08D0     		beq	.L96
 1328              		.loc 1 536 0
 1329 001e 8EB1     		cbz	r6, .L100
 1330              		.loc 1 541 0
 1331 0020 0920     		movs	r0, #9
 1332              		.loc 1 540 0
 1333 0022 AC62     		str	r4, [r5, #40]
 1334              		.loc 1 541 0
 1335 0024 3146     		mov	r1, r6
 1336 0026 FFF7FEFF 		bl	chSchGoSleepTimeoutS
 1337              	.LVL172:
 1338 002a 0028     		cmp	r0, #0
 1339 002c 12DB     		blt	.L99
 1340 002e EA6B     		ldr	r2, [r5, #60]
 1341              	.L96:
 1342              		.loc 1 546 0
 1343 0030 22EA0402 		bic	r2, r2, r4
 1344 0034 EA63     		str	r2, [r5, #60]
 1345              		.loc 1 548 0
 1346 0036 FFF7FEFF 		bl	dbg_check_unlock
 1347              	.LVL173:
 1348              	.LBB36:
 1349 003a 0023     		movs	r3, #0
 1350              	.LVL174:
 1351              	@ 548 "../../../os/kernel/src/chevents.c" 1
 1352 003c 83F31188 		msr     BASEPRI, r3
 1353              	@ 0 "" 2
 1354              	.LVL175:
 1355              		.thumb
ARM GAS  /tmp/ccevInyS.s 			page 25


 1356              	.L98:
 1357              	.LBE36:
 1358              		.loc 1 550 0
 1359 0040 2046     		mov	r0, r4
 1360 0042 70BD     		pop	{r4, r5, r6, pc}
 1361              	.LVL176:
 1362              	.L100:
 1363              		.loc 1 537 0
 1364 0044 FFF7FEFF 		bl	dbg_check_unlock
 1365              	.LVL177:
 1366              	.LBB37:
 1367 0048 3346     		mov	r3, r6
 1368              	.LVL178:
 1369              	@ 537 "../../../os/kernel/src/chevents.c" 1
 1370 004a 83F31188 		msr     BASEPRI, r3
 1371              	@ 0 "" 2
 1372              	.LVL179:
 1373              		.thumb
 1374              	.LBE37:
 1375              		.loc 1 538 0
 1376 004e 3446     		mov	r4, r6
 1377              	.LVL180:
 1378              		.loc 1 550 0
 1379 0050 2046     		mov	r0, r4
 1380 0052 70BD     		pop	{r4, r5, r6, pc}
 1381              	.LVL181:
 1382              	.L99:
 1383              		.loc 1 542 0
 1384 0054 FFF7FEFF 		bl	dbg_check_unlock
 1385              	.LVL182:
 1386              	.LBB38:
 1387 0058 0023     		movs	r3, #0
 1388              	@ 542 "../../../os/kernel/src/chevents.c" 1
 1389 005a 83F31188 		msr     BASEPRI, r3
 1390              	@ 0 "" 2
 1391              	.LVL183:
 1392              		.thumb
 1393              	.LBE38:
 1394              		.loc 1 543 0
 1395 005e 1C46     		mov	r4, r3
 1396              	.LVL184:
 1397 0060 EEE7     		b	.L98
 1398              	.L102:
 1399 0062 00BF     		.align	2
 1400              	.L101:
 1401 0064 00000000 		.word	rlist
 1402              		.cfi_endproc
 1403              	.LFE23:
 1404              		.size	chEvtWaitAllTimeout, .-chEvtWaitAllTimeout
 1405 0068 AFF30080 		.section	.rodata.str1.4,"aMS",%progbits,1
 1405      AFF30080 
 1406              		.align	2
 1407              	.LC0:
 1408 0000 22636845 		.ascii	"\"chEvtRegisterMask\"()\000"
 1408      76745265 
 1408      67697374 
 1408      65724D61 
ARM GAS  /tmp/ccevInyS.s 			page 26


 1408      736B2228 
 1409 0016 0000     		.space	2
 1410              	.LC1:
 1411 0018 22636845 		.ascii	"\"chEvtUnregister\"()\000"
 1411      7674556E 
 1411      72656769 
 1411      73746572 
 1411      22282900 
 1412              	.LC2:
 1413 002c 22636845 		.ascii	"\"chEvtSignalI\"()\000"
 1413      76745369 
 1413      676E616C 
 1413      49222829 
 1413      00
 1414 003d 000000   		.space	3
 1415              	.LC3:
 1416 0040 22636845 		.ascii	"\"chEvtSignal\"()\000"
 1416      76745369 
 1416      676E616C 
 1416      22282900 
 1417              	.LC4:
 1418 0050 22636845 		.ascii	"\"chEvtBroadcastMaskI\"()\000"
 1418      76744272 
 1418      6F616463 
 1418      6173744D 
 1418      61736B49 
 1419              	.LC5:
 1420 0068 22636845 		.ascii	"\"chEvtDispatch\"()\000"
 1420      76744469 
 1420      73706174 
 1420      63682228 
 1420      2900
 1421 007a 0000     		.space	2
 1422              	.LC6:
 1423 007c 63684576 		.ascii	"chEvtDispatch(), #1\000"
 1423      74446973 
 1423      70617463 
 1423      6828292C 
 1423      20233100 
 1424              		.text
 1425              	.Letext0:
 1426              		.file 2 "/opt/ChibiStudio/tools/gcc-arm-none-eabi-4_7-2013q1/bin/../lib/gcc/arm-none-eabi/4.7.3/..
 1427              		.file 3 "../../../os/ports/GCC/ARMCMx/chtypes.h"
 1428              		.file 4 "../../../os/kernel/include/chlists.h"
 1429              		.file 5 "../../../os/kernel/include/chthreads.h"
 1430              		.file 6 "../../../os/ports/GCC/ARMCMx/chcore_v7m.h"
 1431              		.file 7 "../../../os/kernel/include/chschd.h"
 1432              		.file 8 "../../../os/kernel/include/chmtx.h"
 1433              		.file 9 "../../../os/kernel/include/chevents.h"
 1434              		.file 10 "../../../os/kernel/include/chdebug.h"
 1435              		.section	.debug_info,"",%progbits
 1436              	.Ldebug_info0:
 1437 0000 85100000 		.4byte	0x1085
 1438 0004 0200     		.2byte	0x2
 1439 0006 00000000 		.4byte	.Ldebug_abbrev0
 1440 000a 04       		.byte	0x4
 1441 000b 01       		.uleb128 0x1
ARM GAS  /tmp/ccevInyS.s 			page 27


 1442 000c 15030000 		.4byte	.LASF104
 1443 0010 01       		.byte	0x1
 1444 0011 D3010000 		.4byte	.LASF105
 1445 0015 F3000000 		.4byte	.LASF106
 1446 0019 48000000 		.4byte	.Ldebug_ranges0+0x48
 1447 001d 00000000 		.4byte	0
 1448 0021 00000000 		.4byte	0
 1449 0025 00000000 		.4byte	.Ldebug_line0
 1450 0029 02       		.uleb128 0x2
 1451 002a 04       		.byte	0x4
 1452 002b 05       		.byte	0x5
 1453 002c 696E7400 		.ascii	"int\000"
 1454 0030 03       		.uleb128 0x3
 1455 0031 04       		.byte	0x4
 1456 0032 07       		.byte	0x7
 1457 0033 9D010000 		.4byte	.LASF0
 1458 0037 03       		.uleb128 0x3
 1459 0038 01       		.byte	0x1
 1460 0039 06       		.byte	0x6
 1461 003a 85000000 		.4byte	.LASF1
 1462 003e 04       		.uleb128 0x4
 1463 003f 90040000 		.4byte	.LASF5
 1464 0043 02       		.byte	0x2
 1465 0044 2A       		.byte	0x2a
 1466 0045 49000000 		.4byte	0x49
 1467 0049 03       		.uleb128 0x3
 1468 004a 01       		.byte	0x1
 1469 004b 08       		.byte	0x8
 1470 004c 6C030000 		.4byte	.LASF2
 1471 0050 03       		.uleb128 0x3
 1472 0051 02       		.byte	0x2
 1473 0052 05       		.byte	0x5
 1474 0053 A6030000 		.4byte	.LASF3
 1475 0057 03       		.uleb128 0x3
 1476 0058 02       		.byte	0x2
 1477 0059 07       		.byte	0x7
 1478 005a FD010000 		.4byte	.LASF4
 1479 005e 04       		.uleb128 0x4
 1480 005f 64030000 		.4byte	.LASF6
 1481 0063 02       		.byte	0x2
 1482 0064 4F       		.byte	0x4f
 1483 0065 69000000 		.4byte	0x69
 1484 0069 03       		.uleb128 0x3
 1485 006a 04       		.byte	0x4
 1486 006b 05       		.byte	0x5
 1487 006c BF000000 		.4byte	.LASF7
 1488 0070 04       		.uleb128 0x4
 1489 0071 16040000 		.4byte	.LASF8
 1490 0075 02       		.byte	0x2
 1491 0076 50       		.byte	0x50
 1492 0077 7B000000 		.4byte	0x7b
 1493 007b 03       		.uleb128 0x3
 1494 007c 04       		.byte	0x4
 1495 007d 07       		.byte	0x7
 1496 007e AA010000 		.4byte	.LASF9
 1497 0082 03       		.uleb128 0x3
 1498 0083 08       		.byte	0x8
ARM GAS  /tmp/ccevInyS.s 			page 28


 1499 0084 05       		.byte	0x5
 1500 0085 77000000 		.4byte	.LASF10
 1501 0089 04       		.uleb128 0x4
 1502 008a 18000000 		.4byte	.LASF11
 1503 008e 02       		.byte	0x2
 1504 008f 78       		.byte	0x78
 1505 0090 94000000 		.4byte	0x94
 1506 0094 03       		.uleb128 0x3
 1507 0095 08       		.byte	0x8
 1508 0096 07       		.byte	0x7
 1509 0097 2D000000 		.4byte	.LASF12
 1510 009b 03       		.uleb128 0x3
 1511 009c 01       		.byte	0x1
 1512 009d 02       		.byte	0x2
 1513 009e 5E030000 		.4byte	.LASF13
 1514 00a2 04       		.uleb128 0x4
 1515 00a3 55020000 		.4byte	.LASF14
 1516 00a7 03       		.byte	0x3
 1517 00a8 2C       		.byte	0x2c
 1518 00a9 3E000000 		.4byte	0x3e
 1519 00ad 04       		.uleb128 0x4
 1520 00ae C8000000 		.4byte	.LASF15
 1521 00b2 03       		.byte	0x3
 1522 00b3 2D       		.byte	0x2d
 1523 00b4 3E000000 		.4byte	0x3e
 1524 00b8 04       		.uleb128 0x4
 1525 00b9 FE020000 		.4byte	.LASF16
 1526 00bd 03       		.byte	0x3
 1527 00be 2E       		.byte	0x2e
 1528 00bf 3E000000 		.4byte	0x3e
 1529 00c3 04       		.uleb128 0x4
 1530 00c4 B5000000 		.4byte	.LASF17
 1531 00c8 03       		.byte	0x3
 1532 00c9 2F       		.byte	0x2f
 1533 00ca 3E000000 		.4byte	0x3e
 1534 00ce 04       		.uleb128 0x4
 1535 00cf 0D030000 		.4byte	.LASF18
 1536 00d3 03       		.byte	0x3
 1537 00d4 30       		.byte	0x30
 1538 00d5 70000000 		.4byte	0x70
 1539 00d9 04       		.uleb128 0x4
 1540 00da 22020000 		.4byte	.LASF19
 1541 00de 03       		.byte	0x3
 1542 00df 31       		.byte	0x31
 1543 00e0 5E000000 		.4byte	0x5e
 1544 00e4 04       		.uleb128 0x4
 1545 00e5 70010000 		.4byte	.LASF20
 1546 00e9 03       		.byte	0x3
 1547 00ea 32       		.byte	0x32
 1548 00eb 5E000000 		.4byte	0x5e
 1549 00ef 04       		.uleb128 0x4
 1550 00f0 69020000 		.4byte	.LASF21
 1551 00f4 03       		.byte	0x3
 1552 00f5 33       		.byte	0x33
 1553 00f6 70000000 		.4byte	0x70
 1554 00fa 04       		.uleb128 0x4
 1555 00fb 6D040000 		.4byte	.LASF22
ARM GAS  /tmp/ccevInyS.s 			page 29


 1556 00ff 03       		.byte	0x3
 1557 0100 34       		.byte	0x34
 1558 0101 70000000 		.4byte	0x70
 1559 0105 04       		.uleb128 0x4
 1560 0106 3F040000 		.4byte	.LASF23
 1561 010a 03       		.byte	0x3
 1562 010b 35       		.byte	0x35
 1563 010c 70000000 		.4byte	0x70
 1564 0110 04       		.uleb128 0x4
 1565 0111 F6030000 		.4byte	.LASF24
 1566 0115 04       		.byte	0x4
 1567 0116 2A       		.byte	0x2a
 1568 0117 1B010000 		.4byte	0x11b
 1569 011b 05       		.uleb128 0x5
 1570 011c F6030000 		.4byte	.LASF24
 1571 0120 4C       		.byte	0x4c
 1572 0121 05       		.byte	0x5
 1573 0122 5E       		.byte	0x5e
 1574 0123 4E020000 		.4byte	0x24e
 1575 0127 06       		.uleb128 0x6
 1576 0128 E7030000 		.4byte	.LASF25
 1577 012c 05       		.byte	0x5
 1578 012d 5F       		.byte	0x5f
 1579 012e 73020000 		.4byte	0x273
 1580 0132 02       		.byte	0x2
 1581 0133 23       		.byte	0x23
 1582 0134 00       		.uleb128 0
 1583 0135 06       		.uleb128 0x6
 1584 0136 06030000 		.4byte	.LASF26
 1585 013a 05       		.byte	0x5
 1586 013b 61       		.byte	0x61
 1587 013c 73020000 		.4byte	0x273
 1588 0140 02       		.byte	0x2
 1589 0141 23       		.byte	0x23
 1590 0142 04       		.uleb128 0x4
 1591 0143 06       		.uleb128 0x6
 1592 0144 70000000 		.4byte	.LASF27
 1593 0148 05       		.byte	0x5
 1594 0149 63       		.byte	0x63
 1595 014a CE000000 		.4byte	0xce
 1596 014e 02       		.byte	0x2
 1597 014f 23       		.byte	0x23
 1598 0150 08       		.uleb128 0x8
 1599 0151 06       		.uleb128 0x6
 1600 0152 14050000 		.4byte	.LASF28
 1601 0156 05       		.byte	0x5
 1602 0157 64       		.byte	0x64
 1603 0158 4C030000 		.4byte	0x34c
 1604 015c 02       		.byte	0x2
 1605 015d 23       		.byte	0x23
 1606 015e 0C       		.uleb128 0xc
 1607 015f 06       		.uleb128 0x6
 1608 0160 2D010000 		.4byte	.LASF29
 1609 0164 05       		.byte	0x5
 1610 0165 66       		.byte	0x66
 1611 0166 73020000 		.4byte	0x273
 1612 016a 02       		.byte	0x2
ARM GAS  /tmp/ccevInyS.s 			page 30


 1613 016b 23       		.byte	0x23
 1614 016c 10       		.uleb128 0x10
 1615 016d 06       		.uleb128 0x6
 1616 016e AE020000 		.4byte	.LASF30
 1617 0172 05       		.byte	0x5
 1618 0173 67       		.byte	0x67
 1619 0174 73020000 		.4byte	0x273
 1620 0178 02       		.byte	0x2
 1621 0179 23       		.byte	0x23
 1622 017a 14       		.uleb128 0x14
 1623 017b 06       		.uleb128 0x6
 1624 017c C7040000 		.4byte	.LASF31
 1625 0180 05       		.byte	0x5
 1626 0181 6E       		.byte	0x6e
 1627 0182 F9040000 		.4byte	0x4f9
 1628 0186 02       		.byte	0x2
 1629 0187 23       		.byte	0x23
 1630 0188 18       		.uleb128 0x18
 1631 0189 06       		.uleb128 0x6
 1632 018a 92010000 		.4byte	.LASF32
 1633 018e 05       		.byte	0x5
 1634 018f 74       		.byte	0x74
 1635 0190 0B050000 		.4byte	0x50b
 1636 0194 02       		.byte	0x2
 1637 0195 23       		.byte	0x23
 1638 0196 1C       		.uleb128 0x1c
 1639 0197 06       		.uleb128 0x6
 1640 0198 B0030000 		.4byte	.LASF33
 1641 019c 05       		.byte	0x5
 1642 019d 79       		.byte	0x79
 1643 019e AD000000 		.4byte	0xad
 1644 01a2 02       		.byte	0x2
 1645 01a3 23       		.byte	0x23
 1646 01a4 20       		.uleb128 0x20
 1647 01a5 06       		.uleb128 0x6
 1648 01a6 EE030000 		.4byte	.LASF34
 1649 01aa 05       		.byte	0x5
 1650 01ab 7D       		.byte	0x7d
 1651 01ac A2000000 		.4byte	0xa2
 1652 01b0 02       		.byte	0x2
 1653 01b1 23       		.byte	0x23
 1654 01b2 21       		.uleb128 0x21
 1655 01b3 06       		.uleb128 0x6
 1656 01b4 79040000 		.4byte	.LASF35
 1657 01b8 05       		.byte	0x5
 1658 01b9 82       		.byte	0x82
 1659 01ba B8000000 		.4byte	0xb8
 1660 01be 02       		.byte	0x2
 1661 01bf 23       		.byte	0x23
 1662 01c0 22       		.uleb128 0x22
 1663 01c1 06       		.uleb128 0x6
 1664 01c2 B8030000 		.4byte	.LASF36
 1665 01c6 05       		.byte	0x5
 1666 01c7 88       		.byte	0x88
 1667 01c8 C3000000 		.4byte	0xc3
 1668 01cc 02       		.byte	0x2
 1669 01cd 23       		.byte	0x23
ARM GAS  /tmp/ccevInyS.s 			page 31


 1670 01ce 23       		.uleb128 0x23
 1671 01cf 06       		.uleb128 0x6
 1672 01d0 54040000 		.4byte	.LASF37
 1673 01d4 05       		.byte	0x5
 1674 01d5 8F       		.byte	0x8f
 1675 01d6 76030000 		.4byte	0x376
 1676 01da 02       		.byte	0x2
 1677 01db 23       		.byte	0x23
 1678 01dc 24       		.uleb128 0x24
 1679 01dd 07       		.uleb128 0x7
 1680 01de 705F7500 		.ascii	"p_u\000"
 1681 01e2 05       		.byte	0x5
 1682 01e3 B4       		.byte	0xb4
 1683 01e4 C4040000 		.4byte	0x4c4
 1684 01e8 02       		.byte	0x2
 1685 01e9 23       		.byte	0x23
 1686 01ea 28       		.uleb128 0x28
 1687 01eb 06       		.uleb128 0x6
 1688 01ec 1A050000 		.4byte	.LASF38
 1689 01f0 05       		.byte	0x5
 1690 01f1 B9       		.byte	0xb9
 1691 01f2 9B020000 		.4byte	0x29b
 1692 01f6 02       		.byte	0x2
 1693 01f7 23       		.byte	0x23
 1694 01f8 2C       		.uleb128 0x2c
 1695 01f9 06       		.uleb128 0x6
 1696 01fa 62040000 		.4byte	.LASF39
 1697 01fe 05       		.byte	0x5
 1698 01ff BF       		.byte	0xbf
 1699 0200 79020000 		.4byte	0x279
 1700 0204 02       		.byte	0x2
 1701 0205 23       		.byte	0x23
 1702 0206 30       		.uleb128 0x30
 1703 0207 06       		.uleb128 0x6
 1704 0208 00000000 		.4byte	.LASF40
 1705 020c 05       		.byte	0x5
 1706 020d C3       		.byte	0xc3
 1707 020e D9000000 		.4byte	0xd9
 1708 0212 02       		.byte	0x2
 1709 0213 23       		.byte	0x23
 1710 0214 38       		.uleb128 0x38
 1711 0215 06       		.uleb128 0x6
 1712 0216 0B040000 		.4byte	.LASF41
 1713 021a 05       		.byte	0x5
 1714 021b C9       		.byte	0xc9
 1715 021c EF000000 		.4byte	0xef
 1716 0220 02       		.byte	0x2
 1717 0221 23       		.byte	0x23
 1718 0222 3C       		.uleb128 0x3c
 1719 0223 06       		.uleb128 0x6
 1720 0224 9C030000 		.4byte	.LASF42
 1721 0228 05       		.byte	0x5
 1722 0229 D0       		.byte	0xd0
 1723 022a 11050000 		.4byte	0x511
 1724 022e 02       		.byte	0x2
 1725 022f 23       		.byte	0x23
 1726 0230 40       		.uleb128 0x40
ARM GAS  /tmp/ccevInyS.s 			page 32


 1727 0231 06       		.uleb128 0x6
 1728 0232 49040000 		.4byte	.LASF43
 1729 0236 05       		.byte	0x5
 1730 0237 D4       		.byte	0xd4
 1731 0238 CE000000 		.4byte	0xce
 1732 023c 02       		.byte	0x2
 1733 023d 23       		.byte	0x23
 1734 023e 44       		.uleb128 0x44
 1735 023f 06       		.uleb128 0x6
 1736 0240 A5000000 		.4byte	.LASF44
 1737 0244 05       		.byte	0x5
 1738 0245 DA       		.byte	0xda
 1739 0246 B1020000 		.4byte	0x2b1
 1740 024a 02       		.byte	0x2
 1741 024b 23       		.byte	0x23
 1742 024c 48       		.uleb128 0x48
 1743 024d 00       		.byte	0
 1744 024e 08       		.uleb128 0x8
 1745 024f 08       		.byte	0x8
 1746 0250 04       		.byte	0x4
 1747 0251 61       		.byte	0x61
 1748 0252 73020000 		.4byte	0x273
 1749 0256 06       		.uleb128 0x6
 1750 0257 E7030000 		.4byte	.LASF25
 1751 025b 04       		.byte	0x4
 1752 025c 62       		.byte	0x62
 1753 025d 73020000 		.4byte	0x273
 1754 0261 02       		.byte	0x2
 1755 0262 23       		.byte	0x23
 1756 0263 00       		.uleb128 0
 1757 0264 06       		.uleb128 0x6
 1758 0265 06030000 		.4byte	.LASF26
 1759 0269 04       		.byte	0x4
 1760 026a 64       		.byte	0x64
 1761 026b 73020000 		.4byte	0x273
 1762 026f 02       		.byte	0x2
 1763 0270 23       		.byte	0x23
 1764 0271 04       		.uleb128 0x4
 1765 0272 00       		.byte	0
 1766 0273 09       		.uleb128 0x9
 1767 0274 04       		.byte	0x4
 1768 0275 10010000 		.4byte	0x110
 1769 0279 04       		.uleb128 0x4
 1770 027a BC020000 		.4byte	.LASF45
 1771 027e 04       		.byte	0x4
 1772 027f 66       		.byte	0x66
 1773 0280 4E020000 		.4byte	0x24e
 1774 0284 08       		.uleb128 0x8
 1775 0285 04       		.byte	0x4
 1776 0286 04       		.byte	0x4
 1777 0287 6B       		.byte	0x6b
 1778 0288 9B020000 		.4byte	0x29b
 1779 028c 06       		.uleb128 0x6
 1780 028d E7030000 		.4byte	.LASF25
 1781 0291 04       		.byte	0x4
 1782 0292 6D       		.byte	0x6d
 1783 0293 73020000 		.4byte	0x273
ARM GAS  /tmp/ccevInyS.s 			page 33


 1784 0297 02       		.byte	0x2
 1785 0298 23       		.byte	0x23
 1786 0299 00       		.uleb128 0
 1787 029a 00       		.byte	0
 1788 029b 04       		.uleb128 0x4
 1789 029c 5D020000 		.4byte	.LASF46
 1790 02a0 04       		.byte	0x4
 1791 02a1 70       		.byte	0x70
 1792 02a2 84020000 		.4byte	0x284
 1793 02a6 04       		.uleb128 0x4
 1794 02a7 53010000 		.4byte	.LASF47
 1795 02ab 06       		.byte	0x6
 1796 02ac E5       		.byte	0xe5
 1797 02ad B1020000 		.4byte	0x2b1
 1798 02b1 0A       		.uleb128 0xa
 1799 02b2 04       		.byte	0x4
 1800 02b3 04       		.uleb128 0x4
 1801 02b4 7B020000 		.4byte	.LASF48
 1802 02b8 06       		.byte	0x6
 1803 02b9 EB       		.byte	0xeb
 1804 02ba 89000000 		.4byte	0x89
 1805 02be 0B       		.uleb128 0xb
 1806 02bf 5B040000 		.4byte	.LASF49
 1807 02c3 24       		.byte	0x24
 1808 02c4 06       		.byte	0x6
 1809 02c5 0C01     		.2byte	0x10c
 1810 02c7 4C030000 		.4byte	0x34c
 1811 02cb 0C       		.uleb128 0xc
 1812 02cc 723400   		.ascii	"r4\000"
 1813 02cf 06       		.byte	0x6
 1814 02d0 1F01     		.2byte	0x11f
 1815 02d2 A6020000 		.4byte	0x2a6
 1816 02d6 02       		.byte	0x2
 1817 02d7 23       		.byte	0x23
 1818 02d8 00       		.uleb128 0
 1819 02d9 0C       		.uleb128 0xc
 1820 02da 723500   		.ascii	"r5\000"
 1821 02dd 06       		.byte	0x6
 1822 02de 2001     		.2byte	0x120
 1823 02e0 A6020000 		.4byte	0x2a6
 1824 02e4 02       		.byte	0x2
 1825 02e5 23       		.byte	0x23
 1826 02e6 04       		.uleb128 0x4
 1827 02e7 0C       		.uleb128 0xc
 1828 02e8 723600   		.ascii	"r6\000"
 1829 02eb 06       		.byte	0x6
 1830 02ec 2101     		.2byte	0x121
 1831 02ee A6020000 		.4byte	0x2a6
 1832 02f2 02       		.byte	0x2
 1833 02f3 23       		.byte	0x23
 1834 02f4 08       		.uleb128 0x8
 1835 02f5 0C       		.uleb128 0xc
 1836 02f6 723700   		.ascii	"r7\000"
 1837 02f9 06       		.byte	0x6
 1838 02fa 2201     		.2byte	0x122
 1839 02fc A6020000 		.4byte	0x2a6
 1840 0300 02       		.byte	0x2
ARM GAS  /tmp/ccevInyS.s 			page 34


 1841 0301 23       		.byte	0x23
 1842 0302 0C       		.uleb128 0xc
 1843 0303 0C       		.uleb128 0xc
 1844 0304 723800   		.ascii	"r8\000"
 1845 0307 06       		.byte	0x6
 1846 0308 2301     		.2byte	0x123
 1847 030a A6020000 		.4byte	0x2a6
 1848 030e 02       		.byte	0x2
 1849 030f 23       		.byte	0x23
 1850 0310 10       		.uleb128 0x10
 1851 0311 0C       		.uleb128 0xc
 1852 0312 723900   		.ascii	"r9\000"
 1853 0315 06       		.byte	0x6
 1854 0316 2401     		.2byte	0x124
 1855 0318 A6020000 		.4byte	0x2a6
 1856 031c 02       		.byte	0x2
 1857 031d 23       		.byte	0x23
 1858 031e 14       		.uleb128 0x14
 1859 031f 0C       		.uleb128 0xc
 1860 0320 72313000 		.ascii	"r10\000"
 1861 0324 06       		.byte	0x6
 1862 0325 2501     		.2byte	0x125
 1863 0327 A6020000 		.4byte	0x2a6
 1864 032b 02       		.byte	0x2
 1865 032c 23       		.byte	0x23
 1866 032d 18       		.uleb128 0x18
 1867 032e 0C       		.uleb128 0xc
 1868 032f 72313100 		.ascii	"r11\000"
 1869 0333 06       		.byte	0x6
 1870 0334 2601     		.2byte	0x126
 1871 0336 A6020000 		.4byte	0x2a6
 1872 033a 02       		.byte	0x2
 1873 033b 23       		.byte	0x23
 1874 033c 1C       		.uleb128 0x1c
 1875 033d 0C       		.uleb128 0xc
 1876 033e 6C7200   		.ascii	"lr\000"
 1877 0341 06       		.byte	0x6
 1878 0342 2701     		.2byte	0x127
 1879 0344 A6020000 		.4byte	0x2a6
 1880 0348 02       		.byte	0x2
 1881 0349 23       		.byte	0x23
 1882 034a 20       		.uleb128 0x20
 1883 034b 00       		.byte	0
 1884 034c 0B       		.uleb128 0xb
 1885 034d F5010000 		.4byte	.LASF50
 1886 0351 04       		.byte	0x4
 1887 0352 06       		.byte	0x6
 1888 0353 3101     		.2byte	0x131
 1889 0355 69030000 		.4byte	0x369
 1890 0359 0C       		.uleb128 0xc
 1891 035a 72313300 		.ascii	"r13\000"
 1892 035e 06       		.byte	0x6
 1893 035f 3201     		.2byte	0x132
 1894 0361 69030000 		.4byte	0x369
 1895 0365 02       		.byte	0x2
 1896 0366 23       		.byte	0x23
 1897 0367 00       		.uleb128 0
ARM GAS  /tmp/ccevInyS.s 			page 35


 1898 0368 00       		.byte	0
 1899 0369 09       		.uleb128 0x9
 1900 036a 04       		.byte	0x4
 1901 036b BE020000 		.4byte	0x2be
 1902 036f 03       		.uleb128 0x3
 1903 0370 04       		.byte	0x4
 1904 0371 07       		.byte	0x7
 1905 0372 97020000 		.4byte	.LASF51
 1906 0376 0D       		.uleb128 0xd
 1907 0377 05010000 		.4byte	0x105
 1908 037b 08       		.uleb128 0x8
 1909 037c 1C       		.byte	0x1c
 1910 037d 07       		.byte	0x7
 1911 037e 5E       		.byte	0x5e
 1912 037f D8030000 		.4byte	0x3d8
 1913 0383 06       		.uleb128 0x6
 1914 0384 1F040000 		.4byte	.LASF52
 1915 0388 07       		.byte	0x7
 1916 0389 5F       		.byte	0x5f
 1917 038a 79020000 		.4byte	0x279
 1918 038e 02       		.byte	0x2
 1919 038f 23       		.byte	0x23
 1920 0390 00       		.uleb128 0
 1921 0391 06       		.uleb128 0x6
 1922 0392 C2030000 		.4byte	.LASF53
 1923 0396 07       		.byte	0x7
 1924 0397 60       		.byte	0x60
 1925 0398 CE000000 		.4byte	0xce
 1926 039c 02       		.byte	0x2
 1927 039d 23       		.byte	0x23
 1928 039e 08       		.uleb128 0x8
 1929 039f 06       		.uleb128 0x6
 1930 03a0 B6020000 		.4byte	.LASF54
 1931 03a4 07       		.byte	0x7
 1932 03a5 62       		.byte	0x62
 1933 03a6 4C030000 		.4byte	0x34c
 1934 03aa 02       		.byte	0x2
 1935 03ab 23       		.byte	0x23
 1936 03ac 0C       		.uleb128 0xc
 1937 03ad 06       		.uleb128 0x6
 1938 03ae 46010000 		.4byte	.LASF55
 1939 03b2 07       		.byte	0x7
 1940 03b3 65       		.byte	0x65
 1941 03b4 73020000 		.4byte	0x273
 1942 03b8 02       		.byte	0x2
 1943 03b9 23       		.byte	0x23
 1944 03ba 10       		.uleb128 0x10
 1945 03bb 06       		.uleb128 0x6
 1946 03bc E5020000 		.4byte	.LASF56
 1947 03c0 07       		.byte	0x7
 1948 03c1 66       		.byte	0x66
 1949 03c2 73020000 		.4byte	0x273
 1950 03c6 02       		.byte	0x2
 1951 03c7 23       		.byte	0x23
 1952 03c8 14       		.uleb128 0x14
 1953 03c9 06       		.uleb128 0x6
 1954 03ca DB020000 		.4byte	.LASF57
ARM GAS  /tmp/ccevInyS.s 			page 36


 1955 03ce 07       		.byte	0x7
 1956 03cf 69       		.byte	0x69
 1957 03d0 73020000 		.4byte	0x273
 1958 03d4 02       		.byte	0x2
 1959 03d5 23       		.byte	0x23
 1960 03d6 18       		.uleb128 0x18
 1961 03d7 00       		.byte	0
 1962 03d8 04       		.uleb128 0x4
 1963 03d9 80040000 		.4byte	.LASF58
 1964 03dd 07       		.byte	0x7
 1965 03de 6B       		.byte	0x6b
 1966 03df 7B030000 		.4byte	0x37b
 1967 03e3 05       		.uleb128 0x5
 1968 03e4 75020000 		.4byte	.LASF59
 1969 03e8 10       		.byte	0x10
 1970 03e9 08       		.byte	0x8
 1971 03ea 2C       		.byte	0x2c
 1972 03eb 1A040000 		.4byte	0x41a
 1973 03ef 06       		.uleb128 0x6
 1974 03f0 AD000000 		.4byte	.LASF60
 1975 03f4 08       		.byte	0x8
 1976 03f5 2D       		.byte	0x2d
 1977 03f6 79020000 		.4byte	0x279
 1978 03fa 02       		.byte	0x2
 1979 03fb 23       		.byte	0x23
 1980 03fc 00       		.uleb128 0
 1981 03fd 06       		.uleb128 0x6
 1982 03fe FD040000 		.4byte	.LASF61
 1983 0402 08       		.byte	0x8
 1984 0403 2F       		.byte	0x2f
 1985 0404 73020000 		.4byte	0x273
 1986 0408 02       		.byte	0x2
 1987 0409 23       		.byte	0x23
 1988 040a 08       		.uleb128 0x8
 1989 040b 06       		.uleb128 0x6
 1990 040c 38040000 		.4byte	.LASF62
 1991 0410 08       		.byte	0x8
 1992 0411 31       		.byte	0x31
 1993 0412 1A040000 		.4byte	0x41a
 1994 0416 02       		.byte	0x2
 1995 0417 23       		.byte	0x23
 1996 0418 0C       		.uleb128 0xc
 1997 0419 00       		.byte	0
 1998 041a 09       		.uleb128 0x9
 1999 041b 04       		.byte	0x4
 2000 041c E3030000 		.4byte	0x3e3
 2001 0420 04       		.uleb128 0x4
 2002 0421 75020000 		.4byte	.LASF59
 2003 0425 08       		.byte	0x8
 2004 0426 33       		.byte	0x33
 2005 0427 E3030000 		.4byte	0x3e3
 2006 042b 04       		.uleb128 0x4
 2007 042c 9E040000 		.4byte	.LASF63
 2008 0430 09       		.byte	0x9
 2009 0431 2C       		.byte	0x2c
 2010 0432 36040000 		.4byte	0x436
 2011 0436 05       		.uleb128 0x5
ARM GAS  /tmp/ccevInyS.s 			page 37


 2012 0437 9E040000 		.4byte	.LASF63
 2013 043b 10       		.byte	0x10
 2014 043c 09       		.byte	0x9
 2015 043d 31       		.byte	0x31
 2016 043e 7B040000 		.4byte	0x47b
 2017 0442 06       		.uleb128 0x6
 2018 0443 3D020000 		.4byte	.LASF64
 2019 0447 09       		.byte	0x9
 2020 0448 32       		.byte	0x32
 2021 0449 7B040000 		.4byte	0x47b
 2022 044d 02       		.byte	0x2
 2023 044e 23       		.byte	0x23
 2024 044f 00       		.uleb128 0
 2025 0450 06       		.uleb128 0x6
 2026 0451 87030000 		.4byte	.LASF65
 2027 0455 09       		.byte	0x9
 2028 0456 35       		.byte	0x35
 2029 0457 73020000 		.4byte	0x273
 2030 045b 02       		.byte	0x2
 2031 045c 23       		.byte	0x23
 2032 045d 04       		.uleb128 0x4
 2033 045e 06       		.uleb128 0x6
 2034 045f ED020000 		.4byte	.LASF66
 2035 0463 09       		.byte	0x9
 2036 0464 37       		.byte	0x37
 2037 0465 EF000000 		.4byte	0xef
 2038 0469 02       		.byte	0x2
 2039 046a 23       		.byte	0x23
 2040 046b 08       		.uleb128 0x8
 2041 046c 06       		.uleb128 0x6
 2042 046d 93030000 		.4byte	.LASF67
 2043 0471 09       		.byte	0x9
 2044 0472 3A       		.byte	0x3a
 2045 0473 FA000000 		.4byte	0xfa
 2046 0477 02       		.byte	0x2
 2047 0478 23       		.byte	0x23
 2048 0479 0C       		.uleb128 0xc
 2049 047a 00       		.byte	0
 2050 047b 09       		.uleb128 0x9
 2051 047c 04       		.byte	0x4
 2052 047d 2B040000 		.4byte	0x42b
 2053 0481 05       		.uleb128 0x5
 2054 0482 7A010000 		.4byte	.LASF68
 2055 0486 04       		.byte	0x4
 2056 0487 09       		.byte	0x9
 2057 0488 41       		.byte	0x41
 2058 0489 9C040000 		.4byte	0x49c
 2059 048d 06       		.uleb128 0x6
 2060 048e CE040000 		.4byte	.LASF69
 2061 0492 09       		.byte	0x9
 2062 0493 42       		.byte	0x42
 2063 0494 7B040000 		.4byte	0x47b
 2064 0498 02       		.byte	0x2
 2065 0499 23       		.byte	0x23
 2066 049a 00       		.uleb128 0
 2067 049b 00       		.byte	0
 2068 049c 04       		.uleb128 0x4
ARM GAS  /tmp/ccevInyS.s 			page 38


 2069 049d 7A010000 		.4byte	.LASF68
 2070 04a1 09       		.byte	0x9
 2071 04a2 45       		.byte	0x45
 2072 04a3 81040000 		.4byte	0x481
 2073 04a7 04       		.uleb128 0x4
 2074 04a8 86010000 		.4byte	.LASF70
 2075 04ac 09       		.byte	0x9
 2076 04ad 4A       		.byte	0x4a
 2077 04ae B2040000 		.4byte	0x4b2
 2078 04b2 09       		.uleb128 0x9
 2079 04b3 04       		.byte	0x4
 2080 04b4 B8040000 		.4byte	0x4b8
 2081 04b8 0E       		.uleb128 0xe
 2082 04b9 01       		.byte	0x1
 2083 04ba C4040000 		.4byte	0x4c4
 2084 04be 0F       		.uleb128 0xf
 2085 04bf E4000000 		.4byte	0xe4
 2086 04c3 00       		.byte	0
 2087 04c4 10       		.uleb128 0x10
 2088 04c5 04       		.byte	0x4
 2089 04c6 05       		.byte	0x5
 2090 04c7 96       		.byte	0x96
 2091 04c8 F9040000 		.4byte	0x4f9
 2092 04cc 11       		.uleb128 0x11
 2093 04cd 11000000 		.4byte	.LASF71
 2094 04d1 05       		.byte	0x5
 2095 04d2 9D       		.byte	0x9d
 2096 04d3 D9000000 		.4byte	0xd9
 2097 04d7 11       		.uleb128 0x11
 2098 04d8 53000000 		.4byte	.LASF72
 2099 04dc 05       		.byte	0x5
 2100 04dd A4       		.byte	0xa4
 2101 04de D9000000 		.4byte	0xd9
 2102 04e2 11       		.uleb128 0x11
 2103 04e3 C0040000 		.4byte	.LASF73
 2104 04e7 05       		.byte	0x5
 2105 04e8 AB       		.byte	0xab
 2106 04e9 B1020000 		.4byte	0x2b1
 2107 04ed 11       		.uleb128 0x11
 2108 04ee E0030000 		.4byte	.LASF74
 2109 04f2 05       		.byte	0x5
 2110 04f3 B2       		.byte	0xb2
 2111 04f4 EF000000 		.4byte	0xef
 2112 04f8 00       		.byte	0
 2113 04f9 09       		.uleb128 0x9
 2114 04fa 04       		.byte	0x4
 2115 04fb FF040000 		.4byte	0x4ff
 2116 04ff 12       		.uleb128 0x12
 2117 0500 04050000 		.4byte	0x504
 2118 0504 03       		.uleb128 0x3
 2119 0505 01       		.byte	0x1
 2120 0506 08       		.byte	0x8
 2121 0507 33040000 		.4byte	.LASF75
 2122 050b 09       		.uleb128 0x9
 2123 050c 04       		.byte	0x4
 2124 050d B3020000 		.4byte	0x2b3
 2125 0511 09       		.uleb128 0x9
ARM GAS  /tmp/ccevInyS.s 			page 39


 2126 0512 04       		.byte	0x4
 2127 0513 20040000 		.4byte	0x420
 2128 0517 13       		.uleb128 0x13
 2129 0518 01       		.byte	0x1
 2130 0519 24050000 		.4byte	.LASF98
 2131 051d 01       		.byte	0x1
 2132 051e FB       		.byte	0xfb
 2133 051f 01       		.byte	0x1
 2134 0520 01       		.byte	0x1
 2135 0521 3B050000 		.4byte	0x53b
 2136 0525 14       		.uleb128 0x14
 2137 0526 747000   		.ascii	"tp\000"
 2138 0529 01       		.byte	0x1
 2139 052a FB       		.byte	0xfb
 2140 052b 73020000 		.4byte	0x273
 2141 052f 15       		.uleb128 0x15
 2142 0530 4E010000 		.4byte	.LASF76
 2143 0534 01       		.byte	0x1
 2144 0535 FB       		.byte	0xfb
 2145 0536 EF000000 		.4byte	0xef
 2146 053a 00       		.byte	0
 2147 053b 16       		.uleb128 0x16
 2148 053c 01       		.byte	0x1
 2149 053d 10020000 		.4byte	.LASF77
 2150 0541 01       		.byte	0x1
 2151 0542 55       		.byte	0x55
 2152 0543 01       		.byte	0x1
 2153 0544 00000000 		.4byte	.LFB7
 2154 0548 44000000 		.4byte	.LFE7
 2155 054c 00000000 		.4byte	.LLST0
 2156 0550 01       		.byte	0x1
 2157 0551 E2050000 		.4byte	0x5e2
 2158 0555 17       		.uleb128 0x17
 2159 0556 65737000 		.ascii	"esp\000"
 2160 055a 01       		.byte	0x1
 2161 055b 55       		.byte	0x55
 2162 055c E2050000 		.4byte	0x5e2
 2163 0560 20000000 		.4byte	.LLST1
 2164 0564 17       		.uleb128 0x17
 2165 0565 656C7000 		.ascii	"elp\000"
 2166 0569 01       		.byte	0x1
 2167 056a 55       		.byte	0x55
 2168 056b 7B040000 		.4byte	0x47b
 2169 056f 54000000 		.4byte	.LLST2
 2170 0573 18       		.uleb128 0x18
 2171 0574 4E010000 		.4byte	.LASF76
 2172 0578 01       		.byte	0x1
 2173 0579 55       		.byte	0x55
 2174 057a EF000000 		.4byte	0xef
 2175 057e 88000000 		.4byte	.LLST3
 2176 0582 19       		.uleb128 0x19
 2177 0583 0C000000 		.4byte	.LBB2
 2178 0587 12000000 		.4byte	.LBE2
 2179 058b 9F050000 		.4byte	0x59f
 2180 058f 1A       		.uleb128 0x1a
 2181 0590 746D7000 		.ascii	"tmp\000"
 2182 0594 01       		.byte	0x1
ARM GAS  /tmp/ccevInyS.s 			page 40


 2183 0595 59       		.byte	0x59
 2184 0596 70000000 		.4byte	0x70
 2185 059a BC000000 		.4byte	.LLST4
 2186 059e 00       		.byte	0
 2187 059f 19       		.uleb128 0x19
 2188 05a0 2C000000 		.4byte	.LBB3
 2189 05a4 34000000 		.4byte	.LBE3
 2190 05a8 BC050000 		.4byte	0x5bc
 2191 05ac 1A       		.uleb128 0x1a
 2192 05ad 746D7000 		.ascii	"tmp\000"
 2193 05b1 01       		.byte	0x1
 2194 05b2 5F       		.byte	0x5f
 2195 05b3 70000000 		.4byte	0x70
 2196 05b7 CF000000 		.4byte	.LLST5
 2197 05bb 00       		.byte	0
 2198 05bc 1B       		.uleb128 0x1b
 2199 05bd 16000000 		.4byte	.LVL4
 2200 05c1 07100000 		.4byte	0x1007
 2201 05c5 1B       		.uleb128 0x1b
 2202 05c6 2C000000 		.4byte	.LVL5
 2203 05ca 11100000 		.4byte	0x1011
 2204 05ce 1C       		.uleb128 0x1c
 2205 05cf 3A000000 		.4byte	.LVL10
 2206 05d3 1B100000 		.4byte	0x101b
 2207 05d7 1D       		.uleb128 0x1d
 2208 05d8 01       		.byte	0x1
 2209 05d9 50       		.byte	0x50
 2210 05da 05       		.byte	0x5
 2211 05db 03       		.byte	0x3
 2212 05dc 00000000 		.4byte	.LC0
 2213 05e0 00       		.byte	0
 2214 05e1 00       		.byte	0
 2215 05e2 09       		.uleb128 0x9
 2216 05e3 04       		.byte	0x4
 2217 05e4 9C040000 		.4byte	0x49c
 2218 05e8 16       		.uleb128 0x16
 2219 05e9 01       		.byte	0x1
 2220 05ea 45020000 		.4byte	.LASF78
 2221 05ee 01       		.byte	0x1
 2222 05ef 6F       		.byte	0x6f
 2223 05f0 01       		.byte	0x1
 2224 05f1 00000000 		.4byte	.LFB8
 2225 05f5 40000000 		.4byte	.LFE8
 2226 05f9 E2000000 		.4byte	.LLST6
 2227 05fd 01       		.byte	0x1
 2228 05fe 8D060000 		.4byte	0x68d
 2229 0602 17       		.uleb128 0x17
 2230 0603 65737000 		.ascii	"esp\000"
 2231 0607 01       		.byte	0x1
 2232 0608 6F       		.byte	0x6f
 2233 0609 E2050000 		.4byte	0x5e2
 2234 060d 02010000 		.4byte	.LLST7
 2235 0611 17       		.uleb128 0x17
 2236 0612 656C7000 		.ascii	"elp\000"
 2237 0616 01       		.byte	0x1
 2238 0617 6F       		.byte	0x6f
 2239 0618 7B040000 		.4byte	0x47b
ARM GAS  /tmp/ccevInyS.s 			page 41


 2240 061c 36010000 		.4byte	.LLST8
 2241 0620 1A       		.uleb128 0x1a
 2242 0621 7000     		.ascii	"p\000"
 2243 0623 01       		.byte	0x1
 2244 0624 70       		.byte	0x70
 2245 0625 7B040000 		.4byte	0x47b
 2246 0629 6A010000 		.4byte	.LLST9
 2247 062d 19       		.uleb128 0x19
 2248 062e 0A000000 		.4byte	.LBB4
 2249 0632 10000000 		.4byte	.LBE4
 2250 0636 4A060000 		.4byte	0x64a
 2251 063a 1A       		.uleb128 0x1a
 2252 063b 746D7000 		.ascii	"tmp\000"
 2253 063f 01       		.byte	0x1
 2254 0640 75       		.byte	0x75
 2255 0641 70000000 		.4byte	0x70
 2256 0645 88010000 		.4byte	.LLST10
 2257 0649 00       		.byte	0
 2258 064a 19       		.uleb128 0x19
 2259 064b 2C000000 		.4byte	.LBB5
 2260 064f 34000000 		.4byte	.LBE5
 2261 0653 67060000 		.4byte	0x667
 2262 0657 1A       		.uleb128 0x1a
 2263 0658 746D7000 		.ascii	"tmp\000"
 2264 065c 01       		.byte	0x1
 2265 065d 7D       		.byte	0x7d
 2266 065e 70000000 		.4byte	0x70
 2267 0662 9B010000 		.4byte	.LLST11
 2268 0666 00       		.byte	0
 2269 0667 1B       		.uleb128 0x1b
 2270 0668 14000000 		.4byte	.LVL15
 2271 066c 07100000 		.4byte	0x1007
 2272 0670 1B       		.uleb128 0x1b
 2273 0671 2C000000 		.4byte	.LVL18
 2274 0675 11100000 		.4byte	0x1011
 2275 0679 1C       		.uleb128 0x1c
 2276 067a 3A000000 		.4byte	.LVL23
 2277 067e 1B100000 		.4byte	0x101b
 2278 0682 1D       		.uleb128 0x1d
 2279 0683 01       		.byte	0x1
 2280 0684 50       		.byte	0x50
 2281 0685 05       		.byte	0x5
 2282 0686 03       		.byte	0x3
 2283 0687 18000000 		.4byte	.LC1
 2284 068b 00       		.byte	0
 2285 068c 00       		.byte	0
 2286 068d 1E       		.uleb128 0x1e
 2287 068e 01       		.byte	0x1
 2288 068f BC010000 		.4byte	.LASF79
 2289 0693 01       		.byte	0x1
 2290 0694 88       		.byte	0x88
 2291 0695 01       		.byte	0x1
 2292 0696 EF000000 		.4byte	0xef
 2293 069a 00000000 		.4byte	.LFB9
 2294 069e 30000000 		.4byte	.LFE9
 2295 06a2 AE010000 		.4byte	.LLST12
 2296 06a6 01       		.byte	0x1
ARM GAS  /tmp/ccevInyS.s 			page 42


 2297 06a7 0E070000 		.4byte	0x70e
 2298 06ab 18       		.uleb128 0x18
 2299 06ac 4E010000 		.4byte	.LASF76
 2300 06b0 01       		.byte	0x1
 2301 06b1 88       		.byte	0x88
 2302 06b2 EF000000 		.4byte	0xef
 2303 06b6 CE010000 		.4byte	.LLST13
 2304 06ba 1F       		.uleb128 0x1f
 2305 06bb 6D00     		.ascii	"m\000"
 2306 06bd 01       		.byte	0x1
 2307 06be 89       		.byte	0x89
 2308 06bf EF000000 		.4byte	0xef
 2309 06c3 01       		.byte	0x1
 2310 06c4 54       		.byte	0x54
 2311 06c5 20       		.uleb128 0x20
 2312 06c6 00000000 		.4byte	.Ldebug_ranges0+0
 2313 06ca DE060000 		.4byte	0x6de
 2314 06ce 1A       		.uleb128 0x1a
 2315 06cf 746D7000 		.ascii	"tmp\000"
 2316 06d3 01       		.byte	0x1
 2317 06d4 8B       		.byte	0x8b
 2318 06d5 70000000 		.4byte	0x70
 2319 06d9 FA010000 		.4byte	.LLST14
 2320 06dd 00       		.byte	0
 2321 06de 19       		.uleb128 0x19
 2322 06df 26000000 		.4byte	.LBB8
 2323 06e3 2C000000 		.4byte	.LBE8
 2324 06e7 FB060000 		.4byte	0x6fb
 2325 06eb 1A       		.uleb128 0x1a
 2326 06ec 746D7000 		.ascii	"tmp\000"
 2327 06f0 01       		.byte	0x1
 2328 06f1 90       		.byte	0x90
 2329 06f2 70000000 		.4byte	0x70
 2330 06f6 0D020000 		.4byte	.LLST15
 2331 06fa 00       		.byte	0
 2332 06fb 1B       		.uleb128 0x1b
 2333 06fc 0E000000 		.4byte	.LVL27
 2334 0700 07100000 		.4byte	0x1007
 2335 0704 1B       		.uleb128 0x1b
 2336 0705 26000000 		.4byte	.LVL29
 2337 0709 11100000 		.4byte	0x1011
 2338 070d 00       		.byte	0
 2339 070e 1E       		.uleb128 0x1e
 2340 070f 01       		.byte	0x1
 2341 0710 44000000 		.4byte	.LASF80
 2342 0714 01       		.byte	0x1
 2343 0715 9D       		.byte	0x9d
 2344 0716 01       		.byte	0x1
 2345 0717 EF000000 		.4byte	0xef
 2346 071b 00000000 		.4byte	.LFB10
 2347 071f 2C000000 		.4byte	.LFE10
 2348 0723 20020000 		.4byte	.LLST16
 2349 0727 01       		.byte	0x1
 2350 0728 84070000 		.4byte	0x784
 2351 072c 18       		.uleb128 0x18
 2352 072d 4E010000 		.4byte	.LASF76
 2353 0731 01       		.byte	0x1
ARM GAS  /tmp/ccevInyS.s 			page 43


 2354 0732 9D       		.byte	0x9d
 2355 0733 EF000000 		.4byte	0xef
 2356 0737 40020000 		.4byte	.LLST17
 2357 073b 20       		.uleb128 0x20
 2358 073c 18000000 		.4byte	.Ldebug_ranges0+0x18
 2359 0740 54070000 		.4byte	0x754
 2360 0744 1A       		.uleb128 0x1a
 2361 0745 746D7000 		.ascii	"tmp\000"
 2362 0749 01       		.byte	0x1
 2363 074a 9F       		.byte	0x9f
 2364 074b 70000000 		.4byte	0x70
 2365 074f 77020000 		.4byte	.LLST18
 2366 0753 00       		.byte	0
 2367 0754 19       		.uleb128 0x19
 2368 0755 22000000 		.4byte	.LBB11
 2369 0759 28000000 		.4byte	.LBE11
 2370 075d 71070000 		.4byte	0x771
 2371 0761 1A       		.uleb128 0x1a
 2372 0762 746D7000 		.ascii	"tmp\000"
 2373 0766 01       		.byte	0x1
 2374 0767 A3       		.byte	0xa3
 2375 0768 70000000 		.4byte	0x70
 2376 076c 8A020000 		.4byte	.LLST19
 2377 0770 00       		.byte	0
 2378 0771 1B       		.uleb128 0x1b
 2379 0772 0E000000 		.4byte	.LVL35
 2380 0776 07100000 		.4byte	0x1007
 2381 077a 1B       		.uleb128 0x1b
 2382 077b 22000000 		.4byte	.LVL38
 2383 077f 11100000 		.4byte	0x1011
 2384 0783 00       		.byte	0
 2385 0784 1E       		.uleb128 0x1e
 2386 0785 01       		.byte	0x1
 2387 0786 D6040000 		.4byte	.LASF81
 2388 078a 01       		.byte	0x1
 2389 078b D1       		.byte	0xd1
 2390 078c 01       		.byte	0x1
 2391 078d FA000000 		.4byte	0xfa
 2392 0791 00000000 		.4byte	.LFB12
 2393 0795 22000000 		.4byte	.LFE12
 2394 0799 9D020000 		.4byte	.LLST20
 2395 079d 01       		.byte	0x1
 2396 079e 07080000 		.4byte	0x807
 2397 07a2 17       		.uleb128 0x17
 2398 07a3 656C7000 		.ascii	"elp\000"
 2399 07a7 01       		.byte	0x1
 2400 07a8 D1       		.byte	0xd1
 2401 07a9 7B040000 		.4byte	0x47b
 2402 07ad BD020000 		.4byte	.LLST21
 2403 07b1 21       		.uleb128 0x21
 2404 07b2 98040000 		.4byte	.LASF82
 2405 07b6 01       		.byte	0x1
 2406 07b7 D2       		.byte	0xd2
 2407 07b8 FA000000 		.4byte	0xfa
 2408 07bc 01       		.byte	0x1
 2409 07bd 56       		.byte	0x56
 2410 07be 20       		.uleb128 0x20
ARM GAS  /tmp/ccevInyS.s 			page 44


 2411 07bf 30000000 		.4byte	.Ldebug_ranges0+0x30
 2412 07c3 D7070000 		.4byte	0x7d7
 2413 07c7 1A       		.uleb128 0x1a
 2414 07c8 746D7000 		.ascii	"tmp\000"
 2415 07cc 01       		.byte	0x1
 2416 07cd D4       		.byte	0xd4
 2417 07ce 70000000 		.4byte	0x70
 2418 07d2 DB020000 		.4byte	.LLST22
 2419 07d6 00       		.byte	0
 2420 07d7 19       		.uleb128 0x19
 2421 07d8 18000000 		.4byte	.LBB14
 2422 07dc 1E000000 		.4byte	.LBE14
 2423 07e0 F4070000 		.4byte	0x7f4
 2424 07e4 1A       		.uleb128 0x1a
 2425 07e5 746D7000 		.ascii	"tmp\000"
 2426 07e9 01       		.byte	0x1
 2427 07ea D9       		.byte	0xd9
 2428 07eb 70000000 		.4byte	0x70
 2429 07ef EE020000 		.4byte	.LLST23
 2430 07f3 00       		.byte	0
 2431 07f4 1B       		.uleb128 0x1b
 2432 07f5 10000000 		.4byte	.LVL44
 2433 07f9 07100000 		.4byte	0x1007
 2434 07fd 1B       		.uleb128 0x1b
 2435 07fe 18000000 		.4byte	.LVL46
 2436 0802 11100000 		.4byte	0x1011
 2437 0806 00       		.byte	0
 2438 0807 22       		.uleb128 0x22
 2439 0808 17050000 		.4byte	0x517
 2440 080c 00000000 		.4byte	.LFB14
 2441 0810 4C000000 		.4byte	.LFE14
 2442 0814 01030000 		.4byte	.LLST24
 2443 0818 01       		.byte	0x1
 2444 0819 88080000 		.4byte	0x888
 2445 081d 23       		.uleb128 0x23
 2446 081e 25050000 		.4byte	0x525
 2447 0822 21030000 		.4byte	.LLST25
 2448 0826 23       		.uleb128 0x23
 2449 0827 2F050000 		.4byte	0x52f
 2450 082b 3F030000 		.4byte	.LLST26
 2451 082f 24       		.uleb128 0x24
 2452 0830 17050000 		.4byte	0x517
 2453 0834 2A000000 		.4byte	.LBB17
 2454 0838 36000000 		.4byte	.LBE17
 2455 083c 01       		.byte	0x1
 2456 083d FB       		.byte	0xfb
 2457 083e 6B080000 		.4byte	0x86b
 2458 0842 23       		.uleb128 0x23
 2459 0843 25050000 		.4byte	0x525
 2460 0847 5D030000 		.4byte	.LLST27
 2461 084b 25       		.uleb128 0x25
 2462 084c 2A000000 		.4byte	.LBB18
 2463 0850 36000000 		.4byte	.LBE18
 2464 0854 26       		.uleb128 0x26
 2465 0855 2F050000 		.4byte	0x52f
 2466 0859 1C       		.uleb128 0x1c
 2467 085a 30000000 		.4byte	.LVL52
ARM GAS  /tmp/ccevInyS.s 			page 45


 2468 085e 2F100000 		.4byte	0x102f
 2469 0862 1D       		.uleb128 0x1d
 2470 0863 01       		.byte	0x1
 2471 0864 50       		.byte	0x50
 2472 0865 02       		.byte	0x2
 2473 0866 74       		.byte	0x74
 2474 0867 00       		.sleb128 0
 2475 0868 00       		.byte	0
 2476 0869 00       		.byte	0
 2477 086a 00       		.byte	0
 2478 086b 1B       		.uleb128 0x1b
 2479 086c 0A000000 		.4byte	.LVL50
 2480 0870 47100000 		.4byte	0x1047
 2481 0874 1C       		.uleb128 0x1c
 2482 0875 44000000 		.4byte	.LVL54
 2483 0879 1B100000 		.4byte	0x101b
 2484 087d 1D       		.uleb128 0x1d
 2485 087e 01       		.byte	0x1
 2486 087f 50       		.byte	0x50
 2487 0880 05       		.byte	0x5
 2488 0881 03       		.byte	0x3
 2489 0882 2C000000 		.4byte	.LC2
 2490 0886 00       		.byte	0
 2491 0887 00       		.byte	0
 2492 0888 16       		.uleb128 0x16
 2493 0889 01       		.byte	0x1
 2494 088a 21000000 		.4byte	.LASF83
 2495 088e 01       		.byte	0x1
 2496 088f E5       		.byte	0xe5
 2497 0890 01       		.byte	0x1
 2498 0891 00000000 		.4byte	.LFB13
 2499 0895 38000000 		.4byte	.LFE13
 2500 0899 70030000 		.4byte	.LLST28
 2501 089d 01       		.byte	0x1
 2502 089e 42090000 		.4byte	0x942
 2503 08a2 17       		.uleb128 0x17
 2504 08a3 747000   		.ascii	"tp\000"
 2505 08a6 01       		.byte	0x1
 2506 08a7 E5       		.byte	0xe5
 2507 08a8 73020000 		.4byte	0x273
 2508 08ac 90030000 		.4byte	.LLST29
 2509 08b0 18       		.uleb128 0x18
 2510 08b1 4E010000 		.4byte	.LASF76
 2511 08b5 01       		.byte	0x1
 2512 08b6 E5       		.byte	0xe5
 2513 08b7 EF000000 		.4byte	0xef
 2514 08bb C4030000 		.4byte	.LLST30
 2515 08bf 19       		.uleb128 0x19
 2516 08c0 08000000 		.4byte	.LBB19
 2517 08c4 0E000000 		.4byte	.LBE19
 2518 08c8 DC080000 		.4byte	0x8dc
 2519 08cc 1A       		.uleb128 0x1a
 2520 08cd 746D7000 		.ascii	"tmp\000"
 2521 08d1 01       		.byte	0x1
 2522 08d2 E9       		.byte	0xe9
 2523 08d3 70000000 		.4byte	0x70
 2524 08d7 F8030000 		.4byte	.LLST31
ARM GAS  /tmp/ccevInyS.s 			page 46


 2525 08db 00       		.byte	0
 2526 08dc 19       		.uleb128 0x19
 2527 08dd 22000000 		.4byte	.LBB20
 2528 08e1 2A000000 		.4byte	.LBE20
 2529 08e5 F9080000 		.4byte	0x8f9
 2530 08e9 1A       		.uleb128 0x1a
 2531 08ea 746D7000 		.ascii	"tmp\000"
 2532 08ee 01       		.byte	0x1
 2533 08ef EC       		.byte	0xec
 2534 08f0 70000000 		.4byte	0x70
 2535 08f4 0B040000 		.4byte	.LLST32
 2536 08f8 00       		.byte	0
 2537 08f9 1B       		.uleb128 0x1b
 2538 08fa 12000000 		.4byte	.LVL59
 2539 08fe 07100000 		.4byte	0x1007
 2540 0902 27       		.uleb128 0x27
 2541 0903 1A000000 		.4byte	.LVL60
 2542 0907 17050000 		.4byte	0x517
 2543 090b 1C090000 		.4byte	0x91c
 2544 090f 1D       		.uleb128 0x1d
 2545 0910 01       		.byte	0x1
 2546 0911 51       		.byte	0x51
 2547 0912 02       		.byte	0x2
 2548 0913 75       		.byte	0x75
 2549 0914 00       		.sleb128 0
 2550 0915 1D       		.uleb128 0x1d
 2551 0916 01       		.byte	0x1
 2552 0917 50       		.byte	0x50
 2553 0918 02       		.byte	0x2
 2554 0919 74       		.byte	0x74
 2555 091a 00       		.sleb128 0
 2556 091b 00       		.byte	0
 2557 091c 1B       		.uleb128 0x1b
 2558 091d 1E000000 		.4byte	.LVL61
 2559 0921 51100000 		.4byte	0x1051
 2560 0925 1B       		.uleb128 0x1b
 2561 0926 22000000 		.4byte	.LVL62
 2562 092a 11100000 		.4byte	0x1011
 2563 092e 1C       		.uleb128 0x1c
 2564 092f 30000000 		.4byte	.LVL67
 2565 0933 1B100000 		.4byte	0x101b
 2566 0937 1D       		.uleb128 0x1d
 2567 0938 01       		.byte	0x1
 2568 0939 50       		.byte	0x50
 2569 093a 05       		.byte	0x5
 2570 093b 03       		.byte	0x3
 2571 093c 40000000 		.4byte	.LC3
 2572 0940 00       		.byte	0
 2573 0941 00       		.byte	0
 2574 0942 16       		.uleb128 0x16
 2575 0943 01       		.byte	0x1
 2576 0944 28020000 		.4byte	.LASF84
 2577 0948 01       		.byte	0x1
 2578 0949 B8       		.byte	0xb8
 2579 094a 01       		.byte	0x1
 2580 094b 00000000 		.4byte	.LFB11
 2581 094f 34000000 		.4byte	.LFE11
ARM GAS  /tmp/ccevInyS.s 			page 47


 2582 0953 1E040000 		.4byte	.LLST33
 2583 0957 01       		.byte	0x1
 2584 0958 AF090000 		.4byte	0x9af
 2585 095c 17       		.uleb128 0x17
 2586 095d 65737000 		.ascii	"esp\000"
 2587 0961 01       		.byte	0x1
 2588 0962 B8       		.byte	0xb8
 2589 0963 E2050000 		.4byte	0x5e2
 2590 0967 3E040000 		.4byte	.LLST34
 2591 096b 18       		.uleb128 0x18
 2592 096c 98040000 		.4byte	.LASF82
 2593 0970 01       		.byte	0x1
 2594 0971 B8       		.byte	0xb8
 2595 0972 FA000000 		.4byte	0xfa
 2596 0976 5C040000 		.4byte	.LLST35
 2597 097a 1A       		.uleb128 0x1a
 2598 097b 656C7000 		.ascii	"elp\000"
 2599 097f 01       		.byte	0x1
 2600 0980 B9       		.byte	0xb9
 2601 0981 7B040000 		.4byte	0x47b
 2602 0985 7A040000 		.4byte	.LLST36
 2603 0989 1B       		.uleb128 0x1b
 2604 098a 0A000000 		.4byte	.LVL69
 2605 098e 47100000 		.4byte	0x1047
 2606 0992 1B       		.uleb128 0x1b
 2607 0993 1E000000 		.4byte	.LVL71
 2608 0997 17050000 		.4byte	0x517
 2609 099b 1C       		.uleb128 0x1c
 2610 099c 2C000000 		.4byte	.LVL74
 2611 09a0 1B100000 		.4byte	0x101b
 2612 09a4 1D       		.uleb128 0x1d
 2613 09a5 01       		.byte	0x1
 2614 09a6 50       		.byte	0x50
 2615 09a7 05       		.byte	0x5
 2616 09a8 03       		.byte	0x3
 2617 09a9 50000000 		.4byte	.LC4
 2618 09ad 00       		.byte	0
 2619 09ae 00       		.byte	0
 2620 09af 28       		.uleb128 0x28
 2621 09b0 01       		.byte	0x1
 2622 09b1 5C010000 		.4byte	.LASF85
 2623 09b5 01       		.byte	0x1
 2624 09b6 1601     		.2byte	0x116
 2625 09b8 01       		.byte	0x1
 2626 09b9 00000000 		.4byte	.LFB15
 2627 09bd 28000000 		.4byte	.LFE15
 2628 09c1 8D040000 		.4byte	.LLST37
 2629 09c5 01       		.byte	0x1
 2630 09c6 5C0A0000 		.4byte	0xa5c
 2631 09ca 29       		.uleb128 0x29
 2632 09cb 65737000 		.ascii	"esp\000"
 2633 09cf 01       		.byte	0x1
 2634 09d0 1601     		.2byte	0x116
 2635 09d2 E2050000 		.4byte	0x5e2
 2636 09d6 AD040000 		.4byte	.LLST38
 2637 09da 2A       		.uleb128 0x2a
 2638 09db 98040000 		.4byte	.LASF82
ARM GAS  /tmp/ccevInyS.s 			page 48


 2639 09df 01       		.byte	0x1
 2640 09e0 1601     		.2byte	0x116
 2641 09e2 FA000000 		.4byte	0xfa
 2642 09e6 CB040000 		.4byte	.LLST39
 2643 09ea 19       		.uleb128 0x19
 2644 09eb 06000000 		.4byte	.LBB21
 2645 09ef 0C000000 		.4byte	.LBE21
 2646 09f3 080A0000 		.4byte	0xa08
 2647 09f7 2B       		.uleb128 0x2b
 2648 09f8 746D7000 		.ascii	"tmp\000"
 2649 09fc 01       		.byte	0x1
 2650 09fd 1801     		.2byte	0x118
 2651 09ff 70000000 		.4byte	0x70
 2652 0a03 E9040000 		.4byte	.LLST40
 2653 0a07 00       		.byte	0
 2654 0a08 19       		.uleb128 0x19
 2655 0a09 20000000 		.4byte	.LBB22
 2656 0a0d 28000000 		.4byte	.LBE22
 2657 0a11 260A0000 		.4byte	0xa26
 2658 0a15 2B       		.uleb128 0x2b
 2659 0a16 746D7000 		.ascii	"tmp\000"
 2660 0a1a 01       		.byte	0x1
 2661 0a1b 1B01     		.2byte	0x11b
 2662 0a1d 70000000 		.4byte	0x70
 2663 0a21 FC040000 		.4byte	.LLST41
 2664 0a25 00       		.byte	0
 2665 0a26 1B       		.uleb128 0x1b
 2666 0a27 10000000 		.4byte	.LVL78
 2667 0a2b 07100000 		.4byte	0x1007
 2668 0a2f 27       		.uleb128 0x27
 2669 0a30 18000000 		.4byte	.LVL79
 2670 0a34 42090000 		.4byte	0x942
 2671 0a38 490A0000 		.4byte	0xa49
 2672 0a3c 1D       		.uleb128 0x1d
 2673 0a3d 01       		.byte	0x1
 2674 0a3e 51       		.byte	0x51
 2675 0a3f 02       		.byte	0x2
 2676 0a40 74       		.byte	0x74
 2677 0a41 00       		.sleb128 0
 2678 0a42 1D       		.uleb128 0x1d
 2679 0a43 01       		.byte	0x1
 2680 0a44 50       		.byte	0x50
 2681 0a45 02       		.byte	0x2
 2682 0a46 75       		.byte	0x75
 2683 0a47 00       		.sleb128 0
 2684 0a48 00       		.byte	0
 2685 0a49 1B       		.uleb128 0x1b
 2686 0a4a 1C000000 		.4byte	.LVL80
 2687 0a4e 51100000 		.4byte	0x1051
 2688 0a52 1B       		.uleb128 0x1b
 2689 0a53 20000000 		.4byte	.LVL81
 2690 0a57 11100000 		.4byte	0x1011
 2691 0a5b 00       		.byte	0
 2692 0a5c 2C       		.uleb128 0x2c
 2693 0a5d 01       		.byte	0x1
 2694 0a5e C9030000 		.4byte	.LASF86
 2695 0a62 01       		.byte	0x1
ARM GAS  /tmp/ccevInyS.s 			page 49


 2696 0a63 2901     		.2byte	0x129
 2697 0a65 01       		.byte	0x1
 2698 0a66 FA000000 		.4byte	0xfa
 2699 0a6a 00000000 		.4byte	.LFB16
 2700 0a6e 0A000000 		.4byte	.LFE16
 2701 0a72 02       		.byte	0x2
 2702 0a73 7D       		.byte	0x7d
 2703 0a74 00       		.sleb128 0
 2704 0a75 01       		.byte	0x1
 2705 0a76 990A0000 		.4byte	0xa99
 2706 0a7a 29       		.uleb128 0x29
 2707 0a7b 656C7000 		.ascii	"elp\000"
 2708 0a7f 01       		.byte	0x1
 2709 0a80 2901     		.2byte	0x129
 2710 0a82 7B040000 		.4byte	0x47b
 2711 0a86 0F050000 		.4byte	.LLST42
 2712 0a8a 2D       		.uleb128 0x2d
 2713 0a8b 98040000 		.4byte	.LASF82
 2714 0a8f 01       		.byte	0x1
 2715 0a90 2A01     		.2byte	0x12a
 2716 0a92 FA000000 		.4byte	0xfa
 2717 0a96 01       		.byte	0x1
 2718 0a97 50       		.byte	0x50
 2719 0a98 00       		.byte	0
 2720 0a99 28       		.uleb128 0x28
 2721 0a9a 01       		.byte	0x1
 2722 0a9b A0020000 		.4byte	.LASF87
 2723 0a9f 01       		.byte	0x1
 2724 0aa0 3B01     		.2byte	0x13b
 2725 0aa2 01       		.byte	0x1
 2726 0aa3 00000000 		.4byte	.LFB17
 2727 0aa7 50000000 		.4byte	.LFE17
 2728 0aab 2D050000 		.4byte	.LLST43
 2729 0aaf 01       		.byte	0x1
 2730 0ab0 1F0B0000 		.4byte	0xb1f
 2731 0ab4 2A       		.uleb128 0x2a
 2732 0ab5 F5020000 		.4byte	.LASF88
 2733 0ab9 01       		.byte	0x1
 2734 0aba 3B01     		.2byte	0x13b
 2735 0abc 1F0B0000 		.4byte	0xb1f
 2736 0ac0 4D050000 		.4byte	.LLST44
 2737 0ac4 2A       		.uleb128 0x2a
 2738 0ac5 4E010000 		.4byte	.LASF76
 2739 0ac9 01       		.byte	0x1
 2740 0aca 3B01     		.2byte	0x13b
 2741 0acc EF000000 		.4byte	0xef
 2742 0ad0 81050000 		.4byte	.LLST45
 2743 0ad4 2B       		.uleb128 0x2b
 2744 0ad5 65696400 		.ascii	"eid\000"
 2745 0ad9 01       		.byte	0x1
 2746 0ada 3C01     		.2byte	0x13c
 2747 0adc E4000000 		.4byte	0xe4
 2748 0ae0 C0050000 		.4byte	.LLST46
 2749 0ae4 2E       		.uleb128 0x2e
 2750 0ae5 28000000 		.4byte	.LVL91
 2751 0ae9 F40A0000 		.4byte	0xaf4
 2752 0aed 1D       		.uleb128 0x1d
ARM GAS  /tmp/ccevInyS.s 			page 50


 2753 0aee 01       		.byte	0x1
 2754 0aef 50       		.byte	0x50
 2755 0af0 02       		.byte	0x2
 2756 0af1 74       		.byte	0x74
 2757 0af2 00       		.sleb128 0
 2758 0af3 00       		.byte	0
 2759 0af4 27       		.uleb128 0x27
 2760 0af5 3A000000 		.4byte	.LVL95
 2761 0af9 1B100000 		.4byte	0x101b
 2762 0afd 0B0B0000 		.4byte	0xb0b
 2763 0b01 1D       		.uleb128 0x1d
 2764 0b02 01       		.byte	0x1
 2765 0b03 50       		.byte	0x50
 2766 0b04 05       		.byte	0x5
 2767 0b05 03       		.byte	0x3
 2768 0b06 7C000000 		.4byte	.LC6
 2769 0b0a 00       		.byte	0
 2770 0b0b 1C       		.uleb128 0x1c
 2771 0b0c 46000000 		.4byte	.LVL98
 2772 0b10 1B100000 		.4byte	0x101b
 2773 0b14 1D       		.uleb128 0x1d
 2774 0b15 01       		.byte	0x1
 2775 0b16 50       		.byte	0x50
 2776 0b17 05       		.byte	0x5
 2777 0b18 03       		.byte	0x3
 2778 0b19 68000000 		.4byte	.LC5
 2779 0b1d 00       		.byte	0
 2780 0b1e 00       		.byte	0
 2781 0b1f 09       		.uleb128 0x9
 2782 0b20 04       		.byte	0x4
 2783 0b21 250B0000 		.4byte	0xb25
 2784 0b25 12       		.uleb128 0x12
 2785 0b26 A7040000 		.4byte	0x4a7
 2786 0b2a 2F       		.uleb128 0x2f
 2787 0b2b 01       		.byte	0x1
 2788 0b2c 7A030000 		.4byte	.LASF89
 2789 0b30 01       		.byte	0x1
 2790 0b31 5E01     		.2byte	0x15e
 2791 0b33 01       		.byte	0x1
 2792 0b34 EF000000 		.4byte	0xef
 2793 0b38 00000000 		.4byte	.LFB18
 2794 0b3c 44000000 		.4byte	.LFE18
 2795 0b40 DF050000 		.4byte	.LLST47
 2796 0b44 01       		.byte	0x1
 2797 0b45 D70B0000 		.4byte	0xbd7
 2798 0b49 2A       		.uleb128 0x2a
 2799 0b4a 4E010000 		.4byte	.LASF76
 2800 0b4e 01       		.byte	0x1
 2801 0b4f 5E01     		.2byte	0x15e
 2802 0b51 EF000000 		.4byte	0xef
 2803 0b55 FF050000 		.4byte	.LLST48
 2804 0b59 30       		.uleb128 0x30
 2805 0b5a 63747000 		.ascii	"ctp\000"
 2806 0b5e 01       		.byte	0x1
 2807 0b5f 5F01     		.2byte	0x15f
 2808 0b61 73020000 		.4byte	0x273
 2809 0b65 01       		.byte	0x1
ARM GAS  /tmp/ccevInyS.s 			page 51


 2810 0b66 55       		.byte	0x55
 2811 0b67 2B       		.uleb128 0x2b
 2812 0b68 6D00     		.ascii	"m\000"
 2813 0b6a 01       		.byte	0x1
 2814 0b6b 6001     		.2byte	0x160
 2815 0b6d EF000000 		.4byte	0xef
 2816 0b71 2B060000 		.4byte	.LLST49
 2817 0b75 19       		.uleb128 0x19
 2818 0b76 08000000 		.4byte	.LBB23
 2819 0b7a 0E000000 		.4byte	.LBE23
 2820 0b7e 930B0000 		.4byte	0xb93
 2821 0b82 2B       		.uleb128 0x2b
 2822 0b83 746D7000 		.ascii	"tmp\000"
 2823 0b87 01       		.byte	0x1
 2824 0b88 6201     		.2byte	0x162
 2825 0b8a 70000000 		.4byte	0x70
 2826 0b8e 64060000 		.4byte	.LLST50
 2827 0b92 00       		.byte	0
 2828 0b93 19       		.uleb128 0x19
 2829 0b94 36000000 		.4byte	.LBB24
 2830 0b98 3C000000 		.4byte	.LBE24
 2831 0b9c B10B0000 		.4byte	0xbb1
 2832 0ba0 2B       		.uleb128 0x2b
 2833 0ba1 746D7000 		.ascii	"tmp\000"
 2834 0ba5 01       		.byte	0x1
 2835 0ba6 6C01     		.2byte	0x16c
 2836 0ba8 70000000 		.4byte	0x70
 2837 0bac 77060000 		.4byte	.LLST51
 2838 0bb0 00       		.byte	0
 2839 0bb1 1B       		.uleb128 0x1b
 2840 0bb2 12000000 		.4byte	.LVL103
 2841 0bb6 07100000 		.4byte	0x1007
 2842 0bba 27       		.uleb128 0x27
 2843 0bbb 22000000 		.4byte	.LVL106
 2844 0bbf 5B100000 		.4byte	0x105b
 2845 0bc3 CD0B0000 		.4byte	0xbcd
 2846 0bc7 1D       		.uleb128 0x1d
 2847 0bc8 01       		.byte	0x1
 2848 0bc9 50       		.byte	0x50
 2849 0bca 01       		.byte	0x1
 2850 0bcb 38       		.byte	0x38
 2851 0bcc 00       		.byte	0
 2852 0bcd 1B       		.uleb128 0x1b
 2853 0bce 36000000 		.4byte	.LVL110
 2854 0bd2 11100000 		.4byte	0x1011
 2855 0bd6 00       		.byte	0
 2856 0bd7 2F       		.uleb128 0x2f
 2857 0bd8 01       		.byte	0x1
 2858 0bd9 D1000000 		.4byte	.LASF90
 2859 0bdd 01       		.byte	0x1
 2860 0bde 7B01     		.2byte	0x17b
 2861 0be0 01       		.byte	0x1
 2862 0be1 EF000000 		.4byte	0xef
 2863 0be5 00000000 		.4byte	.LFB19
 2864 0be9 40000000 		.4byte	.LFE19
 2865 0bed 8A060000 		.4byte	.LLST52
 2866 0bf1 01       		.byte	0x1
ARM GAS  /tmp/ccevInyS.s 			page 52


 2867 0bf2 840C0000 		.4byte	0xc84
 2868 0bf6 2A       		.uleb128 0x2a
 2869 0bf7 4E010000 		.4byte	.LASF76
 2870 0bfb 01       		.byte	0x1
 2871 0bfc 7B01     		.2byte	0x17b
 2872 0bfe EF000000 		.4byte	0xef
 2873 0c02 AA060000 		.4byte	.LLST53
 2874 0c06 30       		.uleb128 0x30
 2875 0c07 63747000 		.ascii	"ctp\000"
 2876 0c0b 01       		.byte	0x1
 2877 0c0c 7C01     		.2byte	0x17c
 2878 0c0e 73020000 		.4byte	0x273
 2879 0c12 01       		.byte	0x1
 2880 0c13 55       		.byte	0x55
 2881 0c14 2B       		.uleb128 0x2b
 2882 0c15 6D00     		.ascii	"m\000"
 2883 0c17 01       		.byte	0x1
 2884 0c18 7D01     		.2byte	0x17d
 2885 0c1a EF000000 		.4byte	0xef
 2886 0c1e C8060000 		.4byte	.LLST54
 2887 0c22 19       		.uleb128 0x19
 2888 0c23 08000000 		.4byte	.LBB25
 2889 0c27 0E000000 		.4byte	.LBE25
 2890 0c2b 400C0000 		.4byte	0xc40
 2891 0c2f 2B       		.uleb128 0x2b
 2892 0c30 746D7000 		.ascii	"tmp\000"
 2893 0c34 01       		.byte	0x1
 2894 0c35 7F01     		.2byte	0x17f
 2895 0c37 70000000 		.4byte	0x70
 2896 0c3b EB060000 		.4byte	.LLST55
 2897 0c3f 00       		.byte	0
 2898 0c40 19       		.uleb128 0x19
 2899 0c41 32000000 		.4byte	.LBB26
 2900 0c45 38000000 		.4byte	.LBE26
 2901 0c49 5E0C0000 		.4byte	0xc5e
 2902 0c4d 2B       		.uleb128 0x2b
 2903 0c4e 746D7000 		.ascii	"tmp\000"
 2904 0c52 01       		.byte	0x1
 2905 0c53 8801     		.2byte	0x188
 2906 0c55 70000000 		.4byte	0x70
 2907 0c59 FE060000 		.4byte	.LLST56
 2908 0c5d 00       		.byte	0
 2909 0c5e 1B       		.uleb128 0x1b
 2910 0c5f 12000000 		.4byte	.LVL117
 2911 0c63 07100000 		.4byte	0x1007
 2912 0c67 27       		.uleb128 0x27
 2913 0c68 22000000 		.4byte	.LVL120
 2914 0c6c 5B100000 		.4byte	0x105b
 2915 0c70 7A0C0000 		.4byte	0xc7a
 2916 0c74 1D       		.uleb128 0x1d
 2917 0c75 01       		.byte	0x1
 2918 0c76 50       		.byte	0x50
 2919 0c77 01       		.byte	0x1
 2920 0c78 38       		.byte	0x38
 2921 0c79 00       		.byte	0
 2922 0c7a 1B       		.uleb128 0x1b
 2923 0c7b 32000000 		.4byte	.LVL122
ARM GAS  /tmp/ccevInyS.s 			page 53


 2924 0c7f 11100000 		.4byte	0x1011
 2925 0c83 00       		.byte	0
 2926 0c84 2F       		.uleb128 0x2f
 2927 0c85 01       		.byte	0x1
 2928 0c86 CE020000 		.4byte	.LASF91
 2929 0c8a 01       		.byte	0x1
 2930 0c8b 9701     		.2byte	0x197
 2931 0c8d 01       		.byte	0x1
 2932 0c8e EF000000 		.4byte	0xef
 2933 0c92 00000000 		.4byte	.LFB20
 2934 0c96 40000000 		.4byte	.LFE20
 2935 0c9a 11070000 		.4byte	.LLST57
 2936 0c9e 01       		.byte	0x1
 2937 0c9f 230D0000 		.4byte	0xd23
 2938 0ca3 2A       		.uleb128 0x2a
 2939 0ca4 4E010000 		.4byte	.LASF76
 2940 0ca8 01       		.byte	0x1
 2941 0ca9 9701     		.2byte	0x197
 2942 0cab EF000000 		.4byte	0xef
 2943 0caf 31070000 		.4byte	.LLST58
 2944 0cb3 30       		.uleb128 0x30
 2945 0cb4 63747000 		.ascii	"ctp\000"
 2946 0cb8 01       		.byte	0x1
 2947 0cb9 9801     		.2byte	0x198
 2948 0cbb 73020000 		.4byte	0x273
 2949 0cbf 01       		.byte	0x1
 2950 0cc0 55       		.byte	0x55
 2951 0cc1 19       		.uleb128 0x19
 2952 0cc2 08000000 		.4byte	.LBB27
 2953 0cc6 0E000000 		.4byte	.LBE27
 2954 0cca DF0C0000 		.4byte	0xcdf
 2955 0cce 2B       		.uleb128 0x2b
 2956 0ccf 746D7000 		.ascii	"tmp\000"
 2957 0cd3 01       		.byte	0x1
 2958 0cd4 9A01     		.2byte	0x19a
 2959 0cd6 70000000 		.4byte	0x70
 2960 0cda 4F070000 		.4byte	.LLST59
 2961 0cde 00       		.byte	0
 2962 0cdf 19       		.uleb128 0x19
 2963 0ce0 30000000 		.4byte	.LBB28
 2964 0ce4 36000000 		.4byte	.LBE28
 2965 0ce8 FD0C0000 		.4byte	0xcfd
 2966 0cec 2B       		.uleb128 0x2b
 2967 0ced 746D7000 		.ascii	"tmp\000"
 2968 0cf1 01       		.byte	0x1
 2969 0cf2 A201     		.2byte	0x1a2
 2970 0cf4 70000000 		.4byte	0x70
 2971 0cf8 62070000 		.4byte	.LLST60
 2972 0cfc 00       		.byte	0
 2973 0cfd 1B       		.uleb128 0x1b
 2974 0cfe 12000000 		.4byte	.LVL129
 2975 0d02 07100000 		.4byte	0x1007
 2976 0d06 27       		.uleb128 0x27
 2977 0d07 24000000 		.4byte	.LVL130
 2978 0d0b 5B100000 		.4byte	0x105b
 2979 0d0f 190D0000 		.4byte	0xd19
 2980 0d13 1D       		.uleb128 0x1d
ARM GAS  /tmp/ccevInyS.s 			page 54


 2981 0d14 01       		.byte	0x1
 2982 0d15 50       		.byte	0x50
 2983 0d16 01       		.byte	0x1
 2984 0d17 39       		.byte	0x39
 2985 0d18 00       		.byte	0
 2986 0d19 1B       		.uleb128 0x1b
 2987 0d1a 30000000 		.4byte	.LVL131
 2988 0d1e 11100000 		.4byte	0x1011
 2989 0d22 00       		.byte	0
 2990 0d23 2F       		.uleb128 0x2f
 2991 0d24 01       		.byte	0x1
 2992 0d25 AC040000 		.4byte	.LASF92
 2993 0d29 01       		.byte	0x1
 2994 0d2a BE01     		.2byte	0x1be
 2995 0d2c 01       		.byte	0x1
 2996 0d2d EF000000 		.4byte	0xef
 2997 0d31 00000000 		.4byte	.LFB21
 2998 0d35 5C000000 		.4byte	.LFE21
 2999 0d39 75070000 		.4byte	.LLST61
 3000 0d3d 01       		.byte	0x1
 3001 0d3e 0D0E0000 		.4byte	0xe0d
 3002 0d42 2A       		.uleb128 0x2a
 3003 0d43 4E010000 		.4byte	.LASF76
 3004 0d47 01       		.byte	0x1
 3005 0d48 BE01     		.2byte	0x1be
 3006 0d4a EF000000 		.4byte	0xef
 3007 0d4e 95070000 		.4byte	.LLST62
 3008 0d52 2A       		.uleb128 0x2a
 3009 0d53 C9020000 		.4byte	.LASF93
 3010 0d57 01       		.byte	0x1
 3011 0d58 BE01     		.2byte	0x1be
 3012 0d5a 05010000 		.4byte	0x105
 3013 0d5e B3070000 		.4byte	.LLST63
 3014 0d62 30       		.uleb128 0x30
 3015 0d63 63747000 		.ascii	"ctp\000"
 3016 0d67 01       		.byte	0x1
 3017 0d68 BF01     		.2byte	0x1bf
 3018 0d6a 73020000 		.4byte	0x273
 3019 0d6e 01       		.byte	0x1
 3020 0d6f 56       		.byte	0x56
 3021 0d70 2B       		.uleb128 0x2b
 3022 0d71 6D00     		.ascii	"m\000"
 3023 0d73 01       		.byte	0x1
 3024 0d74 C001     		.2byte	0x1c0
 3025 0d76 EF000000 		.4byte	0xef
 3026 0d7a D1070000 		.4byte	.LLST64
 3027 0d7e 19       		.uleb128 0x19
 3028 0d7f 0A000000 		.4byte	.LBB29
 3029 0d83 10000000 		.4byte	.LBE29
 3030 0d87 9C0D0000 		.4byte	0xd9c
 3031 0d8b 2B       		.uleb128 0x2b
 3032 0d8c 746D7000 		.ascii	"tmp\000"
 3033 0d90 01       		.byte	0x1
 3034 0d91 C201     		.2byte	0x1c2
 3035 0d93 70000000 		.4byte	0x70
 3036 0d97 F4070000 		.4byte	.LLST65
 3037 0d9b 00       		.byte	0
ARM GAS  /tmp/ccevInyS.s 			page 55


 3038 0d9c 19       		.uleb128 0x19
 3039 0d9d 40000000 		.4byte	.LBB30
 3040 0da1 46000000 		.4byte	.LBE30
 3041 0da5 BA0D0000 		.4byte	0xdba
 3042 0da9 2B       		.uleb128 0x2b
 3043 0daa 746D7000 		.ascii	"tmp\000"
 3044 0dae 01       		.byte	0x1
 3045 0daf D301     		.2byte	0x1d3
 3046 0db1 70000000 		.4byte	0x70
 3047 0db5 07080000 		.4byte	.LLST66
 3048 0db9 00       		.byte	0
 3049 0dba 19       		.uleb128 0x19
 3050 0dbb 4E000000 		.4byte	.LBB31
 3051 0dbf 54000000 		.4byte	.LBE31
 3052 0dc3 D80D0000 		.4byte	0xdd8
 3053 0dc7 2B       		.uleb128 0x2b
 3054 0dc8 746D7000 		.ascii	"tmp\000"
 3055 0dcc 01       		.byte	0x1
 3056 0dcd CB01     		.2byte	0x1cb
 3057 0dcf 70000000 		.4byte	0x70
 3058 0dd3 1A080000 		.4byte	.LLST67
 3059 0dd7 00       		.byte	0
 3060 0dd8 1B       		.uleb128 0x1b
 3061 0dd9 14000000 		.4byte	.LVL138
 3062 0ddd 07100000 		.4byte	0x1007
 3063 0de1 27       		.uleb128 0x27
 3064 0de2 28000000 		.4byte	.LVL141
 3065 0de6 6F100000 		.4byte	0x106f
 3066 0dea FA0D0000 		.4byte	0xdfa
 3067 0dee 1D       		.uleb128 0x1d
 3068 0def 01       		.byte	0x1
 3069 0df0 51       		.byte	0x51
 3070 0df1 02       		.byte	0x2
 3071 0df2 77       		.byte	0x77
 3072 0df3 00       		.sleb128 0
 3073 0df4 1D       		.uleb128 0x1d
 3074 0df5 01       		.byte	0x1
 3075 0df6 50       		.byte	0x50
 3076 0df7 01       		.byte	0x1
 3077 0df8 38       		.byte	0x38
 3078 0df9 00       		.byte	0
 3079 0dfa 1B       		.uleb128 0x1b
 3080 0dfb 40000000 		.4byte	.LVL144
 3081 0dff 11100000 		.4byte	0x1011
 3082 0e03 1B       		.uleb128 0x1b
 3083 0e04 4E000000 		.4byte	.LVL148
 3084 0e08 11100000 		.4byte	0x1011
 3085 0e0c 00       		.byte	0
 3086 0e0d 2F       		.uleb128 0x2f
 3087 0e0e 01       		.byte	0x1
 3088 0e0f 5C000000 		.4byte	.LASF94
 3089 0e13 01       		.byte	0x1
 3090 0e14 E901     		.2byte	0x1e9
 3091 0e16 01       		.byte	0x1
 3092 0e17 EF000000 		.4byte	0xef
 3093 0e1b 00000000 		.4byte	.LFB22
 3094 0e1f 58000000 		.4byte	.LFE22
ARM GAS  /tmp/ccevInyS.s 			page 56


 3095 0e23 2D080000 		.4byte	.LLST68
 3096 0e27 01       		.byte	0x1
 3097 0e28 F70E0000 		.4byte	0xef7
 3098 0e2c 2A       		.uleb128 0x2a
 3099 0e2d 4E010000 		.4byte	.LASF76
 3100 0e31 01       		.byte	0x1
 3101 0e32 E901     		.2byte	0x1e9
 3102 0e34 EF000000 		.4byte	0xef
 3103 0e38 4D080000 		.4byte	.LLST69
 3104 0e3c 2A       		.uleb128 0x2a
 3105 0e3d C9020000 		.4byte	.LASF93
 3106 0e41 01       		.byte	0x1
 3107 0e42 E901     		.2byte	0x1e9
 3108 0e44 05010000 		.4byte	0x105
 3109 0e48 6B080000 		.4byte	.LLST70
 3110 0e4c 30       		.uleb128 0x30
 3111 0e4d 63747000 		.ascii	"ctp\000"
 3112 0e51 01       		.byte	0x1
 3113 0e52 EA01     		.2byte	0x1ea
 3114 0e54 73020000 		.4byte	0x273
 3115 0e58 01       		.byte	0x1
 3116 0e59 55       		.byte	0x55
 3117 0e5a 2B       		.uleb128 0x2b
 3118 0e5b 6D00     		.ascii	"m\000"
 3119 0e5d 01       		.byte	0x1
 3120 0e5e EB01     		.2byte	0x1eb
 3121 0e60 EF000000 		.4byte	0xef
 3122 0e64 89080000 		.4byte	.LLST71
 3123 0e68 19       		.uleb128 0x19
 3124 0e69 0A000000 		.4byte	.LBB32
 3125 0e6d 10000000 		.4byte	.LBE32
 3126 0e71 860E0000 		.4byte	0xe86
 3127 0e75 2B       		.uleb128 0x2b
 3128 0e76 746D7000 		.ascii	"tmp\000"
 3129 0e7a 01       		.byte	0x1
 3130 0e7b ED01     		.2byte	0x1ed
 3131 0e7d 70000000 		.4byte	0x70
 3132 0e81 AC080000 		.4byte	.LLST72
 3133 0e85 00       		.byte	0
 3134 0e86 19       		.uleb128 0x19
 3135 0e87 3C000000 		.4byte	.LBB33
 3136 0e8b 42000000 		.4byte	.LBE33
 3137 0e8f A40E0000 		.4byte	0xea4
 3138 0e93 2B       		.uleb128 0x2b
 3139 0e94 746D7000 		.ascii	"tmp\000"
 3140 0e98 01       		.byte	0x1
 3141 0e99 FD01     		.2byte	0x1fd
 3142 0e9b 70000000 		.4byte	0x70
 3143 0e9f BF080000 		.4byte	.LLST73
 3144 0ea3 00       		.byte	0
 3145 0ea4 19       		.uleb128 0x19
 3146 0ea5 4A000000 		.4byte	.LBB34
 3147 0ea9 50000000 		.4byte	.LBE34
 3148 0ead C20E0000 		.4byte	0xec2
 3149 0eb1 2B       		.uleb128 0x2b
 3150 0eb2 746D7000 		.ascii	"tmp\000"
 3151 0eb6 01       		.byte	0x1
ARM GAS  /tmp/ccevInyS.s 			page 57


 3152 0eb7 F601     		.2byte	0x1f6
 3153 0eb9 70000000 		.4byte	0x70
 3154 0ebd D2080000 		.4byte	.LLST74
 3155 0ec1 00       		.byte	0
 3156 0ec2 1B       		.uleb128 0x1b
 3157 0ec3 14000000 		.4byte	.LVL155
 3158 0ec7 07100000 		.4byte	0x1007
 3159 0ecb 27       		.uleb128 0x27
 3160 0ecc 28000000 		.4byte	.LVL158
 3161 0ed0 6F100000 		.4byte	0x106f
 3162 0ed4 E40E0000 		.4byte	0xee4
 3163 0ed8 1D       		.uleb128 0x1d
 3164 0ed9 01       		.byte	0x1
 3165 0eda 51       		.byte	0x51
 3166 0edb 02       		.byte	0x2
 3167 0edc 77       		.byte	0x77
 3168 0edd 00       		.sleb128 0
 3169 0ede 1D       		.uleb128 0x1d
 3170 0edf 01       		.byte	0x1
 3171 0ee0 50       		.byte	0x50
 3172 0ee1 01       		.byte	0x1
 3173 0ee2 38       		.byte	0x38
 3174 0ee3 00       		.byte	0
 3175 0ee4 1B       		.uleb128 0x1b
 3176 0ee5 3C000000 		.4byte	.LVL160
 3177 0ee9 11100000 		.4byte	0x1011
 3178 0eed 1B       		.uleb128 0x1b
 3179 0eee 4A000000 		.4byte	.LVL164
 3180 0ef2 11100000 		.4byte	0x1011
 3181 0ef6 00       		.byte	0
 3182 0ef7 2F       		.uleb128 0x2f
 3183 0ef8 01       		.byte	0x1
 3184 0ef9 91000000 		.4byte	.LASF95
 3185 0efd 01       		.byte	0x1
 3186 0efe 1202     		.2byte	0x212
 3187 0f00 01       		.byte	0x1
 3188 0f01 EF000000 		.4byte	0xef
 3189 0f05 00000000 		.4byte	.LFB23
 3190 0f09 68000000 		.4byte	.LFE23
 3191 0f0d E5080000 		.4byte	.LLST75
 3192 0f11 01       		.byte	0x1
 3193 0f12 FA0F0000 		.4byte	0xffa
 3194 0f16 2A       		.uleb128 0x2a
 3195 0f17 4E010000 		.4byte	.LASF76
 3196 0f1b 01       		.byte	0x1
 3197 0f1c 1202     		.2byte	0x212
 3198 0f1e EF000000 		.4byte	0xef
 3199 0f22 05090000 		.4byte	.LLST76
 3200 0f26 2A       		.uleb128 0x2a
 3201 0f27 C9020000 		.4byte	.LASF93
 3202 0f2b 01       		.byte	0x1
 3203 0f2c 1202     		.2byte	0x212
 3204 0f2e 05010000 		.4byte	0x105
 3205 0f32 63090000 		.4byte	.LLST77
 3206 0f36 30       		.uleb128 0x30
 3207 0f37 63747000 		.ascii	"ctp\000"
 3208 0f3b 01       		.byte	0x1
ARM GAS  /tmp/ccevInyS.s 			page 58


 3209 0f3c 1302     		.2byte	0x213
 3210 0f3e 73020000 		.4byte	0x273
 3211 0f42 01       		.byte	0x1
 3212 0f43 55       		.byte	0x55
 3213 0f44 19       		.uleb128 0x19
 3214 0f45 0A000000 		.4byte	.LBB35
 3215 0f49 10000000 		.4byte	.LBE35
 3216 0f4d 620F0000 		.4byte	0xf62
 3217 0f51 2B       		.uleb128 0x2b
 3218 0f52 746D7000 		.ascii	"tmp\000"
 3219 0f56 01       		.byte	0x1
 3220 0f57 1502     		.2byte	0x215
 3221 0f59 70000000 		.4byte	0x70
 3222 0f5d 81090000 		.4byte	.LLST78
 3223 0f61 00       		.byte	0
 3224 0f62 19       		.uleb128 0x19
 3225 0f63 3A000000 		.4byte	.LBB36
 3226 0f67 40000000 		.4byte	.LBE36
 3227 0f6b 800F0000 		.4byte	0xf80
 3228 0f6f 2B       		.uleb128 0x2b
 3229 0f70 746D7000 		.ascii	"tmp\000"
 3230 0f74 01       		.byte	0x1
 3231 0f75 2402     		.2byte	0x224
 3232 0f77 70000000 		.4byte	0x70
 3233 0f7b 94090000 		.4byte	.LLST79
 3234 0f7f 00       		.byte	0
 3235 0f80 19       		.uleb128 0x19
 3236 0f81 48000000 		.4byte	.LBB37
 3237 0f85 4E000000 		.4byte	.LBE37
 3238 0f89 9E0F0000 		.4byte	0xf9e
 3239 0f8d 2B       		.uleb128 0x2b
 3240 0f8e 746D7000 		.ascii	"tmp\000"
 3241 0f92 01       		.byte	0x1
 3242 0f93 1902     		.2byte	0x219
 3243 0f95 70000000 		.4byte	0x70
 3244 0f99 A7090000 		.4byte	.LLST80
 3245 0f9d 00       		.byte	0
 3246 0f9e 19       		.uleb128 0x19
 3247 0f9f 58000000 		.4byte	.LBB38
 3248 0fa3 5E000000 		.4byte	.LBE38
 3249 0fa7 BC0F0000 		.4byte	0xfbc
 3250 0fab 2B       		.uleb128 0x2b
 3251 0fac 746D7000 		.ascii	"tmp\000"
 3252 0fb0 01       		.byte	0x1
 3253 0fb1 1E02     		.2byte	0x21e
 3254 0fb3 70000000 		.4byte	0x70
 3255 0fb7 BA090000 		.4byte	.LLST81
 3256 0fbb 00       		.byte	0
 3257 0fbc 1B       		.uleb128 0x1b
 3258 0fbd 14000000 		.4byte	.LVL171
 3259 0fc1 07100000 		.4byte	0x1007
 3260 0fc5 27       		.uleb128 0x27
 3261 0fc6 2A000000 		.4byte	.LVL172
 3262 0fca 6F100000 		.4byte	0x106f
 3263 0fce DE0F0000 		.4byte	0xfde
 3264 0fd2 1D       		.uleb128 0x1d
 3265 0fd3 01       		.byte	0x1
ARM GAS  /tmp/ccevInyS.s 			page 59


 3266 0fd4 51       		.byte	0x51
 3267 0fd5 02       		.byte	0x2
 3268 0fd6 76       		.byte	0x76
 3269 0fd7 00       		.sleb128 0
 3270 0fd8 1D       		.uleb128 0x1d
 3271 0fd9 01       		.byte	0x1
 3272 0fda 50       		.byte	0x50
 3273 0fdb 01       		.byte	0x1
 3274 0fdc 39       		.byte	0x39
 3275 0fdd 00       		.byte	0
 3276 0fde 1B       		.uleb128 0x1b
 3277 0fdf 3A000000 		.4byte	.LVL173
 3278 0fe3 11100000 		.4byte	0x1011
 3279 0fe7 1B       		.uleb128 0x1b
 3280 0fe8 48000000 		.4byte	.LVL177
 3281 0fec 11100000 		.4byte	0x1011
 3282 0ff0 1B       		.uleb128 0x1b
 3283 0ff1 58000000 		.4byte	.LVL182
 3284 0ff5 11100000 		.4byte	0x1011
 3285 0ff9 00       		.byte	0
 3286 0ffa 31       		.uleb128 0x31
 3287 0ffb 8A040000 		.4byte	.LASF107
 3288 0fff 07       		.byte	0x7
 3289 1000 6F       		.byte	0x6f
 3290 1001 D8030000 		.4byte	0x3d8
 3291 1005 01       		.byte	0x1
 3292 1006 01       		.byte	0x1
 3293 1007 32       		.uleb128 0x32
 3294 1008 01       		.byte	0x1
 3295 1009 05050000 		.4byte	.LASF96
 3296 100d 0A       		.byte	0xa
 3297 100e E7       		.byte	0xe7
 3298 100f 01       		.byte	0x1
 3299 1010 01       		.byte	0x1
 3300 1011 32       		.uleb128 0x32
 3301 1012 01       		.byte	0x1
 3302 1013 86020000 		.4byte	.LASF97
 3303 1017 0A       		.byte	0xa
 3304 1018 E8       		.byte	0xe8
 3305 1019 01       		.byte	0x1
 3306 101a 01       		.byte	0x1
 3307 101b 33       		.uleb128 0x33
 3308 101c 01       		.byte	0x1
 3309 101d 06000000 		.4byte	.LASF99
 3310 1021 0A       		.byte	0xa
 3311 1022 F6       		.byte	0xf6
 3312 1023 01       		.byte	0x1
 3313 1024 01       		.byte	0x1
 3314 1025 2F100000 		.4byte	0x102f
 3315 1029 0F       		.uleb128 0xf
 3316 102a F9040000 		.4byte	0x4f9
 3317 102e 00       		.byte	0
 3318 102f 34       		.uleb128 0x34
 3319 1030 01       		.byte	0x1
 3320 1031 27040000 		.4byte	.LASF108
 3321 1035 07       		.byte	0x7
 3322 1036 90       		.byte	0x90
ARM GAS  /tmp/ccevInyS.s 			page 60


 3323 1037 01       		.byte	0x1
 3324 1038 73020000 		.4byte	0x273
 3325 103c 01       		.byte	0x1
 3326 103d 47100000 		.4byte	0x1047
 3327 1041 0F       		.uleb128 0xf
 3328 1042 73020000 		.4byte	0x273
 3329 1046 00       		.byte	0
 3330 1047 32       		.uleb128 0x32
 3331 1048 01       		.byte	0x1
 3332 1049 EC040000 		.4byte	.LASF100
 3333 104d 0A       		.byte	0xa
 3334 104e ED       		.byte	0xed
 3335 104f 01       		.byte	0x1
 3336 1050 01       		.byte	0x1
 3337 1051 32       		.uleb128 0x32
 3338 1052 01       		.byte	0x1
 3339 1053 35010000 		.4byte	.LASF101
 3340 1057 07       		.byte	0x7
 3341 1058 9C       		.byte	0x9c
 3342 1059 01       		.byte	0x1
 3343 105a 01       		.byte	0x1
 3344 105b 33       		.uleb128 0x33
 3345 105c 01       		.byte	0x1
 3346 105d FD030000 		.4byte	.LASF102
 3347 1061 07       		.byte	0x7
 3348 1062 93       		.byte	0x93
 3349 1063 01       		.byte	0x1
 3350 1064 01       		.byte	0x1
 3351 1065 6F100000 		.4byte	0x106f
 3352 1069 0F       		.uleb128 0xf
 3353 106a AD000000 		.4byte	0xad
 3354 106e 00       		.byte	0
 3355 106f 35       		.uleb128 0x35
 3356 1070 01       		.byte	0x1
 3357 1071 DE000000 		.4byte	.LASF103
 3358 1075 07       		.byte	0x7
 3359 1076 96       		.byte	0x96
 3360 1077 01       		.byte	0x1
 3361 1078 D9000000 		.4byte	0xd9
 3362 107c 01       		.byte	0x1
 3363 107d 0F       		.uleb128 0xf
 3364 107e AD000000 		.4byte	0xad
 3365 1082 0F       		.uleb128 0xf
 3366 1083 05010000 		.4byte	0x105
 3367 1087 00       		.byte	0
 3368 1088 00       		.byte	0
 3369              		.section	.debug_abbrev,"",%progbits
 3370              	.Ldebug_abbrev0:
 3371 0000 01       		.uleb128 0x1
 3372 0001 11       		.uleb128 0x11
 3373 0002 01       		.byte	0x1
 3374 0003 25       		.uleb128 0x25
 3375 0004 0E       		.uleb128 0xe
 3376 0005 13       		.uleb128 0x13
 3377 0006 0B       		.uleb128 0xb
 3378 0007 03       		.uleb128 0x3
 3379 0008 0E       		.uleb128 0xe
ARM GAS  /tmp/ccevInyS.s 			page 61


 3380 0009 1B       		.uleb128 0x1b
 3381 000a 0E       		.uleb128 0xe
 3382 000b 55       		.uleb128 0x55
 3383 000c 06       		.uleb128 0x6
 3384 000d 11       		.uleb128 0x11
 3385 000e 01       		.uleb128 0x1
 3386 000f 52       		.uleb128 0x52
 3387 0010 01       		.uleb128 0x1
 3388 0011 10       		.uleb128 0x10
 3389 0012 06       		.uleb128 0x6
 3390 0013 00       		.byte	0
 3391 0014 00       		.byte	0
 3392 0015 02       		.uleb128 0x2
 3393 0016 24       		.uleb128 0x24
 3394 0017 00       		.byte	0
 3395 0018 0B       		.uleb128 0xb
 3396 0019 0B       		.uleb128 0xb
 3397 001a 3E       		.uleb128 0x3e
 3398 001b 0B       		.uleb128 0xb
 3399 001c 03       		.uleb128 0x3
 3400 001d 08       		.uleb128 0x8
 3401 001e 00       		.byte	0
 3402 001f 00       		.byte	0
 3403 0020 03       		.uleb128 0x3
 3404 0021 24       		.uleb128 0x24
 3405 0022 00       		.byte	0
 3406 0023 0B       		.uleb128 0xb
 3407 0024 0B       		.uleb128 0xb
 3408 0025 3E       		.uleb128 0x3e
 3409 0026 0B       		.uleb128 0xb
 3410 0027 03       		.uleb128 0x3
 3411 0028 0E       		.uleb128 0xe
 3412 0029 00       		.byte	0
 3413 002a 00       		.byte	0
 3414 002b 04       		.uleb128 0x4
 3415 002c 16       		.uleb128 0x16
 3416 002d 00       		.byte	0
 3417 002e 03       		.uleb128 0x3
 3418 002f 0E       		.uleb128 0xe
 3419 0030 3A       		.uleb128 0x3a
 3420 0031 0B       		.uleb128 0xb
 3421 0032 3B       		.uleb128 0x3b
 3422 0033 0B       		.uleb128 0xb
 3423 0034 49       		.uleb128 0x49
 3424 0035 13       		.uleb128 0x13
 3425 0036 00       		.byte	0
 3426 0037 00       		.byte	0
 3427 0038 05       		.uleb128 0x5
 3428 0039 13       		.uleb128 0x13
 3429 003a 01       		.byte	0x1
 3430 003b 03       		.uleb128 0x3
 3431 003c 0E       		.uleb128 0xe
 3432 003d 0B       		.uleb128 0xb
 3433 003e 0B       		.uleb128 0xb
 3434 003f 3A       		.uleb128 0x3a
 3435 0040 0B       		.uleb128 0xb
 3436 0041 3B       		.uleb128 0x3b
ARM GAS  /tmp/ccevInyS.s 			page 62


 3437 0042 0B       		.uleb128 0xb
 3438 0043 01       		.uleb128 0x1
 3439 0044 13       		.uleb128 0x13
 3440 0045 00       		.byte	0
 3441 0046 00       		.byte	0
 3442 0047 06       		.uleb128 0x6
 3443 0048 0D       		.uleb128 0xd
 3444 0049 00       		.byte	0
 3445 004a 03       		.uleb128 0x3
 3446 004b 0E       		.uleb128 0xe
 3447 004c 3A       		.uleb128 0x3a
 3448 004d 0B       		.uleb128 0xb
 3449 004e 3B       		.uleb128 0x3b
 3450 004f 0B       		.uleb128 0xb
 3451 0050 49       		.uleb128 0x49
 3452 0051 13       		.uleb128 0x13
 3453 0052 38       		.uleb128 0x38
 3454 0053 0A       		.uleb128 0xa
 3455 0054 00       		.byte	0
 3456 0055 00       		.byte	0
 3457 0056 07       		.uleb128 0x7
 3458 0057 0D       		.uleb128 0xd
 3459 0058 00       		.byte	0
 3460 0059 03       		.uleb128 0x3
 3461 005a 08       		.uleb128 0x8
 3462 005b 3A       		.uleb128 0x3a
 3463 005c 0B       		.uleb128 0xb
 3464 005d 3B       		.uleb128 0x3b
 3465 005e 0B       		.uleb128 0xb
 3466 005f 49       		.uleb128 0x49
 3467 0060 13       		.uleb128 0x13
 3468 0061 38       		.uleb128 0x38
 3469 0062 0A       		.uleb128 0xa
 3470 0063 00       		.byte	0
 3471 0064 00       		.byte	0
 3472 0065 08       		.uleb128 0x8
 3473 0066 13       		.uleb128 0x13
 3474 0067 01       		.byte	0x1
 3475 0068 0B       		.uleb128 0xb
 3476 0069 0B       		.uleb128 0xb
 3477 006a 3A       		.uleb128 0x3a
 3478 006b 0B       		.uleb128 0xb
 3479 006c 3B       		.uleb128 0x3b
 3480 006d 0B       		.uleb128 0xb
 3481 006e 01       		.uleb128 0x1
 3482 006f 13       		.uleb128 0x13
 3483 0070 00       		.byte	0
 3484 0071 00       		.byte	0
 3485 0072 09       		.uleb128 0x9
 3486 0073 0F       		.uleb128 0xf
 3487 0074 00       		.byte	0
 3488 0075 0B       		.uleb128 0xb
 3489 0076 0B       		.uleb128 0xb
 3490 0077 49       		.uleb128 0x49
 3491 0078 13       		.uleb128 0x13
 3492 0079 00       		.byte	0
 3493 007a 00       		.byte	0
ARM GAS  /tmp/ccevInyS.s 			page 63


 3494 007b 0A       		.uleb128 0xa
 3495 007c 0F       		.uleb128 0xf
 3496 007d 00       		.byte	0
 3497 007e 0B       		.uleb128 0xb
 3498 007f 0B       		.uleb128 0xb
 3499 0080 00       		.byte	0
 3500 0081 00       		.byte	0
 3501 0082 0B       		.uleb128 0xb
 3502 0083 13       		.uleb128 0x13
 3503 0084 01       		.byte	0x1
 3504 0085 03       		.uleb128 0x3
 3505 0086 0E       		.uleb128 0xe
 3506 0087 0B       		.uleb128 0xb
 3507 0088 0B       		.uleb128 0xb
 3508 0089 3A       		.uleb128 0x3a
 3509 008a 0B       		.uleb128 0xb
 3510 008b 3B       		.uleb128 0x3b
 3511 008c 05       		.uleb128 0x5
 3512 008d 01       		.uleb128 0x1
 3513 008e 13       		.uleb128 0x13
 3514 008f 00       		.byte	0
 3515 0090 00       		.byte	0
 3516 0091 0C       		.uleb128 0xc
 3517 0092 0D       		.uleb128 0xd
 3518 0093 00       		.byte	0
 3519 0094 03       		.uleb128 0x3
 3520 0095 08       		.uleb128 0x8
 3521 0096 3A       		.uleb128 0x3a
 3522 0097 0B       		.uleb128 0xb
 3523 0098 3B       		.uleb128 0x3b
 3524 0099 05       		.uleb128 0x5
 3525 009a 49       		.uleb128 0x49
 3526 009b 13       		.uleb128 0x13
 3527 009c 38       		.uleb128 0x38
 3528 009d 0A       		.uleb128 0xa
 3529 009e 00       		.byte	0
 3530 009f 00       		.byte	0
 3531 00a0 0D       		.uleb128 0xd
 3532 00a1 35       		.uleb128 0x35
 3533 00a2 00       		.byte	0
 3534 00a3 49       		.uleb128 0x49
 3535 00a4 13       		.uleb128 0x13
 3536 00a5 00       		.byte	0
 3537 00a6 00       		.byte	0
 3538 00a7 0E       		.uleb128 0xe
 3539 00a8 15       		.uleb128 0x15
 3540 00a9 01       		.byte	0x1
 3541 00aa 27       		.uleb128 0x27
 3542 00ab 0C       		.uleb128 0xc
 3543 00ac 01       		.uleb128 0x1
 3544 00ad 13       		.uleb128 0x13
 3545 00ae 00       		.byte	0
 3546 00af 00       		.byte	0
 3547 00b0 0F       		.uleb128 0xf
 3548 00b1 05       		.uleb128 0x5
 3549 00b2 00       		.byte	0
 3550 00b3 49       		.uleb128 0x49
ARM GAS  /tmp/ccevInyS.s 			page 64


 3551 00b4 13       		.uleb128 0x13
 3552 00b5 00       		.byte	0
 3553 00b6 00       		.byte	0
 3554 00b7 10       		.uleb128 0x10
 3555 00b8 17       		.uleb128 0x17
 3556 00b9 01       		.byte	0x1
 3557 00ba 0B       		.uleb128 0xb
 3558 00bb 0B       		.uleb128 0xb
 3559 00bc 3A       		.uleb128 0x3a
 3560 00bd 0B       		.uleb128 0xb
 3561 00be 3B       		.uleb128 0x3b
 3562 00bf 0B       		.uleb128 0xb
 3563 00c0 01       		.uleb128 0x1
 3564 00c1 13       		.uleb128 0x13
 3565 00c2 00       		.byte	0
 3566 00c3 00       		.byte	0
 3567 00c4 11       		.uleb128 0x11
 3568 00c5 0D       		.uleb128 0xd
 3569 00c6 00       		.byte	0
 3570 00c7 03       		.uleb128 0x3
 3571 00c8 0E       		.uleb128 0xe
 3572 00c9 3A       		.uleb128 0x3a
 3573 00ca 0B       		.uleb128 0xb
 3574 00cb 3B       		.uleb128 0x3b
 3575 00cc 0B       		.uleb128 0xb
 3576 00cd 49       		.uleb128 0x49
 3577 00ce 13       		.uleb128 0x13
 3578 00cf 00       		.byte	0
 3579 00d0 00       		.byte	0
 3580 00d1 12       		.uleb128 0x12
 3581 00d2 26       		.uleb128 0x26
 3582 00d3 00       		.byte	0
 3583 00d4 49       		.uleb128 0x49
 3584 00d5 13       		.uleb128 0x13
 3585 00d6 00       		.byte	0
 3586 00d7 00       		.byte	0
 3587 00d8 13       		.uleb128 0x13
 3588 00d9 2E       		.uleb128 0x2e
 3589 00da 01       		.byte	0x1
 3590 00db 3F       		.uleb128 0x3f
 3591 00dc 0C       		.uleb128 0xc
 3592 00dd 03       		.uleb128 0x3
 3593 00de 0E       		.uleb128 0xe
 3594 00df 3A       		.uleb128 0x3a
 3595 00e0 0B       		.uleb128 0xb
 3596 00e1 3B       		.uleb128 0x3b
 3597 00e2 0B       		.uleb128 0xb
 3598 00e3 27       		.uleb128 0x27
 3599 00e4 0C       		.uleb128 0xc
 3600 00e5 20       		.uleb128 0x20
 3601 00e6 0B       		.uleb128 0xb
 3602 00e7 01       		.uleb128 0x1
 3603 00e8 13       		.uleb128 0x13
 3604 00e9 00       		.byte	0
 3605 00ea 00       		.byte	0
 3606 00eb 14       		.uleb128 0x14
 3607 00ec 05       		.uleb128 0x5
ARM GAS  /tmp/ccevInyS.s 			page 65


 3608 00ed 00       		.byte	0
 3609 00ee 03       		.uleb128 0x3
 3610 00ef 08       		.uleb128 0x8
 3611 00f0 3A       		.uleb128 0x3a
 3612 00f1 0B       		.uleb128 0xb
 3613 00f2 3B       		.uleb128 0x3b
 3614 00f3 0B       		.uleb128 0xb
 3615 00f4 49       		.uleb128 0x49
 3616 00f5 13       		.uleb128 0x13
 3617 00f6 00       		.byte	0
 3618 00f7 00       		.byte	0
 3619 00f8 15       		.uleb128 0x15
 3620 00f9 05       		.uleb128 0x5
 3621 00fa 00       		.byte	0
 3622 00fb 03       		.uleb128 0x3
 3623 00fc 0E       		.uleb128 0xe
 3624 00fd 3A       		.uleb128 0x3a
 3625 00fe 0B       		.uleb128 0xb
 3626 00ff 3B       		.uleb128 0x3b
 3627 0100 0B       		.uleb128 0xb
 3628 0101 49       		.uleb128 0x49
 3629 0102 13       		.uleb128 0x13
 3630 0103 00       		.byte	0
 3631 0104 00       		.byte	0
 3632 0105 16       		.uleb128 0x16
 3633 0106 2E       		.uleb128 0x2e
 3634 0107 01       		.byte	0x1
 3635 0108 3F       		.uleb128 0x3f
 3636 0109 0C       		.uleb128 0xc
 3637 010a 03       		.uleb128 0x3
 3638 010b 0E       		.uleb128 0xe
 3639 010c 3A       		.uleb128 0x3a
 3640 010d 0B       		.uleb128 0xb
 3641 010e 3B       		.uleb128 0x3b
 3642 010f 0B       		.uleb128 0xb
 3643 0110 27       		.uleb128 0x27
 3644 0111 0C       		.uleb128 0xc
 3645 0112 11       		.uleb128 0x11
 3646 0113 01       		.uleb128 0x1
 3647 0114 12       		.uleb128 0x12
 3648 0115 01       		.uleb128 0x1
 3649 0116 40       		.uleb128 0x40
 3650 0117 06       		.uleb128 0x6
 3651 0118 9742     		.uleb128 0x2117
 3652 011a 0C       		.uleb128 0xc
 3653 011b 01       		.uleb128 0x1
 3654 011c 13       		.uleb128 0x13
 3655 011d 00       		.byte	0
 3656 011e 00       		.byte	0
 3657 011f 17       		.uleb128 0x17
 3658 0120 05       		.uleb128 0x5
 3659 0121 00       		.byte	0
 3660 0122 03       		.uleb128 0x3
 3661 0123 08       		.uleb128 0x8
 3662 0124 3A       		.uleb128 0x3a
 3663 0125 0B       		.uleb128 0xb
 3664 0126 3B       		.uleb128 0x3b
ARM GAS  /tmp/ccevInyS.s 			page 66


 3665 0127 0B       		.uleb128 0xb
 3666 0128 49       		.uleb128 0x49
 3667 0129 13       		.uleb128 0x13
 3668 012a 02       		.uleb128 0x2
 3669 012b 06       		.uleb128 0x6
 3670 012c 00       		.byte	0
 3671 012d 00       		.byte	0
 3672 012e 18       		.uleb128 0x18
 3673 012f 05       		.uleb128 0x5
 3674 0130 00       		.byte	0
 3675 0131 03       		.uleb128 0x3
 3676 0132 0E       		.uleb128 0xe
 3677 0133 3A       		.uleb128 0x3a
 3678 0134 0B       		.uleb128 0xb
 3679 0135 3B       		.uleb128 0x3b
 3680 0136 0B       		.uleb128 0xb
 3681 0137 49       		.uleb128 0x49
 3682 0138 13       		.uleb128 0x13
 3683 0139 02       		.uleb128 0x2
 3684 013a 06       		.uleb128 0x6
 3685 013b 00       		.byte	0
 3686 013c 00       		.byte	0
 3687 013d 19       		.uleb128 0x19
 3688 013e 0B       		.uleb128 0xb
 3689 013f 01       		.byte	0x1
 3690 0140 11       		.uleb128 0x11
 3691 0141 01       		.uleb128 0x1
 3692 0142 12       		.uleb128 0x12
 3693 0143 01       		.uleb128 0x1
 3694 0144 01       		.uleb128 0x1
 3695 0145 13       		.uleb128 0x13
 3696 0146 00       		.byte	0
 3697 0147 00       		.byte	0
 3698 0148 1A       		.uleb128 0x1a
 3699 0149 34       		.uleb128 0x34
 3700 014a 00       		.byte	0
 3701 014b 03       		.uleb128 0x3
 3702 014c 08       		.uleb128 0x8
 3703 014d 3A       		.uleb128 0x3a
 3704 014e 0B       		.uleb128 0xb
 3705 014f 3B       		.uleb128 0x3b
 3706 0150 0B       		.uleb128 0xb
 3707 0151 49       		.uleb128 0x49
 3708 0152 13       		.uleb128 0x13
 3709 0153 02       		.uleb128 0x2
 3710 0154 06       		.uleb128 0x6
 3711 0155 00       		.byte	0
 3712 0156 00       		.byte	0
 3713 0157 1B       		.uleb128 0x1b
 3714 0158 898201   		.uleb128 0x4109
 3715 015b 00       		.byte	0
 3716 015c 11       		.uleb128 0x11
 3717 015d 01       		.uleb128 0x1
 3718 015e 31       		.uleb128 0x31
 3719 015f 13       		.uleb128 0x13
 3720 0160 00       		.byte	0
 3721 0161 00       		.byte	0
ARM GAS  /tmp/ccevInyS.s 			page 67


 3722 0162 1C       		.uleb128 0x1c
 3723 0163 898201   		.uleb128 0x4109
 3724 0166 01       		.byte	0x1
 3725 0167 11       		.uleb128 0x11
 3726 0168 01       		.uleb128 0x1
 3727 0169 31       		.uleb128 0x31
 3728 016a 13       		.uleb128 0x13
 3729 016b 00       		.byte	0
 3730 016c 00       		.byte	0
 3731 016d 1D       		.uleb128 0x1d
 3732 016e 8A8201   		.uleb128 0x410a
 3733 0171 00       		.byte	0
 3734 0172 02       		.uleb128 0x2
 3735 0173 0A       		.uleb128 0xa
 3736 0174 9142     		.uleb128 0x2111
 3737 0176 0A       		.uleb128 0xa
 3738 0177 00       		.byte	0
 3739 0178 00       		.byte	0
 3740 0179 1E       		.uleb128 0x1e
 3741 017a 2E       		.uleb128 0x2e
 3742 017b 01       		.byte	0x1
 3743 017c 3F       		.uleb128 0x3f
 3744 017d 0C       		.uleb128 0xc
 3745 017e 03       		.uleb128 0x3
 3746 017f 0E       		.uleb128 0xe
 3747 0180 3A       		.uleb128 0x3a
 3748 0181 0B       		.uleb128 0xb
 3749 0182 3B       		.uleb128 0x3b
 3750 0183 0B       		.uleb128 0xb
 3751 0184 27       		.uleb128 0x27
 3752 0185 0C       		.uleb128 0xc
 3753 0186 49       		.uleb128 0x49
 3754 0187 13       		.uleb128 0x13
 3755 0188 11       		.uleb128 0x11
 3756 0189 01       		.uleb128 0x1
 3757 018a 12       		.uleb128 0x12
 3758 018b 01       		.uleb128 0x1
 3759 018c 40       		.uleb128 0x40
 3760 018d 06       		.uleb128 0x6
 3761 018e 9742     		.uleb128 0x2117
 3762 0190 0C       		.uleb128 0xc
 3763 0191 01       		.uleb128 0x1
 3764 0192 13       		.uleb128 0x13
 3765 0193 00       		.byte	0
 3766 0194 00       		.byte	0
 3767 0195 1F       		.uleb128 0x1f
 3768 0196 34       		.uleb128 0x34
 3769 0197 00       		.byte	0
 3770 0198 03       		.uleb128 0x3
 3771 0199 08       		.uleb128 0x8
 3772 019a 3A       		.uleb128 0x3a
 3773 019b 0B       		.uleb128 0xb
 3774 019c 3B       		.uleb128 0x3b
 3775 019d 0B       		.uleb128 0xb
 3776 019e 49       		.uleb128 0x49
 3777 019f 13       		.uleb128 0x13
 3778 01a0 02       		.uleb128 0x2
ARM GAS  /tmp/ccevInyS.s 			page 68


 3779 01a1 0A       		.uleb128 0xa
 3780 01a2 00       		.byte	0
 3781 01a3 00       		.byte	0
 3782 01a4 20       		.uleb128 0x20
 3783 01a5 0B       		.uleb128 0xb
 3784 01a6 01       		.byte	0x1
 3785 01a7 55       		.uleb128 0x55
 3786 01a8 06       		.uleb128 0x6
 3787 01a9 01       		.uleb128 0x1
 3788 01aa 13       		.uleb128 0x13
 3789 01ab 00       		.byte	0
 3790 01ac 00       		.byte	0
 3791 01ad 21       		.uleb128 0x21
 3792 01ae 34       		.uleb128 0x34
 3793 01af 00       		.byte	0
 3794 01b0 03       		.uleb128 0x3
 3795 01b1 0E       		.uleb128 0xe
 3796 01b2 3A       		.uleb128 0x3a
 3797 01b3 0B       		.uleb128 0xb
 3798 01b4 3B       		.uleb128 0x3b
 3799 01b5 0B       		.uleb128 0xb
 3800 01b6 49       		.uleb128 0x49
 3801 01b7 13       		.uleb128 0x13
 3802 01b8 02       		.uleb128 0x2
 3803 01b9 0A       		.uleb128 0xa
 3804 01ba 00       		.byte	0
 3805 01bb 00       		.byte	0
 3806 01bc 22       		.uleb128 0x22
 3807 01bd 2E       		.uleb128 0x2e
 3808 01be 01       		.byte	0x1
 3809 01bf 31       		.uleb128 0x31
 3810 01c0 13       		.uleb128 0x13
 3811 01c1 11       		.uleb128 0x11
 3812 01c2 01       		.uleb128 0x1
 3813 01c3 12       		.uleb128 0x12
 3814 01c4 01       		.uleb128 0x1
 3815 01c5 40       		.uleb128 0x40
 3816 01c6 06       		.uleb128 0x6
 3817 01c7 9742     		.uleb128 0x2117
 3818 01c9 0C       		.uleb128 0xc
 3819 01ca 01       		.uleb128 0x1
 3820 01cb 13       		.uleb128 0x13
 3821 01cc 00       		.byte	0
 3822 01cd 00       		.byte	0
 3823 01ce 23       		.uleb128 0x23
 3824 01cf 05       		.uleb128 0x5
 3825 01d0 00       		.byte	0
 3826 01d1 31       		.uleb128 0x31
 3827 01d2 13       		.uleb128 0x13
 3828 01d3 02       		.uleb128 0x2
 3829 01d4 06       		.uleb128 0x6
 3830 01d5 00       		.byte	0
 3831 01d6 00       		.byte	0
 3832 01d7 24       		.uleb128 0x24
 3833 01d8 1D       		.uleb128 0x1d
 3834 01d9 01       		.byte	0x1
 3835 01da 31       		.uleb128 0x31
ARM GAS  /tmp/ccevInyS.s 			page 69


 3836 01db 13       		.uleb128 0x13
 3837 01dc 11       		.uleb128 0x11
 3838 01dd 01       		.uleb128 0x1
 3839 01de 12       		.uleb128 0x12
 3840 01df 01       		.uleb128 0x1
 3841 01e0 58       		.uleb128 0x58
 3842 01e1 0B       		.uleb128 0xb
 3843 01e2 59       		.uleb128 0x59
 3844 01e3 0B       		.uleb128 0xb
 3845 01e4 01       		.uleb128 0x1
 3846 01e5 13       		.uleb128 0x13
 3847 01e6 00       		.byte	0
 3848 01e7 00       		.byte	0
 3849 01e8 25       		.uleb128 0x25
 3850 01e9 0B       		.uleb128 0xb
 3851 01ea 01       		.byte	0x1
 3852 01eb 11       		.uleb128 0x11
 3853 01ec 01       		.uleb128 0x1
 3854 01ed 12       		.uleb128 0x12
 3855 01ee 01       		.uleb128 0x1
 3856 01ef 00       		.byte	0
 3857 01f0 00       		.byte	0
 3858 01f1 26       		.uleb128 0x26
 3859 01f2 05       		.uleb128 0x5
 3860 01f3 00       		.byte	0
 3861 01f4 31       		.uleb128 0x31
 3862 01f5 13       		.uleb128 0x13
 3863 01f6 00       		.byte	0
 3864 01f7 00       		.byte	0
 3865 01f8 27       		.uleb128 0x27
 3866 01f9 898201   		.uleb128 0x4109
 3867 01fc 01       		.byte	0x1
 3868 01fd 11       		.uleb128 0x11
 3869 01fe 01       		.uleb128 0x1
 3870 01ff 31       		.uleb128 0x31
 3871 0200 13       		.uleb128 0x13
 3872 0201 01       		.uleb128 0x1
 3873 0202 13       		.uleb128 0x13
 3874 0203 00       		.byte	0
 3875 0204 00       		.byte	0
 3876 0205 28       		.uleb128 0x28
 3877 0206 2E       		.uleb128 0x2e
 3878 0207 01       		.byte	0x1
 3879 0208 3F       		.uleb128 0x3f
 3880 0209 0C       		.uleb128 0xc
 3881 020a 03       		.uleb128 0x3
 3882 020b 0E       		.uleb128 0xe
 3883 020c 3A       		.uleb128 0x3a
 3884 020d 0B       		.uleb128 0xb
 3885 020e 3B       		.uleb128 0x3b
 3886 020f 05       		.uleb128 0x5
 3887 0210 27       		.uleb128 0x27
 3888 0211 0C       		.uleb128 0xc
 3889 0212 11       		.uleb128 0x11
 3890 0213 01       		.uleb128 0x1
 3891 0214 12       		.uleb128 0x12
 3892 0215 01       		.uleb128 0x1
ARM GAS  /tmp/ccevInyS.s 			page 70


 3893 0216 40       		.uleb128 0x40
 3894 0217 06       		.uleb128 0x6
 3895 0218 9742     		.uleb128 0x2117
 3896 021a 0C       		.uleb128 0xc
 3897 021b 01       		.uleb128 0x1
 3898 021c 13       		.uleb128 0x13
 3899 021d 00       		.byte	0
 3900 021e 00       		.byte	0
 3901 021f 29       		.uleb128 0x29
 3902 0220 05       		.uleb128 0x5
 3903 0221 00       		.byte	0
 3904 0222 03       		.uleb128 0x3
 3905 0223 08       		.uleb128 0x8
 3906 0224 3A       		.uleb128 0x3a
 3907 0225 0B       		.uleb128 0xb
 3908 0226 3B       		.uleb128 0x3b
 3909 0227 05       		.uleb128 0x5
 3910 0228 49       		.uleb128 0x49
 3911 0229 13       		.uleb128 0x13
 3912 022a 02       		.uleb128 0x2
 3913 022b 06       		.uleb128 0x6
 3914 022c 00       		.byte	0
 3915 022d 00       		.byte	0
 3916 022e 2A       		.uleb128 0x2a
 3917 022f 05       		.uleb128 0x5
 3918 0230 00       		.byte	0
 3919 0231 03       		.uleb128 0x3
 3920 0232 0E       		.uleb128 0xe
 3921 0233 3A       		.uleb128 0x3a
 3922 0234 0B       		.uleb128 0xb
 3923 0235 3B       		.uleb128 0x3b
 3924 0236 05       		.uleb128 0x5
 3925 0237 49       		.uleb128 0x49
 3926 0238 13       		.uleb128 0x13
 3927 0239 02       		.uleb128 0x2
 3928 023a 06       		.uleb128 0x6
 3929 023b 00       		.byte	0
 3930 023c 00       		.byte	0
 3931 023d 2B       		.uleb128 0x2b
 3932 023e 34       		.uleb128 0x34
 3933 023f 00       		.byte	0
 3934 0240 03       		.uleb128 0x3
 3935 0241 08       		.uleb128 0x8
 3936 0242 3A       		.uleb128 0x3a
 3937 0243 0B       		.uleb128 0xb
 3938 0244 3B       		.uleb128 0x3b
 3939 0245 05       		.uleb128 0x5
 3940 0246 49       		.uleb128 0x49
 3941 0247 13       		.uleb128 0x13
 3942 0248 02       		.uleb128 0x2
 3943 0249 06       		.uleb128 0x6
 3944 024a 00       		.byte	0
 3945 024b 00       		.byte	0
 3946 024c 2C       		.uleb128 0x2c
 3947 024d 2E       		.uleb128 0x2e
 3948 024e 01       		.byte	0x1
 3949 024f 3F       		.uleb128 0x3f
ARM GAS  /tmp/ccevInyS.s 			page 71


 3950 0250 0C       		.uleb128 0xc
 3951 0251 03       		.uleb128 0x3
 3952 0252 0E       		.uleb128 0xe
 3953 0253 3A       		.uleb128 0x3a
 3954 0254 0B       		.uleb128 0xb
 3955 0255 3B       		.uleb128 0x3b
 3956 0256 05       		.uleb128 0x5
 3957 0257 27       		.uleb128 0x27
 3958 0258 0C       		.uleb128 0xc
 3959 0259 49       		.uleb128 0x49
 3960 025a 13       		.uleb128 0x13
 3961 025b 11       		.uleb128 0x11
 3962 025c 01       		.uleb128 0x1
 3963 025d 12       		.uleb128 0x12
 3964 025e 01       		.uleb128 0x1
 3965 025f 40       		.uleb128 0x40
 3966 0260 0A       		.uleb128 0xa
 3967 0261 9742     		.uleb128 0x2117
 3968 0263 0C       		.uleb128 0xc
 3969 0264 01       		.uleb128 0x1
 3970 0265 13       		.uleb128 0x13
 3971 0266 00       		.byte	0
 3972 0267 00       		.byte	0
 3973 0268 2D       		.uleb128 0x2d
 3974 0269 34       		.uleb128 0x34
 3975 026a 00       		.byte	0
 3976 026b 03       		.uleb128 0x3
 3977 026c 0E       		.uleb128 0xe
 3978 026d 3A       		.uleb128 0x3a
 3979 026e 0B       		.uleb128 0xb
 3980 026f 3B       		.uleb128 0x3b
 3981 0270 05       		.uleb128 0x5
 3982 0271 49       		.uleb128 0x49
 3983 0272 13       		.uleb128 0x13
 3984 0273 02       		.uleb128 0x2
 3985 0274 0A       		.uleb128 0xa
 3986 0275 00       		.byte	0
 3987 0276 00       		.byte	0
 3988 0277 2E       		.uleb128 0x2e
 3989 0278 898201   		.uleb128 0x4109
 3990 027b 01       		.byte	0x1
 3991 027c 11       		.uleb128 0x11
 3992 027d 01       		.uleb128 0x1
 3993 027e 01       		.uleb128 0x1
 3994 027f 13       		.uleb128 0x13
 3995 0280 00       		.byte	0
 3996 0281 00       		.byte	0
 3997 0282 2F       		.uleb128 0x2f
 3998 0283 2E       		.uleb128 0x2e
 3999 0284 01       		.byte	0x1
 4000 0285 3F       		.uleb128 0x3f
 4001 0286 0C       		.uleb128 0xc
 4002 0287 03       		.uleb128 0x3
 4003 0288 0E       		.uleb128 0xe
 4004 0289 3A       		.uleb128 0x3a
 4005 028a 0B       		.uleb128 0xb
 4006 028b 3B       		.uleb128 0x3b
ARM GAS  /tmp/ccevInyS.s 			page 72


 4007 028c 05       		.uleb128 0x5
 4008 028d 27       		.uleb128 0x27
 4009 028e 0C       		.uleb128 0xc
 4010 028f 49       		.uleb128 0x49
 4011 0290 13       		.uleb128 0x13
 4012 0291 11       		.uleb128 0x11
 4013 0292 01       		.uleb128 0x1
 4014 0293 12       		.uleb128 0x12
 4015 0294 01       		.uleb128 0x1
 4016 0295 40       		.uleb128 0x40
 4017 0296 06       		.uleb128 0x6
 4018 0297 9742     		.uleb128 0x2117
 4019 0299 0C       		.uleb128 0xc
 4020 029a 01       		.uleb128 0x1
 4021 029b 13       		.uleb128 0x13
 4022 029c 00       		.byte	0
 4023 029d 00       		.byte	0
 4024 029e 30       		.uleb128 0x30
 4025 029f 34       		.uleb128 0x34
 4026 02a0 00       		.byte	0
 4027 02a1 03       		.uleb128 0x3
 4028 02a2 08       		.uleb128 0x8
 4029 02a3 3A       		.uleb128 0x3a
 4030 02a4 0B       		.uleb128 0xb
 4031 02a5 3B       		.uleb128 0x3b
 4032 02a6 05       		.uleb128 0x5
 4033 02a7 49       		.uleb128 0x49
 4034 02a8 13       		.uleb128 0x13
 4035 02a9 02       		.uleb128 0x2
 4036 02aa 0A       		.uleb128 0xa
 4037 02ab 00       		.byte	0
 4038 02ac 00       		.byte	0
 4039 02ad 31       		.uleb128 0x31
 4040 02ae 34       		.uleb128 0x34
 4041 02af 00       		.byte	0
 4042 02b0 03       		.uleb128 0x3
 4043 02b1 0E       		.uleb128 0xe
 4044 02b2 3A       		.uleb128 0x3a
 4045 02b3 0B       		.uleb128 0xb
 4046 02b4 3B       		.uleb128 0x3b
 4047 02b5 0B       		.uleb128 0xb
 4048 02b6 49       		.uleb128 0x49
 4049 02b7 13       		.uleb128 0x13
 4050 02b8 3F       		.uleb128 0x3f
 4051 02b9 0C       		.uleb128 0xc
 4052 02ba 3C       		.uleb128 0x3c
 4053 02bb 0C       		.uleb128 0xc
 4054 02bc 00       		.byte	0
 4055 02bd 00       		.byte	0
 4056 02be 32       		.uleb128 0x32
 4057 02bf 2E       		.uleb128 0x2e
 4058 02c0 00       		.byte	0
 4059 02c1 3F       		.uleb128 0x3f
 4060 02c2 0C       		.uleb128 0xc
 4061 02c3 03       		.uleb128 0x3
 4062 02c4 0E       		.uleb128 0xe
 4063 02c5 3A       		.uleb128 0x3a
ARM GAS  /tmp/ccevInyS.s 			page 73


 4064 02c6 0B       		.uleb128 0xb
 4065 02c7 3B       		.uleb128 0x3b
 4066 02c8 0B       		.uleb128 0xb
 4067 02c9 27       		.uleb128 0x27
 4068 02ca 0C       		.uleb128 0xc
 4069 02cb 3C       		.uleb128 0x3c
 4070 02cc 0C       		.uleb128 0xc
 4071 02cd 00       		.byte	0
 4072 02ce 00       		.byte	0
 4073 02cf 33       		.uleb128 0x33
 4074 02d0 2E       		.uleb128 0x2e
 4075 02d1 01       		.byte	0x1
 4076 02d2 3F       		.uleb128 0x3f
 4077 02d3 0C       		.uleb128 0xc
 4078 02d4 03       		.uleb128 0x3
 4079 02d5 0E       		.uleb128 0xe
 4080 02d6 3A       		.uleb128 0x3a
 4081 02d7 0B       		.uleb128 0xb
 4082 02d8 3B       		.uleb128 0x3b
 4083 02d9 0B       		.uleb128 0xb
 4084 02da 27       		.uleb128 0x27
 4085 02db 0C       		.uleb128 0xc
 4086 02dc 3C       		.uleb128 0x3c
 4087 02dd 0C       		.uleb128 0xc
 4088 02de 01       		.uleb128 0x1
 4089 02df 13       		.uleb128 0x13
 4090 02e0 00       		.byte	0
 4091 02e1 00       		.byte	0
 4092 02e2 34       		.uleb128 0x34
 4093 02e3 2E       		.uleb128 0x2e
 4094 02e4 01       		.byte	0x1
 4095 02e5 3F       		.uleb128 0x3f
 4096 02e6 0C       		.uleb128 0xc
 4097 02e7 03       		.uleb128 0x3
 4098 02e8 0E       		.uleb128 0xe
 4099 02e9 3A       		.uleb128 0x3a
 4100 02ea 0B       		.uleb128 0xb
 4101 02eb 3B       		.uleb128 0x3b
 4102 02ec 0B       		.uleb128 0xb
 4103 02ed 27       		.uleb128 0x27
 4104 02ee 0C       		.uleb128 0xc
 4105 02ef 49       		.uleb128 0x49
 4106 02f0 13       		.uleb128 0x13
 4107 02f1 3C       		.uleb128 0x3c
 4108 02f2 0C       		.uleb128 0xc
 4109 02f3 01       		.uleb128 0x1
 4110 02f4 13       		.uleb128 0x13
 4111 02f5 00       		.byte	0
 4112 02f6 00       		.byte	0
 4113 02f7 35       		.uleb128 0x35
 4114 02f8 2E       		.uleb128 0x2e
 4115 02f9 01       		.byte	0x1
 4116 02fa 3F       		.uleb128 0x3f
 4117 02fb 0C       		.uleb128 0xc
 4118 02fc 03       		.uleb128 0x3
 4119 02fd 0E       		.uleb128 0xe
 4120 02fe 3A       		.uleb128 0x3a
ARM GAS  /tmp/ccevInyS.s 			page 74


 4121 02ff 0B       		.uleb128 0xb
 4122 0300 3B       		.uleb128 0x3b
 4123 0301 0B       		.uleb128 0xb
 4124 0302 27       		.uleb128 0x27
 4125 0303 0C       		.uleb128 0xc
 4126 0304 49       		.uleb128 0x49
 4127 0305 13       		.uleb128 0x13
 4128 0306 3C       		.uleb128 0x3c
 4129 0307 0C       		.uleb128 0xc
 4130 0308 00       		.byte	0
 4131 0309 00       		.byte	0
 4132 030a 00       		.byte	0
 4133              		.section	.debug_loc,"",%progbits
 4134              	.Ldebug_loc0:
 4135              	.LLST0:
 4136 0000 00000000 		.4byte	.LFB7
 4137 0004 02000000 		.4byte	.LCFI0
 4138 0008 0200     		.2byte	0x2
 4139 000a 7D       		.byte	0x7d
 4140 000b 00       		.sleb128 0
 4141 000c 02000000 		.4byte	.LCFI0
 4142 0010 44000000 		.4byte	.LFE7
 4143 0014 0200     		.2byte	0x2
 4144 0016 7D       		.byte	0x7d
 4145 0017 18       		.sleb128 24
 4146 0018 00000000 		.4byte	0
 4147 001c 00000000 		.4byte	0
 4148              	.LLST1:
 4149 0020 00000000 		.4byte	.LVL0
 4150 0024 0C000000 		.4byte	.LVL1
 4151 0028 0100     		.2byte	0x1
 4152 002a 50       		.byte	0x50
 4153 002b 0C000000 		.4byte	.LVL1
 4154 002f 34000000 		.4byte	.LVL8
 4155 0033 0100     		.2byte	0x1
 4156 0035 55       		.byte	0x55
 4157 0036 34000000 		.4byte	.LVL8
 4158 003a 36000000 		.4byte	.LVL9
 4159 003e 0100     		.2byte	0x1
 4160 0040 50       		.byte	0x50
 4161 0041 36000000 		.4byte	.LVL9
 4162 0045 44000000 		.4byte	.LFE7
 4163 0049 0100     		.2byte	0x1
 4164 004b 55       		.byte	0x55
 4165 004c 00000000 		.4byte	0
 4166 0050 00000000 		.4byte	0
 4167              	.LLST2:
 4168 0054 00000000 		.4byte	.LVL0
 4169 0058 0C000000 		.4byte	.LVL1
 4170 005c 0100     		.2byte	0x1
 4171 005e 51       		.byte	0x51
 4172 005f 0C000000 		.4byte	.LVL1
 4173 0063 34000000 		.4byte	.LVL8
 4174 0067 0100     		.2byte	0x1
 4175 0069 54       		.byte	0x54
 4176 006a 34000000 		.4byte	.LVL8
 4177 006e 39000000 		.4byte	.LVL10-1
ARM GAS  /tmp/ccevInyS.s 			page 75


 4178 0072 0100     		.2byte	0x1
 4179 0074 51       		.byte	0x51
 4180 0075 39000000 		.4byte	.LVL10-1
 4181 0079 44000000 		.4byte	.LFE7
 4182 007d 0100     		.2byte	0x1
 4183 007f 54       		.byte	0x54
 4184 0080 00000000 		.4byte	0
 4185 0084 00000000 		.4byte	0
 4186              	.LLST3:
 4187 0088 00000000 		.4byte	.LVL0
 4188 008c 0C000000 		.4byte	.LVL1
 4189 0090 0100     		.2byte	0x1
 4190 0092 52       		.byte	0x52
 4191 0093 0C000000 		.4byte	.LVL1
 4192 0097 34000000 		.4byte	.LVL8
 4193 009b 0100     		.2byte	0x1
 4194 009d 57       		.byte	0x57
 4195 009e 34000000 		.4byte	.LVL8
 4196 00a2 39000000 		.4byte	.LVL10-1
 4197 00a6 0100     		.2byte	0x1
 4198 00a8 52       		.byte	0x52
 4199 00a9 39000000 		.4byte	.LVL10-1
 4200 00ad 44000000 		.4byte	.LFE7
 4201 00b1 0100     		.2byte	0x1
 4202 00b3 57       		.byte	0x57
 4203 00b4 00000000 		.4byte	0
 4204 00b8 00000000 		.4byte	0
 4205              	.LLST4:
 4206 00bc 12000000 		.4byte	.LVL3
 4207 00c0 15000000 		.4byte	.LVL4-1
 4208 00c4 0100     		.2byte	0x1
 4209 00c6 53       		.byte	0x53
 4210 00c7 00000000 		.4byte	0
 4211 00cb 00000000 		.4byte	0
 4212              	.LLST5:
 4213 00cf 32000000 		.4byte	.LVL7
 4214 00d3 34000000 		.4byte	.LVL8
 4215 00d7 0100     		.2byte	0x1
 4216 00d9 53       		.byte	0x53
 4217 00da 00000000 		.4byte	0
 4218 00de 00000000 		.4byte	0
 4219              	.LLST6:
 4220 00e2 00000000 		.4byte	.LFB8
 4221 00e6 02000000 		.4byte	.LCFI1
 4222 00ea 0200     		.2byte	0x2
 4223 00ec 7D       		.byte	0x7d
 4224 00ed 00       		.sleb128 0
 4225 00ee 02000000 		.4byte	.LCFI1
 4226 00f2 40000000 		.4byte	.LFE8
 4227 00f6 0200     		.2byte	0x2
 4228 00f8 7D       		.byte	0x7d
 4229 00f9 10       		.sleb128 16
 4230 00fa 00000000 		.4byte	0
 4231 00fe 00000000 		.4byte	0
 4232              	.LLST7:
 4233 0102 00000000 		.4byte	.LVL11
 4234 0106 0A000000 		.4byte	.LVL12
ARM GAS  /tmp/ccevInyS.s 			page 76


 4235 010a 0100     		.2byte	0x1
 4236 010c 50       		.byte	0x50
 4237 010d 0A000000 		.4byte	.LVL12
 4238 0111 34000000 		.4byte	.LVL21
 4239 0115 0100     		.2byte	0x1
 4240 0117 54       		.byte	0x54
 4241 0118 34000000 		.4byte	.LVL21
 4242 011c 36000000 		.4byte	.LVL22
 4243 0120 0100     		.2byte	0x1
 4244 0122 50       		.byte	0x50
 4245 0123 36000000 		.4byte	.LVL22
 4246 0127 40000000 		.4byte	.LFE8
 4247 012b 0100     		.2byte	0x1
 4248 012d 54       		.byte	0x54
 4249 012e 00000000 		.4byte	0
 4250 0132 00000000 		.4byte	0
 4251              	.LLST8:
 4252 0136 00000000 		.4byte	.LVL11
 4253 013a 0A000000 		.4byte	.LVL12
 4254 013e 0100     		.2byte	0x1
 4255 0140 51       		.byte	0x51
 4256 0141 0A000000 		.4byte	.LVL12
 4257 0145 34000000 		.4byte	.LVL21
 4258 0149 0100     		.2byte	0x1
 4259 014b 55       		.byte	0x55
 4260 014c 34000000 		.4byte	.LVL21
 4261 0150 39000000 		.4byte	.LVL23-1
 4262 0154 0100     		.2byte	0x1
 4263 0156 51       		.byte	0x51
 4264 0157 39000000 		.4byte	.LVL23-1
 4265 015b 40000000 		.4byte	.LFE8
 4266 015f 0100     		.2byte	0x1
 4267 0161 55       		.byte	0x55
 4268 0162 00000000 		.4byte	0
 4269 0166 00000000 		.4byte	0
 4270              	.LLST9:
 4271 016a 0A000000 		.4byte	.LVL12
 4272 016e 18000000 		.4byte	.LVL16
 4273 0172 0100     		.2byte	0x1
 4274 0174 54       		.byte	0x54
 4275 0175 18000000 		.4byte	.LVL16
 4276 0179 2B000000 		.4byte	.LVL18-1
 4277 017d 0100     		.2byte	0x1
 4278 017f 52       		.byte	0x52
 4279 0180 00000000 		.4byte	0
 4280 0184 00000000 		.4byte	0
 4281              	.LLST10:
 4282 0188 10000000 		.4byte	.LVL14
 4283 018c 13000000 		.4byte	.LVL15-1
 4284 0190 0100     		.2byte	0x1
 4285 0192 53       		.byte	0x53
 4286 0193 00000000 		.4byte	0
 4287 0197 00000000 		.4byte	0
 4288              	.LLST11:
 4289 019b 32000000 		.4byte	.LVL20
 4290 019f 34000000 		.4byte	.LVL21
 4291 01a3 0100     		.2byte	0x1
ARM GAS  /tmp/ccevInyS.s 			page 77


 4292 01a5 53       		.byte	0x53
 4293 01a6 00000000 		.4byte	0
 4294 01aa 00000000 		.4byte	0
 4295              	.LLST12:
 4296 01ae 00000000 		.4byte	.LFB9
 4297 01b2 02000000 		.4byte	.LCFI2
 4298 01b6 0200     		.2byte	0x2
 4299 01b8 7D       		.byte	0x7d
 4300 01b9 00       		.sleb128 0
 4301 01ba 02000000 		.4byte	.LCFI2
 4302 01be 30000000 		.4byte	.LFE9
 4303 01c2 0200     		.2byte	0x2
 4304 01c4 7D       		.byte	0x7d
 4305 01c5 08       		.sleb128 8
 4306 01c6 00000000 		.4byte	0
 4307 01ca 00000000 		.4byte	0
 4308              	.LLST13:
 4309 01ce 00000000 		.4byte	.LVL24
 4310 01d2 0D000000 		.4byte	.LVL27-1
 4311 01d6 0100     		.2byte	0x1
 4312 01d8 50       		.byte	0x50
 4313 01d9 0D000000 		.4byte	.LVL27-1
 4314 01dd 22000000 		.4byte	.LVL28
 4315 01e1 0100     		.2byte	0x1
 4316 01e3 54       		.byte	0x54
 4317 01e4 22000000 		.4byte	.LVL28
 4318 01e8 30000000 		.4byte	.LFE9
 4319 01ec 0400     		.2byte	0x4
 4320 01ee F3       		.byte	0xf3
 4321 01ef 01       		.uleb128 0x1
 4322 01f0 50       		.byte	0x50
 4323 01f1 9F       		.byte	0x9f
 4324 01f2 00000000 		.4byte	0
 4325 01f6 00000000 		.4byte	0
 4326              	.LLST14:
 4327 01fa 0A000000 		.4byte	.LVL26
 4328 01fe 0D000000 		.4byte	.LVL27-1
 4329 0202 0100     		.2byte	0x1
 4330 0204 53       		.byte	0x53
 4331 0205 00000000 		.4byte	0
 4332 0209 00000000 		.4byte	0
 4333              	.LLST15:
 4334 020d 2C000000 		.4byte	.LVL31
 4335 0211 30000000 		.4byte	.LFE9
 4336 0215 0100     		.2byte	0x1
 4337 0217 53       		.byte	0x53
 4338 0218 00000000 		.4byte	0
 4339 021c 00000000 		.4byte	0
 4340              	.LLST16:
 4341 0220 00000000 		.4byte	.LFB10
 4342 0224 02000000 		.4byte	.LCFI3
 4343 0228 0200     		.2byte	0x2
 4344 022a 7D       		.byte	0x7d
 4345 022b 00       		.sleb128 0
 4346 022c 02000000 		.4byte	.LCFI3
 4347 0230 2C000000 		.4byte	.LFE10
 4348 0234 0200     		.2byte	0x2
ARM GAS  /tmp/ccevInyS.s 			page 78


 4349 0236 7D       		.byte	0x7d
 4350 0237 08       		.sleb128 8
 4351 0238 00000000 		.4byte	0
 4352 023c 00000000 		.4byte	0
 4353              	.LLST17:
 4354 0240 00000000 		.4byte	.LVL32
 4355 0244 0D000000 		.4byte	.LVL35-1
 4356 0248 0100     		.2byte	0x1
 4357 024a 50       		.byte	0x50
 4358 024b 0D000000 		.4byte	.LVL35-1
 4359 024f 1C000000 		.4byte	.LVL36
 4360 0253 0100     		.2byte	0x1
 4361 0255 54       		.byte	0x54
 4362 0256 1C000000 		.4byte	.LVL36
 4363 025a 1E000000 		.4byte	.LVL37
 4364 025e 0400     		.2byte	0x4
 4365 0260 F3       		.byte	0xf3
 4366 0261 01       		.uleb128 0x1
 4367 0262 50       		.byte	0x50
 4368 0263 9F       		.byte	0x9f
 4369 0264 1E000000 		.4byte	.LVL37
 4370 0268 2C000000 		.4byte	.LFE10
 4371 026c 0100     		.2byte	0x1
 4372 026e 54       		.byte	0x54
 4373 026f 00000000 		.4byte	0
 4374 0273 00000000 		.4byte	0
 4375              	.LLST18:
 4376 0277 0A000000 		.4byte	.LVL34
 4377 027b 0D000000 		.4byte	.LVL35-1
 4378 027f 0100     		.2byte	0x1
 4379 0281 53       		.byte	0x53
 4380 0282 00000000 		.4byte	0
 4381 0286 00000000 		.4byte	0
 4382              	.LLST19:
 4383 028a 28000000 		.4byte	.LVL40
 4384 028e 2C000000 		.4byte	.LFE10
 4385 0292 0100     		.2byte	0x1
 4386 0294 53       		.byte	0x53
 4387 0295 00000000 		.4byte	0
 4388 0299 00000000 		.4byte	0
 4389              	.LLST20:
 4390 029d 00000000 		.4byte	.LFB12
 4391 02a1 02000000 		.4byte	.LCFI4
 4392 02a5 0200     		.2byte	0x2
 4393 02a7 7D       		.byte	0x7d
 4394 02a8 00       		.sleb128 0
 4395 02a9 02000000 		.4byte	.LCFI4
 4396 02ad 22000000 		.4byte	.LFE12
 4397 02b1 0200     		.2byte	0x2
 4398 02b3 7D       		.byte	0x7d
 4399 02b4 10       		.sleb128 16
 4400 02b5 00000000 		.4byte	0
 4401 02b9 00000000 		.4byte	0
 4402              	.LLST21:
 4403 02bd 00000000 		.4byte	.LVL41
 4404 02c1 0F000000 		.4byte	.LVL44-1
 4405 02c5 0100     		.2byte	0x1
ARM GAS  /tmp/ccevInyS.s 			page 79


 4406 02c7 50       		.byte	0x50
 4407 02c8 0F000000 		.4byte	.LVL44-1
 4408 02cc 22000000 		.4byte	.LFE12
 4409 02d0 0100     		.2byte	0x1
 4410 02d2 55       		.byte	0x55
 4411 02d3 00000000 		.4byte	0
 4412 02d7 00000000 		.4byte	0
 4413              	.LLST22:
 4414 02db 0A000000 		.4byte	.LVL43
 4415 02df 0F000000 		.4byte	.LVL44-1
 4416 02e3 0100     		.2byte	0x1
 4417 02e5 53       		.byte	0x53
 4418 02e6 00000000 		.4byte	0
 4419 02ea 00000000 		.4byte	0
 4420              	.LLST23:
 4421 02ee 1E000000 		.4byte	.LVL48
 4422 02f2 22000000 		.4byte	.LFE12
 4423 02f6 0100     		.2byte	0x1
 4424 02f8 53       		.byte	0x53
 4425 02f9 00000000 		.4byte	0
 4426 02fd 00000000 		.4byte	0
 4427              	.LLST24:
 4428 0301 00000000 		.4byte	.LFB14
 4429 0305 02000000 		.4byte	.LCFI5
 4430 0309 0200     		.2byte	0x2
 4431 030b 7D       		.byte	0x7d
 4432 030c 00       		.sleb128 0
 4433 030d 02000000 		.4byte	.LCFI5
 4434 0311 4C000000 		.4byte	.LFE14
 4435 0315 0200     		.2byte	0x2
 4436 0317 7D       		.byte	0x7d
 4437 0318 10       		.sleb128 16
 4438 0319 00000000 		.4byte	0
 4439 031d 00000000 		.4byte	0
 4440              	.LLST25:
 4441 0321 00000000 		.4byte	.LVL49
 4442 0325 09000000 		.4byte	.LVL50-1
 4443 0329 0100     		.2byte	0x1
 4444 032b 50       		.byte	0x50
 4445 032c 09000000 		.4byte	.LVL50-1
 4446 0330 4C000000 		.4byte	.LFE14
 4447 0334 0100     		.2byte	0x1
 4448 0336 54       		.byte	0x54
 4449 0337 00000000 		.4byte	0
 4450 033b 00000000 		.4byte	0
 4451              	.LLST26:
 4452 033f 00000000 		.4byte	.LVL49
 4453 0343 09000000 		.4byte	.LVL50-1
 4454 0347 0100     		.2byte	0x1
 4455 0349 51       		.byte	0x51
 4456 034a 09000000 		.4byte	.LVL50-1
 4457 034e 4C000000 		.4byte	.LFE14
 4458 0352 0100     		.2byte	0x1
 4459 0354 55       		.byte	0x55
 4460 0355 00000000 		.4byte	0
 4461 0359 00000000 		.4byte	0
 4462              	.LLST27:
ARM GAS  /tmp/ccevInyS.s 			page 80


 4463 035d 2A000000 		.4byte	.LVL51
 4464 0361 36000000 		.4byte	.LVL53
 4465 0365 0100     		.2byte	0x1
 4466 0367 54       		.byte	0x54
 4467 0368 00000000 		.4byte	0
 4468 036c 00000000 		.4byte	0
 4469              	.LLST28:
 4470 0370 00000000 		.4byte	.LFB13
 4471 0374 02000000 		.4byte	.LCFI6
 4472 0378 0200     		.2byte	0x2
 4473 037a 7D       		.byte	0x7d
 4474 037b 00       		.sleb128 0
 4475 037c 02000000 		.4byte	.LCFI6
 4476 0380 38000000 		.4byte	.LFE13
 4477 0384 0200     		.2byte	0x2
 4478 0386 7D       		.byte	0x7d
 4479 0387 10       		.sleb128 16
 4480 0388 00000000 		.4byte	0
 4481 038c 00000000 		.4byte	0
 4482              	.LLST29:
 4483 0390 00000000 		.4byte	.LVL55
 4484 0394 08000000 		.4byte	.LVL56
 4485 0398 0100     		.2byte	0x1
 4486 039a 50       		.byte	0x50
 4487 039b 08000000 		.4byte	.LVL56
 4488 039f 2A000000 		.4byte	.LVL65
 4489 03a3 0100     		.2byte	0x1
 4490 03a5 54       		.byte	0x54
 4491 03a6 2A000000 		.4byte	.LVL65
 4492 03aa 2C000000 		.4byte	.LVL66
 4493 03ae 0100     		.2byte	0x1
 4494 03b0 50       		.byte	0x50
 4495 03b1 2C000000 		.4byte	.LVL66
 4496 03b5 38000000 		.4byte	.LFE13
 4497 03b9 0100     		.2byte	0x1
 4498 03bb 54       		.byte	0x54
 4499 03bc 00000000 		.4byte	0
 4500 03c0 00000000 		.4byte	0
 4501              	.LLST30:
 4502 03c4 00000000 		.4byte	.LVL55
 4503 03c8 08000000 		.4byte	.LVL56
 4504 03cc 0100     		.2byte	0x1
 4505 03ce 51       		.byte	0x51
 4506 03cf 08000000 		.4byte	.LVL56
 4507 03d3 2A000000 		.4byte	.LVL65
 4508 03d7 0100     		.2byte	0x1
 4509 03d9 55       		.byte	0x55
 4510 03da 2A000000 		.4byte	.LVL65
 4511 03de 2F000000 		.4byte	.LVL67-1
 4512 03e2 0100     		.2byte	0x1
 4513 03e4 51       		.byte	0x51
 4514 03e5 2F000000 		.4byte	.LVL67-1
 4515 03e9 38000000 		.4byte	.LFE13
 4516 03ed 0100     		.2byte	0x1
 4517 03ef 55       		.byte	0x55
 4518 03f0 00000000 		.4byte	0
 4519 03f4 00000000 		.4byte	0
ARM GAS  /tmp/ccevInyS.s 			page 81


 4520              	.LLST31:
 4521 03f8 0E000000 		.4byte	.LVL58
 4522 03fc 11000000 		.4byte	.LVL59-1
 4523 0400 0100     		.2byte	0x1
 4524 0402 53       		.byte	0x53
 4525 0403 00000000 		.4byte	0
 4526 0407 00000000 		.4byte	0
 4527              	.LLST32:
 4528 040b 28000000 		.4byte	.LVL64
 4529 040f 2A000000 		.4byte	.LVL65
 4530 0413 0100     		.2byte	0x1
 4531 0415 53       		.byte	0x53
 4532 0416 00000000 		.4byte	0
 4533 041a 00000000 		.4byte	0
 4534              	.LLST33:
 4535 041e 00000000 		.4byte	.LFB11
 4536 0422 02000000 		.4byte	.LCFI7
 4537 0426 0200     		.2byte	0x2
 4538 0428 7D       		.byte	0x7d
 4539 0429 00       		.sleb128 0
 4540 042a 02000000 		.4byte	.LCFI7
 4541 042e 34000000 		.4byte	.LFE11
 4542 0432 0200     		.2byte	0x2
 4543 0434 7D       		.byte	0x7d
 4544 0435 10       		.sleb128 16
 4545 0436 00000000 		.4byte	0
 4546 043a 00000000 		.4byte	0
 4547              	.LLST34:
 4548 043e 00000000 		.4byte	.LVL68
 4549 0442 09000000 		.4byte	.LVL69-1
 4550 0446 0100     		.2byte	0x1
 4551 0448 50       		.byte	0x50
 4552 0449 09000000 		.4byte	.LVL69-1
 4553 044d 34000000 		.4byte	.LFE11
 4554 0451 0100     		.2byte	0x1
 4555 0453 55       		.byte	0x55
 4556 0454 00000000 		.4byte	0
 4557 0458 00000000 		.4byte	0
 4558              	.LLST35:
 4559 045c 00000000 		.4byte	.LVL68
 4560 0460 09000000 		.4byte	.LVL69-1
 4561 0464 0100     		.2byte	0x1
 4562 0466 51       		.byte	0x51
 4563 0467 09000000 		.4byte	.LVL69-1
 4564 046b 34000000 		.4byte	.LFE11
 4565 046f 0100     		.2byte	0x1
 4566 0471 56       		.byte	0x56
 4567 0472 00000000 		.4byte	0
 4568 0476 00000000 		.4byte	0
 4569              	.LLST36:
 4570 047a 0E000000 		.4byte	.LVL70
 4571 047e 26000000 		.4byte	.LVL73
 4572 0482 0100     		.2byte	0x1
 4573 0484 54       		.byte	0x54
 4574 0485 00000000 		.4byte	0
 4575 0489 00000000 		.4byte	0
 4576              	.LLST37:
ARM GAS  /tmp/ccevInyS.s 			page 82


 4577 048d 00000000 		.4byte	.LFB15
 4578 0491 02000000 		.4byte	.LCFI8
 4579 0495 0200     		.2byte	0x2
 4580 0497 7D       		.byte	0x7d
 4581 0498 00       		.sleb128 0
 4582 0499 02000000 		.4byte	.LCFI8
 4583 049d 28000000 		.4byte	.LFE15
 4584 04a1 0200     		.2byte	0x2
 4585 04a3 7D       		.byte	0x7d
 4586 04a4 10       		.sleb128 16
 4587 04a5 00000000 		.4byte	0
 4588 04a9 00000000 		.4byte	0
 4589              	.LLST38:
 4590 04ad 00000000 		.4byte	.LVL75
 4591 04b1 0F000000 		.4byte	.LVL78-1
 4592 04b5 0100     		.2byte	0x1
 4593 04b7 50       		.byte	0x50
 4594 04b8 0F000000 		.4byte	.LVL78-1
 4595 04bc 28000000 		.4byte	.LFE15
 4596 04c0 0100     		.2byte	0x1
 4597 04c2 55       		.byte	0x55
 4598 04c3 00000000 		.4byte	0
 4599 04c7 00000000 		.4byte	0
 4600              	.LLST39:
 4601 04cb 00000000 		.4byte	.LVL75
 4602 04cf 0F000000 		.4byte	.LVL78-1
 4603 04d3 0100     		.2byte	0x1
 4604 04d5 51       		.byte	0x51
 4605 04d6 0F000000 		.4byte	.LVL78-1
 4606 04da 28000000 		.4byte	.LFE15
 4607 04de 0100     		.2byte	0x1
 4608 04e0 54       		.byte	0x54
 4609 04e1 00000000 		.4byte	0
 4610 04e5 00000000 		.4byte	0
 4611              	.LLST40:
 4612 04e9 0C000000 		.4byte	.LVL77
 4613 04ed 0F000000 		.4byte	.LVL78-1
 4614 04f1 0100     		.2byte	0x1
 4615 04f3 53       		.byte	0x53
 4616 04f4 00000000 		.4byte	0
 4617 04f8 00000000 		.4byte	0
 4618              	.LLST41:
 4619 04fc 26000000 		.4byte	.LVL83
 4620 0500 28000000 		.4byte	.LFE15
 4621 0504 0100     		.2byte	0x1
 4622 0506 53       		.byte	0x53
 4623 0507 00000000 		.4byte	0
 4624 050b 00000000 		.4byte	0
 4625              	.LLST42:
 4626 050f 00000000 		.4byte	.LVL84
 4627 0513 06000000 		.4byte	.LVL85
 4628 0517 0100     		.2byte	0x1
 4629 0519 50       		.byte	0x50
 4630 051a 06000000 		.4byte	.LVL85
 4631 051e 0A000000 		.4byte	.LFE16
 4632 0522 0100     		.2byte	0x1
 4633 0524 53       		.byte	0x53
ARM GAS  /tmp/ccevInyS.s 			page 83


 4634 0525 00000000 		.4byte	0
 4635 0529 00000000 		.4byte	0
 4636              	.LLST43:
 4637 052d 00000000 		.4byte	.LFB17
 4638 0531 04000000 		.4byte	.LCFI9
 4639 0535 0200     		.2byte	0x2
 4640 0537 7D       		.byte	0x7d
 4641 0538 00       		.sleb128 0
 4642 0539 04000000 		.4byte	.LCFI9
 4643 053d 50000000 		.4byte	.LFE17
 4644 0541 0200     		.2byte	0x2
 4645 0543 7D       		.byte	0x7d
 4646 0544 18       		.sleb128 24
 4647 0545 00000000 		.4byte	0
 4648 0549 00000000 		.4byte	0
 4649              	.LLST44:
 4650 054d 00000000 		.4byte	.LVL86
 4651 0551 0A000000 		.4byte	.LVL87
 4652 0555 0100     		.2byte	0x1
 4653 0557 50       		.byte	0x50
 4654 0558 0A000000 		.4byte	.LVL87
 4655 055c 40000000 		.4byte	.LVL96
 4656 0560 0100     		.2byte	0x1
 4657 0562 58       		.byte	0x58
 4658 0563 40000000 		.4byte	.LVL96
 4659 0567 42000000 		.4byte	.LVL97
 4660 056b 0100     		.2byte	0x1
 4661 056d 50       		.byte	0x50
 4662 056e 42000000 		.4byte	.LVL97
 4663 0572 50000000 		.4byte	.LFE17
 4664 0576 0100     		.2byte	0x1
 4665 0578 58       		.byte	0x58
 4666 0579 00000000 		.4byte	0
 4667 057d 00000000 		.4byte	0
 4668              	.LLST45:
 4669 0581 00000000 		.4byte	.LVL86
 4670 0585 0A000000 		.4byte	.LVL87
 4671 0589 0100     		.2byte	0x1
 4672 058b 51       		.byte	0x51
 4673 058c 0A000000 		.4byte	.LVL87
 4674 0590 22000000 		.4byte	.LVL89
 4675 0594 0100     		.2byte	0x1
 4676 0596 55       		.byte	0x55
 4677 0597 24000000 		.4byte	.LVL90
 4678 059b 34000000 		.4byte	.LVL94
 4679 059f 0100     		.2byte	0x1
 4680 05a1 55       		.byte	0x55
 4681 05a2 40000000 		.4byte	.LVL96
 4682 05a6 45000000 		.4byte	.LVL98-1
 4683 05aa 0100     		.2byte	0x1
 4684 05ac 51       		.byte	0x51
 4685 05ad 45000000 		.4byte	.LVL98-1
 4686 05b1 50000000 		.4byte	.LFE17
 4687 05b5 0100     		.2byte	0x1
 4688 05b7 55       		.byte	0x55
 4689 05b8 00000000 		.4byte	0
 4690 05bc 00000000 		.4byte	0
ARM GAS  /tmp/ccevInyS.s 			page 84


 4691              	.LLST46:
 4692 05c0 0A000000 		.4byte	.LVL87
 4693 05c4 12000000 		.4byte	.LVL88
 4694 05c8 0200     		.2byte	0x2
 4695 05ca 30       		.byte	0x30
 4696 05cb 9F       		.byte	0x9f
 4697 05cc 2A000000 		.4byte	.LVL92
 4698 05d0 30000000 		.4byte	.LVL93
 4699 05d4 0100     		.2byte	0x1
 4700 05d6 54       		.byte	0x54
 4701 05d7 00000000 		.4byte	0
 4702 05db 00000000 		.4byte	0
 4703              	.LLST47:
 4704 05df 00000000 		.4byte	.LFB18
 4705 05e3 02000000 		.4byte	.LCFI10
 4706 05e7 0200     		.2byte	0x2
 4707 05e9 7D       		.byte	0x7d
 4708 05ea 00       		.sleb128 0
 4709 05eb 02000000 		.4byte	.LCFI10
 4710 05ef 44000000 		.4byte	.LFE18
 4711 05f3 0200     		.2byte	0x2
 4712 05f5 7D       		.byte	0x7d
 4713 05f6 10       		.sleb128 16
 4714 05f7 00000000 		.4byte	0
 4715 05fb 00000000 		.4byte	0
 4716              	.LLST48:
 4717 05ff 00000000 		.4byte	.LVL99
 4718 0603 11000000 		.4byte	.LVL103-1
 4719 0607 0100     		.2byte	0x1
 4720 0609 50       		.byte	0x50
 4721 060a 11000000 		.4byte	.LVL103-1
 4722 060e 2A000000 		.4byte	.LVL108
 4723 0612 0100     		.2byte	0x1
 4724 0614 54       		.byte	0x54
 4725 0615 2A000000 		.4byte	.LVL108
 4726 0619 44000000 		.4byte	.LFE18
 4727 061d 0400     		.2byte	0x4
 4728 061f F3       		.byte	0xf3
 4729 0620 01       		.uleb128 0x1
 4730 0621 50       		.byte	0x50
 4731 0622 9F       		.byte	0x9f
 4732 0623 00000000 		.4byte	0
 4733 0627 00000000 		.4byte	0
 4734              	.LLST49:
 4735 062b 14000000 		.4byte	.LVL104
 4736 062f 18000000 		.4byte	.LVL105
 4737 0633 0600     		.2byte	0x6
 4738 0635 74       		.byte	0x74
 4739 0636 00       		.sleb128 0
 4740 0637 70       		.byte	0x70
 4741 0638 00       		.sleb128 0
 4742 0639 1A       		.byte	0x1a
 4743 063a 9F       		.byte	0x9f
 4744 063b 18000000 		.4byte	.LVL105
 4745 063f 21000000 		.4byte	.LVL106-1
 4746 0643 0100     		.2byte	0x1
 4747 0645 52       		.byte	0x52
ARM GAS  /tmp/ccevInyS.s 			page 85


 4748 0646 28000000 		.4byte	.LVL107
 4749 064a 2C000000 		.4byte	.LVL109
 4750 064e 0100     		.2byte	0x1
 4751 0650 52       		.byte	0x52
 4752 0651 2C000000 		.4byte	.LVL109
 4753 0655 44000000 		.4byte	.LFE18
 4754 0659 0100     		.2byte	0x1
 4755 065b 54       		.byte	0x54
 4756 065c 00000000 		.4byte	0
 4757 0660 00000000 		.4byte	0
 4758              	.LLST50:
 4759 0664 0E000000 		.4byte	.LVL102
 4760 0668 11000000 		.4byte	.LVL103-1
 4761 066c 0100     		.2byte	0x1
 4762 066e 53       		.byte	0x53
 4763 066f 00000000 		.4byte	0
 4764 0673 00000000 		.4byte	0
 4765              	.LLST51:
 4766 0677 3C000000 		.4byte	.LVL112
 4767 067b 44000000 		.4byte	.LFE18
 4768 067f 0100     		.2byte	0x1
 4769 0681 53       		.byte	0x53
 4770 0682 00000000 		.4byte	0
 4771 0686 00000000 		.4byte	0
 4772              	.LLST52:
 4773 068a 00000000 		.4byte	.LFB19
 4774 068e 04000000 		.4byte	.LCFI11
 4775 0692 0200     		.2byte	0x2
 4776 0694 7D       		.byte	0x7d
 4777 0695 00       		.sleb128 0
 4778 0696 04000000 		.4byte	.LCFI11
 4779 069a 40000000 		.4byte	.LFE19
 4780 069e 0200     		.2byte	0x2
 4781 06a0 7D       		.byte	0x7d
 4782 06a1 10       		.sleb128 16
 4783 06a2 00000000 		.4byte	0
 4784 06a6 00000000 		.4byte	0
 4785              	.LLST53:
 4786 06aa 00000000 		.4byte	.LVL113
 4787 06ae 11000000 		.4byte	.LVL117-1
 4788 06b2 0100     		.2byte	0x1
 4789 06b4 50       		.byte	0x50
 4790 06b5 11000000 		.4byte	.LVL117-1
 4791 06b9 40000000 		.4byte	.LFE19
 4792 06bd 0100     		.2byte	0x1
 4793 06bf 54       		.byte	0x54
 4794 06c0 00000000 		.4byte	0
 4795 06c4 00000000 		.4byte	0
 4796              	.LLST54:
 4797 06c8 14000000 		.4byte	.LVL118
 4798 06cc 18000000 		.4byte	.LVL119
 4799 06d0 0600     		.2byte	0x6
 4800 06d2 74       		.byte	0x74
 4801 06d3 00       		.sleb128 0
 4802 06d4 70       		.byte	0x70
 4803 06d5 00       		.sleb128 0
 4804 06d6 1A       		.byte	0x1a
ARM GAS  /tmp/ccevInyS.s 			page 86


 4805 06d7 9F       		.byte	0x9f
 4806 06d8 18000000 		.4byte	.LVL119
 4807 06dc 40000000 		.4byte	.LFE19
 4808 06e0 0100     		.2byte	0x1
 4809 06e2 56       		.byte	0x56
 4810 06e3 00000000 		.4byte	0
 4811 06e7 00000000 		.4byte	0
 4812              	.LLST55:
 4813 06eb 0E000000 		.4byte	.LVL116
 4814 06ef 11000000 		.4byte	.LVL117-1
 4815 06f3 0100     		.2byte	0x1
 4816 06f5 53       		.byte	0x53
 4817 06f6 00000000 		.4byte	0
 4818 06fa 00000000 		.4byte	0
 4819              	.LLST56:
 4820 06fe 38000000 		.4byte	.LVL124
 4821 0702 40000000 		.4byte	.LFE19
 4822 0706 0100     		.2byte	0x1
 4823 0708 53       		.byte	0x53
 4824 0709 00000000 		.4byte	0
 4825 070d 00000000 		.4byte	0
 4826              	.LLST57:
 4827 0711 00000000 		.4byte	.LFB20
 4828 0715 02000000 		.4byte	.LCFI12
 4829 0719 0200     		.2byte	0x2
 4830 071b 7D       		.byte	0x7d
 4831 071c 00       		.sleb128 0
 4832 071d 02000000 		.4byte	.LCFI12
 4833 0721 40000000 		.4byte	.LFE20
 4834 0725 0200     		.2byte	0x2
 4835 0727 7D       		.byte	0x7d
 4836 0728 10       		.sleb128 16
 4837 0729 00000000 		.4byte	0
 4838 072d 00000000 		.4byte	0
 4839              	.LLST58:
 4840 0731 00000000 		.4byte	.LVL125
 4841 0735 11000000 		.4byte	.LVL129-1
 4842 0739 0100     		.2byte	0x1
 4843 073b 50       		.byte	0x50
 4844 073c 11000000 		.4byte	.LVL129-1
 4845 0740 40000000 		.4byte	.LFE20
 4846 0744 0100     		.2byte	0x1
 4847 0746 54       		.byte	0x54
 4848 0747 00000000 		.4byte	0
 4849 074b 00000000 		.4byte	0
 4850              	.LLST59:
 4851 074f 0E000000 		.4byte	.LVL128
 4852 0753 11000000 		.4byte	.LVL129-1
 4853 0757 0100     		.2byte	0x1
 4854 0759 53       		.byte	0x53
 4855 075a 00000000 		.4byte	0
 4856 075e 00000000 		.4byte	0
 4857              	.LLST60:
 4858 0762 36000000 		.4byte	.LVL133
 4859 0766 40000000 		.4byte	.LFE20
 4860 076a 0100     		.2byte	0x1
 4861 076c 53       		.byte	0x53
ARM GAS  /tmp/ccevInyS.s 			page 87


 4862 076d 00000000 		.4byte	0
 4863 0771 00000000 		.4byte	0
 4864              	.LLST61:
 4865 0775 00000000 		.4byte	.LFB21
 4866 0779 02000000 		.4byte	.LCFI13
 4867 077d 0200     		.2byte	0x2
 4868 077f 7D       		.byte	0x7d
 4869 0780 00       		.sleb128 0
 4870 0781 02000000 		.4byte	.LCFI13
 4871 0785 5C000000 		.4byte	.LFE21
 4872 0789 0200     		.2byte	0x2
 4873 078b 7D       		.byte	0x7d
 4874 078c 18       		.sleb128 24
 4875 078d 00000000 		.4byte	0
 4876 0791 00000000 		.4byte	0
 4877              	.LLST62:
 4878 0795 00000000 		.4byte	.LVL134
 4879 0799 13000000 		.4byte	.LVL138-1
 4880 079d 0100     		.2byte	0x1
 4881 079f 50       		.byte	0x50
 4882 07a0 13000000 		.4byte	.LVL138-1
 4883 07a4 5C000000 		.4byte	.LFE21
 4884 07a8 0100     		.2byte	0x1
 4885 07aa 55       		.byte	0x55
 4886 07ab 00000000 		.4byte	0
 4887 07af 00000000 		.4byte	0
 4888              	.LLST63:
 4889 07b3 00000000 		.4byte	.LVL134
 4890 07b7 13000000 		.4byte	.LVL138-1
 4891 07bb 0100     		.2byte	0x1
 4892 07bd 51       		.byte	0x51
 4893 07be 13000000 		.4byte	.LVL138-1
 4894 07c2 5C000000 		.4byte	.LFE21
 4895 07c6 0100     		.2byte	0x1
 4896 07c8 57       		.byte	0x57
 4897 07c9 00000000 		.4byte	0
 4898 07cd 00000000 		.4byte	0
 4899              	.LLST64:
 4900 07d1 16000000 		.4byte	.LVL139
 4901 07d5 1A000000 		.4byte	.LVL140
 4902 07d9 0600     		.2byte	0x6
 4903 07db 75       		.byte	0x75
 4904 07dc 00       		.sleb128 0
 4905 07dd 70       		.byte	0x70
 4906 07de 00       		.sleb128 0
 4907 07df 1A       		.byte	0x1a
 4908 07e0 9F       		.byte	0x9f
 4909 07e1 1A000000 		.4byte	.LVL140
 4910 07e5 5C000000 		.4byte	.LFE21
 4911 07e9 0100     		.2byte	0x1
 4912 07eb 54       		.byte	0x54
 4913 07ec 00000000 		.4byte	0
 4914 07f0 00000000 		.4byte	0
 4915              	.LLST65:
 4916 07f4 10000000 		.4byte	.LVL137
 4917 07f8 13000000 		.4byte	.LVL138-1
 4918 07fc 0100     		.2byte	0x1
ARM GAS  /tmp/ccevInyS.s 			page 88


 4919 07fe 53       		.byte	0x53
 4920 07ff 00000000 		.4byte	0
 4921 0803 00000000 		.4byte	0
 4922              	.LLST66:
 4923 0807 46000000 		.4byte	.LVL146
 4924 080b 4A000000 		.4byte	.LVL147
 4925 080f 0100     		.2byte	0x1
 4926 0811 53       		.byte	0x53
 4927 0812 00000000 		.4byte	0
 4928 0816 00000000 		.4byte	0
 4929              	.LLST67:
 4930 081a 54000000 		.4byte	.LVL150
 4931 081e 5C000000 		.4byte	.LFE21
 4932 0822 0100     		.2byte	0x1
 4933 0824 53       		.byte	0x53
 4934 0825 00000000 		.4byte	0
 4935 0829 00000000 		.4byte	0
 4936              	.LLST68:
 4937 082d 00000000 		.4byte	.LFB22
 4938 0831 02000000 		.4byte	.LCFI14
 4939 0835 0200     		.2byte	0x2
 4940 0837 7D       		.byte	0x7d
 4941 0838 00       		.sleb128 0
 4942 0839 02000000 		.4byte	.LCFI14
 4943 083d 58000000 		.4byte	.LFE22
 4944 0841 0200     		.2byte	0x2
 4945 0843 7D       		.byte	0x7d
 4946 0844 18       		.sleb128 24
 4947 0845 00000000 		.4byte	0
 4948 0849 00000000 		.4byte	0
 4949              	.LLST69:
 4950 084d 00000000 		.4byte	.LVL151
 4951 0851 13000000 		.4byte	.LVL155-1
 4952 0855 0100     		.2byte	0x1
 4953 0857 50       		.byte	0x50
 4954 0858 13000000 		.4byte	.LVL155-1
 4955 085c 58000000 		.4byte	.LFE22
 4956 0860 0100     		.2byte	0x1
 4957 0862 54       		.byte	0x54
 4958 0863 00000000 		.4byte	0
 4959 0867 00000000 		.4byte	0
 4960              	.LLST70:
 4961 086b 00000000 		.4byte	.LVL151
 4962 086f 13000000 		.4byte	.LVL155-1
 4963 0873 0100     		.2byte	0x1
 4964 0875 51       		.byte	0x51
 4965 0876 13000000 		.4byte	.LVL155-1
 4966 087a 58000000 		.4byte	.LFE22
 4967 087e 0100     		.2byte	0x1
 4968 0880 57       		.byte	0x57
 4969 0881 00000000 		.4byte	0
 4970 0885 00000000 		.4byte	0
 4971              	.LLST71:
 4972 0889 16000000 		.4byte	.LVL156
 4973 088d 1A000000 		.4byte	.LVL157
 4974 0891 0600     		.2byte	0x6
 4975 0893 74       		.byte	0x74
ARM GAS  /tmp/ccevInyS.s 			page 89


 4976 0894 00       		.sleb128 0
 4977 0895 72       		.byte	0x72
 4978 0896 00       		.sleb128 0
 4979 0897 1A       		.byte	0x1a
 4980 0898 9F       		.byte	0x9f
 4981 0899 1A000000 		.4byte	.LVL157
 4982 089d 58000000 		.4byte	.LFE22
 4983 08a1 0100     		.2byte	0x1
 4984 08a3 56       		.byte	0x56
 4985 08a4 00000000 		.4byte	0
 4986 08a8 00000000 		.4byte	0
 4987              	.LLST72:
 4988 08ac 10000000 		.4byte	.LVL154
 4989 08b0 13000000 		.4byte	.LVL155-1
 4990 08b4 0100     		.2byte	0x1
 4991 08b6 53       		.byte	0x53
 4992 08b7 00000000 		.4byte	0
 4993 08bb 00000000 		.4byte	0
 4994              	.LLST73:
 4995 08bf 42000000 		.4byte	.LVL162
 4996 08c3 46000000 		.4byte	.LVL163
 4997 08c7 0100     		.2byte	0x1
 4998 08c9 53       		.byte	0x53
 4999 08ca 00000000 		.4byte	0
 5000 08ce 00000000 		.4byte	0
 5001              	.LLST74:
 5002 08d2 50000000 		.4byte	.LVL166
 5003 08d6 58000000 		.4byte	.LFE22
 5004 08da 0100     		.2byte	0x1
 5005 08dc 53       		.byte	0x53
 5006 08dd 00000000 		.4byte	0
 5007 08e1 00000000 		.4byte	0
 5008              	.LLST75:
 5009 08e5 00000000 		.4byte	.LFB23
 5010 08e9 04000000 		.4byte	.LCFI15
 5011 08ed 0200     		.2byte	0x2
 5012 08ef 7D       		.byte	0x7d
 5013 08f0 00       		.sleb128 0
 5014 08f1 04000000 		.4byte	.LCFI15
 5015 08f5 68000000 		.4byte	.LFE23
 5016 08f9 0200     		.2byte	0x2
 5017 08fb 7D       		.byte	0x7d
 5018 08fc 10       		.sleb128 16
 5019 08fd 00000000 		.4byte	0
 5020 0901 00000000 		.4byte	0
 5021              	.LLST76:
 5022 0905 00000000 		.4byte	.LVL167
 5023 0909 13000000 		.4byte	.LVL171-1
 5024 090d 0100     		.2byte	0x1
 5025 090f 50       		.byte	0x50
 5026 0910 13000000 		.4byte	.LVL171-1
 5027 0914 40000000 		.4byte	.LVL175
 5028 0918 0100     		.2byte	0x1
 5029 091a 54       		.byte	0x54
 5030 091b 40000000 		.4byte	.LVL175
 5031 091f 44000000 		.4byte	.LVL176
 5032 0923 0400     		.2byte	0x4
ARM GAS  /tmp/ccevInyS.s 			page 90


 5033 0925 F3       		.byte	0xf3
 5034 0926 01       		.uleb128 0x1
 5035 0927 50       		.byte	0x50
 5036 0928 9F       		.byte	0x9f
 5037 0929 44000000 		.4byte	.LVL176
 5038 092d 50000000 		.4byte	.LVL180
 5039 0931 0100     		.2byte	0x1
 5040 0933 54       		.byte	0x54
 5041 0934 50000000 		.4byte	.LVL180
 5042 0938 54000000 		.4byte	.LVL181
 5043 093c 0400     		.2byte	0x4
 5044 093e F3       		.byte	0xf3
 5045 093f 01       		.uleb128 0x1
 5046 0940 50       		.byte	0x50
 5047 0941 9F       		.byte	0x9f
 5048 0942 54000000 		.4byte	.LVL181
 5049 0946 60000000 		.4byte	.LVL184
 5050 094a 0100     		.2byte	0x1
 5051 094c 54       		.byte	0x54
 5052 094d 60000000 		.4byte	.LVL184
 5053 0951 68000000 		.4byte	.LFE23
 5054 0955 0400     		.2byte	0x4
 5055 0957 F3       		.byte	0xf3
 5056 0958 01       		.uleb128 0x1
 5057 0959 50       		.byte	0x50
 5058 095a 9F       		.byte	0x9f
 5059 095b 00000000 		.4byte	0
 5060 095f 00000000 		.4byte	0
 5061              	.LLST77:
 5062 0963 00000000 		.4byte	.LVL167
 5063 0967 13000000 		.4byte	.LVL171-1
 5064 096b 0100     		.2byte	0x1
 5065 096d 51       		.byte	0x51
 5066 096e 13000000 		.4byte	.LVL171-1
 5067 0972 68000000 		.4byte	.LFE23
 5068 0976 0100     		.2byte	0x1
 5069 0978 56       		.byte	0x56
 5070 0979 00000000 		.4byte	0
 5071 097d 00000000 		.4byte	0
 5072              	.LLST78:
 5073 0981 10000000 		.4byte	.LVL170
 5074 0985 13000000 		.4byte	.LVL171-1
 5075 0989 0100     		.2byte	0x1
 5076 098b 53       		.byte	0x53
 5077 098c 00000000 		.4byte	0
 5078 0990 00000000 		.4byte	0
 5079              	.LLST79:
 5080 0994 40000000 		.4byte	.LVL175
 5081 0998 44000000 		.4byte	.LVL176
 5082 099c 0100     		.2byte	0x1
 5083 099e 53       		.byte	0x53
 5084 099f 00000000 		.4byte	0
 5085 09a3 00000000 		.4byte	0
 5086              	.LLST80:
 5087 09a7 4E000000 		.4byte	.LVL179
 5088 09ab 54000000 		.4byte	.LVL181
 5089 09af 0100     		.2byte	0x1
ARM GAS  /tmp/ccevInyS.s 			page 91


 5090 09b1 53       		.byte	0x53
 5091 09b2 00000000 		.4byte	0
 5092 09b6 00000000 		.4byte	0
 5093              	.LLST81:
 5094 09ba 40000000 		.4byte	.LVL175
 5095 09be 44000000 		.4byte	.LVL176
 5096 09c2 0100     		.2byte	0x1
 5097 09c4 53       		.byte	0x53
 5098 09c5 5E000000 		.4byte	.LVL183
 5099 09c9 68000000 		.4byte	.LFE23
 5100 09cd 0100     		.2byte	0x1
 5101 09cf 53       		.byte	0x53
 5102 09d0 00000000 		.4byte	0
 5103 09d4 00000000 		.4byte	0
 5104              		.section	.debug_aranges,"",%progbits
 5105 0000 9C000000 		.4byte	0x9c
 5106 0004 0200     		.2byte	0x2
 5107 0006 00000000 		.4byte	.Ldebug_info0
 5108 000a 04       		.byte	0x4
 5109 000b 00       		.byte	0
 5110 000c 0000     		.2byte	0
 5111 000e 0000     		.2byte	0
 5112 0010 00000000 		.4byte	.LFB7
 5113 0014 44000000 		.4byte	.LFE7-.LFB7
 5114 0018 00000000 		.4byte	.LFB8
 5115 001c 40000000 		.4byte	.LFE8-.LFB8
 5116 0020 00000000 		.4byte	.LFB9
 5117 0024 30000000 		.4byte	.LFE9-.LFB9
 5118 0028 00000000 		.4byte	.LFB10
 5119 002c 2C000000 		.4byte	.LFE10-.LFB10
 5120 0030 00000000 		.4byte	.LFB12
 5121 0034 22000000 		.4byte	.LFE12-.LFB12
 5122 0038 00000000 		.4byte	.LFB14
 5123 003c 4C000000 		.4byte	.LFE14-.LFB14
 5124 0040 00000000 		.4byte	.LFB13
 5125 0044 38000000 		.4byte	.LFE13-.LFB13
 5126 0048 00000000 		.4byte	.LFB11
 5127 004c 34000000 		.4byte	.LFE11-.LFB11
 5128 0050 00000000 		.4byte	.LFB15
 5129 0054 28000000 		.4byte	.LFE15-.LFB15
 5130 0058 00000000 		.4byte	.LFB16
 5131 005c 0A000000 		.4byte	.LFE16-.LFB16
 5132 0060 00000000 		.4byte	.LFB17
 5133 0064 50000000 		.4byte	.LFE17-.LFB17
 5134 0068 00000000 		.4byte	.LFB18
 5135 006c 44000000 		.4byte	.LFE18-.LFB18
 5136 0070 00000000 		.4byte	.LFB19
 5137 0074 40000000 		.4byte	.LFE19-.LFB19
 5138 0078 00000000 		.4byte	.LFB20
 5139 007c 40000000 		.4byte	.LFE20-.LFB20
 5140 0080 00000000 		.4byte	.LFB21
 5141 0084 5C000000 		.4byte	.LFE21-.LFB21
 5142 0088 00000000 		.4byte	.LFB22
 5143 008c 58000000 		.4byte	.LFE22-.LFB22
 5144 0090 00000000 		.4byte	.LFB23
 5145 0094 68000000 		.4byte	.LFE23-.LFB23
 5146 0098 00000000 		.4byte	0
ARM GAS  /tmp/ccevInyS.s 			page 92


 5147 009c 00000000 		.4byte	0
 5148              		.section	.debug_ranges,"",%progbits
 5149              	.Ldebug_ranges0:
 5150 0000 02000000 		.4byte	.LBB6
 5151 0004 04000000 		.4byte	.LBE6
 5152 0008 06000000 		.4byte	.LBB7
 5153 000c 0A000000 		.4byte	.LBE7
 5154 0010 00000000 		.4byte	0
 5155 0014 00000000 		.4byte	0
 5156 0018 02000000 		.4byte	.LBB9
 5157 001c 04000000 		.4byte	.LBE9
 5158 0020 06000000 		.4byte	.LBB10
 5159 0024 0A000000 		.4byte	.LBE10
 5160 0028 00000000 		.4byte	0
 5161 002c 00000000 		.4byte	0
 5162 0030 02000000 		.4byte	.LBB12
 5163 0034 04000000 		.4byte	.LBE12
 5164 0038 06000000 		.4byte	.LBB13
 5165 003c 0A000000 		.4byte	.LBE13
 5166 0040 00000000 		.4byte	0
 5167 0044 00000000 		.4byte	0
 5168 0048 00000000 		.4byte	.LFB7
 5169 004c 44000000 		.4byte	.LFE7
 5170 0050 00000000 		.4byte	.LFB8
 5171 0054 40000000 		.4byte	.LFE8
 5172 0058 00000000 		.4byte	.LFB9
 5173 005c 30000000 		.4byte	.LFE9
 5174 0060 00000000 		.4byte	.LFB10
 5175 0064 2C000000 		.4byte	.LFE10
 5176 0068 00000000 		.4byte	.LFB12
 5177 006c 22000000 		.4byte	.LFE12
 5178 0070 00000000 		.4byte	.LFB14
 5179 0074 4C000000 		.4byte	.LFE14
 5180 0078 00000000 		.4byte	.LFB13
 5181 007c 38000000 		.4byte	.LFE13
 5182 0080 00000000 		.4byte	.LFB11
 5183 0084 34000000 		.4byte	.LFE11
 5184 0088 00000000 		.4byte	.LFB15
 5185 008c 28000000 		.4byte	.LFE15
 5186 0090 00000000 		.4byte	.LFB16
 5187 0094 0A000000 		.4byte	.LFE16
 5188 0098 00000000 		.4byte	.LFB17
 5189 009c 50000000 		.4byte	.LFE17
 5190 00a0 00000000 		.4byte	.LFB18
 5191 00a4 44000000 		.4byte	.LFE18
 5192 00a8 00000000 		.4byte	.LFB19
 5193 00ac 40000000 		.4byte	.LFE19
 5194 00b0 00000000 		.4byte	.LFB20
 5195 00b4 40000000 		.4byte	.LFE20
 5196 00b8 00000000 		.4byte	.LFB21
 5197 00bc 5C000000 		.4byte	.LFE21
 5198 00c0 00000000 		.4byte	.LFB22
 5199 00c4 58000000 		.4byte	.LFE22
 5200 00c8 00000000 		.4byte	.LFB23
 5201 00cc 68000000 		.4byte	.LFE23
 5202 00d0 00000000 		.4byte	0
 5203 00d4 00000000 		.4byte	0
ARM GAS  /tmp/ccevInyS.s 			page 93


 5204              		.section	.debug_line,"",%progbits
 5205              	.Ldebug_line0:
 5206 0000 8A030000 		.section	.debug_str,"MS",%progbits,1
 5206      02006001 
 5206      00000201 
 5206      FB0E0D00 
 5206      01010101 
 5207              	.LASF40:
 5208 0000 705F6D73 		.ascii	"p_msg\000"
 5208      6700
 5209              	.LASF99:
 5210 0006 63684462 		.ascii	"chDbgPanic\000"
 5210      6750616E 
 5210      696300
 5211              	.LASF71:
 5212 0011 7264796D 		.ascii	"rdymsg\000"
 5212      736700
 5213              	.LASF11:
 5214 0018 75696E74 		.ascii	"uint64_t\000"
 5214      36345F74 
 5214      00
 5215              	.LASF83:
 5216 0021 63684576 		.ascii	"chEvtSignal\000"
 5216      74536967 
 5216      6E616C00 
 5217              	.LASF12:
 5218 002d 6C6F6E67 		.ascii	"long long unsigned int\000"
 5218      206C6F6E 
 5218      6720756E 
 5218      7369676E 
 5218      65642069 
 5219              	.LASF80:
 5220 0044 63684576 		.ascii	"chEvtAddEvents\000"
 5220      74416464 
 5220      4576656E 
 5220      747300
 5221              	.LASF72:
 5222 0053 65786974 		.ascii	"exitcode\000"
 5222      636F6465 
 5222      00
 5223              	.LASF94:
 5224 005c 63684576 		.ascii	"chEvtWaitAnyTimeout\000"
 5224      74576169 
 5224      74416E79 
 5224      54696D65 
 5224      6F757400 
 5225              	.LASF27:
 5226 0070 705F7072 		.ascii	"p_prio\000"
 5226      696F00
 5227              	.LASF10:
 5228 0077 6C6F6E67 		.ascii	"long long int\000"
 5228      206C6F6E 
 5228      6720696E 
 5228      7400
 5229              	.LASF1:
 5230 0085 7369676E 		.ascii	"signed char\000"
 5230      65642063 
ARM GAS  /tmp/ccevInyS.s 			page 94


 5230      68617200 
 5231              	.LASF95:
 5232 0091 63684576 		.ascii	"chEvtWaitAllTimeout\000"
 5232      74576169 
 5232      74416C6C 
 5232      54696D65 
 5232      6F757400 
 5233              	.LASF44:
 5234 00a5 705F6D70 		.ascii	"p_mpool\000"
 5234      6F6F6C00 
 5235              	.LASF60:
 5236 00ad 6D5F7175 		.ascii	"m_queue\000"
 5236      65756500 
 5237              	.LASF17:
 5238 00b5 74736C69 		.ascii	"tslices_t\000"
 5238      6365735F 
 5238      7400
 5239              	.LASF7:
 5240 00bf 6C6F6E67 		.ascii	"long int\000"
 5240      20696E74 
 5240      00
 5241              	.LASF15:
 5242 00c8 74737461 		.ascii	"tstate_t\000"
 5242      74655F74 
 5242      00
 5243              	.LASF90:
 5244 00d1 63684576 		.ascii	"chEvtWaitAny\000"
 5244      74576169 
 5244      74416E79 
 5244      00
 5245              	.LASF103:
 5246 00de 63685363 		.ascii	"chSchGoSleepTimeoutS\000"
 5246      68476F53 
 5246      6C656570 
 5246      54696D65 
 5246      6F757453 
 5247              	.LASF106:
 5248 00f3 2F6F7074 		.ascii	"/opt/ChibiStudio/ChibiOS_2.6.5/testhal/STM32F30x/AD"
 5248      2F436869 
 5248      62695374 
 5248      7564696F 
 5248      2F436869 
 5249 0126 435F4455 		.ascii	"C_DUAL\000"
 5249      414C00
 5250              	.LASF29:
 5251 012d 705F6E65 		.ascii	"p_newer\000"
 5251      77657200 
 5252              	.LASF101:
 5253 0135 63685363 		.ascii	"chSchRescheduleS\000"
 5253      68526573 
 5253      63686564 
 5253      756C6553 
 5253      00
 5254              	.LASF55:
 5255 0146 725F6E65 		.ascii	"r_newer\000"
 5255      77657200 
 5256              	.LASF76:
ARM GAS  /tmp/ccevInyS.s 			page 95


 5257 014e 6D61736B 		.ascii	"mask\000"
 5257      00
 5258              	.LASF47:
 5259 0153 72656761 		.ascii	"regarm_t\000"
 5259      726D5F74 
 5259      00
 5260              	.LASF85:
 5261 015c 63684576 		.ascii	"chEvtBroadcastFlags\000"
 5261      7442726F 
 5261      61646361 
 5261      7374466C 
 5261      61677300 
 5262              	.LASF20:
 5263 0170 6576656E 		.ascii	"eventid_t\000"
 5263      7469645F 
 5263      7400
 5264              	.LASF68:
 5265 017a 4576656E 		.ascii	"EventSource\000"
 5265      74536F75 
 5265      72636500 
 5266              	.LASF70:
 5267 0186 65766861 		.ascii	"evhandler_t\000"
 5267      6E646C65 
 5267      725F7400 
 5268              	.LASF32:
 5269 0192 705F7374 		.ascii	"p_stklimit\000"
 5269      6B6C696D 
 5269      697400
 5270              	.LASF0:
 5271 019d 756E7369 		.ascii	"unsigned int\000"
 5271      676E6564 
 5271      20696E74 
 5271      00
 5272              	.LASF9:
 5273 01aa 6C6F6E67 		.ascii	"long unsigned int\000"
 5273      20756E73 
 5273      69676E65 
 5273      6420696E 
 5273      7400
 5274              	.LASF79:
 5275 01bc 63684576 		.ascii	"chEvtGetAndClearEvents\000"
 5275      74476574 
 5275      416E6443 
 5275      6C656172 
 5275      4576656E 
 5276              	.LASF105:
 5277 01d3 2E2E2F2E 		.ascii	"../../../os/kernel/src/chevents.c\000"
 5277      2E2F2E2E 
 5277      2F6F732F 
 5277      6B65726E 
 5277      656C2F73 
 5278              	.LASF50:
 5279 01f5 636F6E74 		.ascii	"context\000"
 5279      65787400 
 5280              	.LASF4:
 5281 01fd 73686F72 		.ascii	"short unsigned int\000"
 5281      7420756E 
ARM GAS  /tmp/ccevInyS.s 			page 96


 5281      7369676E 
 5281      65642069 
 5281      6E7400
 5282              	.LASF77:
 5283 0210 63684576 		.ascii	"chEvtRegisterMask\000"
 5283      74526567 
 5283      69737465 
 5283      724D6173 
 5283      6B00
 5284              	.LASF19:
 5285 0222 6D73675F 		.ascii	"msg_t\000"
 5285      7400
 5286              	.LASF84:
 5287 0228 63684576 		.ascii	"chEvtBroadcastFlagsI\000"
 5287      7442726F 
 5287      61646361 
 5287      7374466C 
 5287      61677349 
 5288              	.LASF64:
 5289 023d 656C5F6E 		.ascii	"el_next\000"
 5289      65787400 
 5290              	.LASF78:
 5291 0245 63684576 		.ascii	"chEvtUnregister\000"
 5291      74556E72 
 5291      65676973 
 5291      74657200 
 5292              	.LASF14:
 5293 0255 746D6F64 		.ascii	"tmode_t\000"
 5293      655F7400 
 5294              	.LASF46:
 5295 025d 54687265 		.ascii	"ThreadsList\000"
 5295      6164734C 
 5295      69737400 
 5296              	.LASF21:
 5297 0269 6576656E 		.ascii	"eventmask_t\000"
 5297      746D6173 
 5297      6B5F7400 
 5298              	.LASF59:
 5299 0275 4D757465 		.ascii	"Mutex\000"
 5299      7800
 5300              	.LASF48:
 5301 027b 73746B61 		.ascii	"stkalign_t\000"
 5301      6C69676E 
 5301      5F7400
 5302              	.LASF97:
 5303 0286 6462675F 		.ascii	"dbg_check_unlock\000"
 5303      63686563 
 5303      6B5F756E 
 5303      6C6F636B 
 5303      00
 5304              	.LASF51:
 5305 0297 73697A65 		.ascii	"sizetype\000"
 5305      74797065 
 5305      00
 5306              	.LASF87:
 5307 02a0 63684576 		.ascii	"chEvtDispatch\000"
 5307      74446973 
ARM GAS  /tmp/ccevInyS.s 			page 97


 5307      70617463 
 5307      6800
 5308              	.LASF30:
 5309 02ae 705F6F6C 		.ascii	"p_older\000"
 5309      64657200 
 5310              	.LASF54:
 5311 02b6 725F6374 		.ascii	"r_ctx\000"
 5311      7800
 5312              	.LASF45:
 5313 02bc 54687265 		.ascii	"ThreadsQueue\000"
 5313      61647351 
 5313      75657565 
 5313      00
 5314              	.LASF93:
 5315 02c9 74696D65 		.ascii	"time\000"
 5315      00
 5316              	.LASF91:
 5317 02ce 63684576 		.ascii	"chEvtWaitAll\000"
 5317      74576169 
 5317      74416C6C 
 5317      00
 5318              	.LASF57:
 5319 02db 725F6375 		.ascii	"r_current\000"
 5319      7272656E 
 5319      7400
 5320              	.LASF56:
 5321 02e5 725F6F6C 		.ascii	"r_older\000"
 5321      64657200 
 5322              	.LASF66:
 5323 02ed 656C5F6D 		.ascii	"el_mask\000"
 5323      61736B00 
 5324              	.LASF88:
 5325 02f5 68616E64 		.ascii	"handlers\000"
 5325      6C657273 
 5325      00
 5326              	.LASF16:
 5327 02fe 74726566 		.ascii	"trefs_t\000"
 5327      735F7400 
 5328              	.LASF26:
 5329 0306 705F7072 		.ascii	"p_prev\000"
 5329      657600
 5330              	.LASF18:
 5331 030d 74707269 		.ascii	"tprio_t\000"
 5331      6F5F7400 
 5332              	.LASF104:
 5333 0315 474E5520 		.ascii	"GNU C 4.7.3 20130312 (release) [ARM/embedded-4_7-br"
 5333      4320342E 
 5333      372E3320 
 5333      32303133 
 5333      30333132 
 5334 0348 616E6368 		.ascii	"anch revision 196615]\000"
 5334      20726576 
 5334      6973696F 
 5334      6E203139 
 5334      36363135 
 5335              	.LASF13:
 5336 035e 5F426F6F 		.ascii	"_Bool\000"
ARM GAS  /tmp/ccevInyS.s 			page 98


 5336      6C00
 5337              	.LASF6:
 5338 0364 696E7433 		.ascii	"int32_t\000"
 5338      325F7400 
 5339              	.LASF2:
 5340 036c 756E7369 		.ascii	"unsigned char\000"
 5340      676E6564 
 5340      20636861 
 5340      7200
 5341              	.LASF89:
 5342 037a 63684576 		.ascii	"chEvtWaitOne\000"
 5342      74576169 
 5342      744F6E65 
 5342      00
 5343              	.LASF65:
 5344 0387 656C5F6C 		.ascii	"el_listener\000"
 5344      69737465 
 5344      6E657200 
 5345              	.LASF67:
 5346 0393 656C5F66 		.ascii	"el_flags\000"
 5346      6C616773 
 5346      00
 5347              	.LASF42:
 5348 039c 705F6D74 		.ascii	"p_mtxlist\000"
 5348      786C6973 
 5348      7400
 5349              	.LASF3:
 5350 03a6 73686F72 		.ascii	"short int\000"
 5350      7420696E 
 5350      7400
 5351              	.LASF33:
 5352 03b0 705F7374 		.ascii	"p_state\000"
 5352      61746500 
 5353              	.LASF36:
 5354 03b8 705F7072 		.ascii	"p_preempt\000"
 5354      65656D70 
 5354      7400
 5355              	.LASF53:
 5356 03c2 725F7072 		.ascii	"r_prio\000"
 5356      696F00
 5357              	.LASF86:
 5358 03c9 63684576 		.ascii	"chEvtGetAndClearFlagsI\000"
 5358      74476574 
 5358      416E6443 
 5358      6C656172 
 5358      466C6167 
 5359              	.LASF74:
 5360 03e0 65776D61 		.ascii	"ewmask\000"
 5360      736B00
 5361              	.LASF25:
 5362 03e7 705F6E65 		.ascii	"p_next\000"
 5362      787400
 5363              	.LASF34:
 5364 03ee 705F666C 		.ascii	"p_flags\000"
 5364      61677300 
 5365              	.LASF24:
 5366 03f6 54687265 		.ascii	"Thread\000"
ARM GAS  /tmp/ccevInyS.s 			page 99


 5366      616400
 5367              	.LASF102:
 5368 03fd 63685363 		.ascii	"chSchGoSleepS\000"
 5368      68476F53 
 5368      6C656570 
 5368      5300
 5369              	.LASF41:
 5370 040b 705F6570 		.ascii	"p_epending\000"
 5370      656E6469 
 5370      6E6700
 5371              	.LASF8:
 5372 0416 75696E74 		.ascii	"uint32_t\000"
 5372      33325F74 
 5372      00
 5373              	.LASF52:
 5374 041f 725F7175 		.ascii	"r_queue\000"
 5374      65756500 
 5375              	.LASF108:
 5376 0427 63685363 		.ascii	"chSchReadyI\000"
 5376      68526561 
 5376      64794900 
 5377              	.LASF75:
 5378 0433 63686172 		.ascii	"char\000"
 5378      00
 5379              	.LASF62:
 5380 0438 6D5F6E65 		.ascii	"m_next\000"
 5380      787400
 5381              	.LASF23:
 5382 043f 73797374 		.ascii	"systime_t\000"
 5382      696D655F 
 5382      7400
 5383              	.LASF43:
 5384 0449 705F7265 		.ascii	"p_realprio\000"
 5384      616C7072 
 5384      696F00
 5385              	.LASF37:
 5386 0454 705F7469 		.ascii	"p_time\000"
 5386      6D6500
 5387              	.LASF49:
 5388 045b 696E7463 		.ascii	"intctx\000"
 5388      747800
 5389              	.LASF39:
 5390 0462 705F6D73 		.ascii	"p_msgqueue\000"
 5390      67717565 
 5390      756500
 5391              	.LASF22:
 5392 046d 666C6167 		.ascii	"flagsmask_t\000"
 5392      736D6173 
 5392      6B5F7400 
 5393              	.LASF35:
 5394 0479 705F7265 		.ascii	"p_refs\000"
 5394      667300
 5395              	.LASF58:
 5396 0480 52656164 		.ascii	"ReadyList\000"
 5396      794C6973 
 5396      7400
 5397              	.LASF107:
ARM GAS  /tmp/ccevInyS.s 			page 100


 5398 048a 726C6973 		.ascii	"rlist\000"
 5398      7400
 5399              	.LASF5:
 5400 0490 75696E74 		.ascii	"uint8_t\000"
 5400      385F7400 
 5401              	.LASF82:
 5402 0498 666C6167 		.ascii	"flags\000"
 5402      7300
 5403              	.LASF63:
 5404 049e 4576656E 		.ascii	"EventListener\000"
 5404      744C6973 
 5404      74656E65 
 5404      7200
 5405              	.LASF92:
 5406 04ac 63684576 		.ascii	"chEvtWaitOneTimeout\000"
 5406      74576169 
 5406      744F6E65 
 5406      54696D65 
 5406      6F757400 
 5407              	.LASF73:
 5408 04c0 77746F62 		.ascii	"wtobjp\000"
 5408      6A7000
 5409              	.LASF31:
 5410 04c7 705F6E61 		.ascii	"p_name\000"
 5410      6D6500
 5411              	.LASF69:
 5412 04ce 65735F6E 		.ascii	"es_next\000"
 5412      65787400 
 5413              	.LASF81:
 5414 04d6 63684576 		.ascii	"chEvtGetAndClearFlags\000"
 5414      74476574 
 5414      416E6443 
 5414      6C656172 
 5414      466C6167 
 5415              	.LASF100:
 5416 04ec 63684462 		.ascii	"chDbgCheckClassI\000"
 5416      67436865 
 5416      636B436C 
 5416      61737349 
 5416      00
 5417              	.LASF61:
 5418 04fd 6D5F6F77 		.ascii	"m_owner\000"
 5418      6E657200 
 5419              	.LASF96:
 5420 0505 6462675F 		.ascii	"dbg_check_lock\000"
 5420      63686563 
 5420      6B5F6C6F 
 5420      636B00
 5421              	.LASF28:
 5422 0514 705F6374 		.ascii	"p_ctx\000"
 5422      7800
 5423              	.LASF38:
 5424 051a 705F7761 		.ascii	"p_waiting\000"
 5424      6974696E 
 5424      6700
 5425              	.LASF98:
 5426 0524 63684576 		.ascii	"chEvtSignalI\000"
ARM GAS  /tmp/ccevInyS.s 			page 101


 5426      74536967 
 5426      6E616C49 
 5426      00
 5427              		.ident	"GCC: (GNU Tools for ARM Embedded Processors) 4.7.3 20130312 (release) [ARM/embedded-4_7-br
ARM GAS  /tmp/ccevInyS.s 			page 102


DEFINED SYMBOLS
                            *ABS*:00000000 chevents.c
     /tmp/ccevInyS.s:19     .text.chEvtRegisterMask:00000000 $t
     /tmp/ccevInyS.s:25     .text.chEvtRegisterMask:00000000 chEvtRegisterMask
     /tmp/ccevInyS.s:107    .text.chEvtRegisterMask:0000003c $d
     /tmp/ccevInyS.s:113    .text.chEvtUnregister:00000000 $t
     /tmp/ccevInyS.s:119    .text.chEvtUnregister:00000000 chEvtUnregister
     /tmp/ccevInyS.s:199    .text.chEvtUnregister:0000003c $d
     /tmp/ccevInyS.s:204    .text.chEvtGetAndClearEvents:00000000 $t
     /tmp/ccevInyS.s:210    .text.chEvtGetAndClearEvents:00000000 chEvtGetAndClearEvents
     /tmp/ccevInyS.s:269    .text.chEvtAddEvents:00000000 $t
     /tmp/ccevInyS.s:275    .text.chEvtAddEvents:00000000 chEvtAddEvents
     /tmp/ccevInyS.s:332    .text.chEvtGetAndClearFlags:00000000 $t
     /tmp/ccevInyS.s:338    .text.chEvtGetAndClearFlags:00000000 chEvtGetAndClearFlags
     /tmp/ccevInyS.s:396    .text.chEvtSignalI:00000000 $t
     /tmp/ccevInyS.s:402    .text.chEvtSignalI:00000000 chEvtSignalI
     /tmp/ccevInyS.s:479    .text.chEvtSignalI:00000048 $d
     /tmp/ccevInyS.s:484    .text.chEvtSignal:00000000 $t
     /tmp/ccevInyS.s:490    .text.chEvtSignal:00000000 chEvtSignal
     /tmp/ccevInyS.s:556    .text.chEvtSignal:00000034 $d
     /tmp/ccevInyS.s:561    .text.chEvtBroadcastFlagsI:00000000 $t
     /tmp/ccevInyS.s:567    .text.chEvtBroadcastFlagsI:00000000 chEvtBroadcastFlagsI
     /tmp/ccevInyS.s:624    .text.chEvtBroadcastFlagsI:00000030 $d
     /tmp/ccevInyS.s:629    .text.chEvtBroadcastFlags:00000000 $t
     /tmp/ccevInyS.s:635    .text.chEvtBroadcastFlags:00000000 chEvtBroadcastFlags
     /tmp/ccevInyS.s:689    .text.chEvtGetAndClearFlagsI:00000000 $t
     /tmp/ccevInyS.s:695    .text.chEvtGetAndClearFlagsI:00000000 chEvtGetAndClearFlagsI
     /tmp/ccevInyS.s:718    .text.chEvtDispatch:00000000 $t
     /tmp/ccevInyS.s:724    .text.chEvtDispatch:00000000 chEvtDispatch
     /tmp/ccevInyS.s:803    .text.chEvtDispatch:00000048 $d
     /tmp/ccevInyS.s:809    .text.chEvtWaitOne:00000000 $t
     /tmp/ccevInyS.s:815    .text.chEvtWaitOne:00000000 chEvtWaitOne
     /tmp/ccevInyS.s:892    .text.chEvtWaitOne:00000040 $d
     /tmp/ccevInyS.s:897    .text.chEvtWaitAny:00000000 $t
     /tmp/ccevInyS.s:903    .text.chEvtWaitAny:00000000 chEvtWaitAny
     /tmp/ccevInyS.s:976    .text.chEvtWaitAny:0000003c $d
     /tmp/ccevInyS.s:981    .text.chEvtWaitAll:00000000 $t
     /tmp/ccevInyS.s:987    .text.chEvtWaitAll:00000000 chEvtWaitAll
     /tmp/ccevInyS.s:1055   .text.chEvtWaitAll:0000003c $d
     /tmp/ccevInyS.s:1060   .text.chEvtWaitOneTimeout:00000000 $t
     /tmp/ccevInyS.s:1066   .text.chEvtWaitOneTimeout:00000000 chEvtWaitOneTimeout
     /tmp/ccevInyS.s:1168   .text.chEvtWaitOneTimeout:00000058 $d
     /tmp/ccevInyS.s:1173   .text.chEvtWaitAnyTimeout:00000000 $t
     /tmp/ccevInyS.s:1179   .text.chEvtWaitAnyTimeout:00000000 chEvtWaitAnyTimeout
     /tmp/ccevInyS.s:1277   .text.chEvtWaitAnyTimeout:00000054 $d
     /tmp/ccevInyS.s:1282   .text.chEvtWaitAllTimeout:00000000 $t
     /tmp/ccevInyS.s:1288   .text.chEvtWaitAllTimeout:00000000 chEvtWaitAllTimeout
     /tmp/ccevInyS.s:1401   .text.chEvtWaitAllTimeout:00000064 $d
     /tmp/ccevInyS.s:1406   .rodata.str1.4:00000000 $d
                     .debug_frame:00000010 $d
     /tmp/ccevInyS.s:112    .text.chEvtRegisterMask:00000044 $t
     /tmp/ccevInyS.s:483    .text.chEvtSignalI:0000004c $t
     /tmp/ccevInyS.s:560    .text.chEvtSignal:00000038 $t
     /tmp/ccevInyS.s:628    .text.chEvtBroadcastFlagsI:00000034 $t
     /tmp/ccevInyS.s:896    .text.chEvtWaitOne:00000044 $t
     /tmp/ccevInyS.s:1172   .text.chEvtWaitOneTimeout:0000005c $t
     /tmp/ccevInyS.s:1281   .text.chEvtWaitAnyTimeout:00000058 $t
ARM GAS  /tmp/ccevInyS.s 			page 103


     /tmp/ccevInyS.s:1405   .text.chEvtWaitAllTimeout:00000068 $t

UNDEFINED SYMBOLS
dbg_check_lock
dbg_check_unlock
chDbgPanic
rlist
chDbgCheckClassI
chSchReadyI
chSchRescheduleS
chSchGoSleepS
chSchGoSleepTimeoutS
