ARM GAS  /tmp/ccevInyS.s 			page 1


   1              		.syntax unified
   2              		.cpu cortex-m4
   3              		.fpu softvfp
   4              		.eabi_attribute 20, 1
   5              		.eabi_attribute 21, 1
   6              		.eabi_attribute 23, 3
   7              		.eabi_attribute 24, 1
   8              		.eabi_attribute 25, 1
   9              		.eabi_attribute 26, 1
  10              		.eabi_attribute 30, 2
  11              		.eabi_attribute 34, 1
  12              		.eabi_attribute 18, 4
  13              		.thumb
  14              		.file	"chevents.c"
  15              		.text
  16              	.Ltext0:
  17              		.cfi_sections	.debug_frame
  18              		.section	.text.chEvtRegisterMask,"ax",%progbits
  19              		.align	2
  20              		.p2align 4,,15
  21              		.global	chEvtRegisterMask
  22              		.thumb
  23              		.thumb_func
  24              		.type	chEvtRegisterMask, %function
  25              	chEvtRegisterMask:
  26              	.LFB7:
  27              		.file 1 "../../../os/kernel/src/chevents.c"
  28              		.loc 1 85 0
  29              		.cfi_startproc
  30              		@ args = 0, pretend = 0, frame = 0
  31              		@ frame_needed = 0, uses_anonymous_args = 0
  32              	.LVL0:
  33 0000 F8B5     		push	{r3, r4, r5, r6, r7, lr}
  34              	.LCFI0:
  35              		.cfi_def_cfa_offset 24
  36              		.cfi_offset 3, -24
  37              		.cfi_offset 4, -20
  38              		.cfi_offset 5, -16
  39              		.cfi_offset 6, -12
  40              		.cfi_offset 7, -8
  41              		.cfi_offset 14, -4
  42              		.loc 1 87 0
  43 0002 0546     		mov	r5, r0
  44              		.loc 1 85 0
  45 0004 0C46     		mov	r4, r1
  46 0006 1746     		mov	r7, r2
  47              		.loc 1 87 0
  48 0008 A0B1     		cbz	r0, .L2
  49              		.loc 1 87 0 is_stmt 0 discriminator 2
  50 000a 99B1     		cbz	r1, .L2
  51              	.LVL1:
  52              	.L3:
  53              	.LBB2:
  54              		.loc 1 89 0 is_stmt 1
  55 000c 2023     		movs	r3, #32
  56              	.LVL2:
  57              	@ 89 "../../../os/kernel/src/chevents.c" 1
ARM GAS  /tmp/ccevInyS.s 			page 2


  58 000e 83F31188 		msr     BASEPRI, r3
  59              	@ 0 "" 2
  60              	.LVL3:
  61              		.thumb
  62              	.LBE2:
  63 0012 FFF7FEFF 		bl	dbg_check_lock
  64              	.LVL4:
  65              		.loc 1 92 0
  66 0016 094B     		ldr	r3, .L8
  67              		.loc 1 90 0
  68 0018 2A68     		ldr	r2, [r5, #0]
  69              		.loc 1 92 0
  70 001a 9869     		ldr	r0, [r3, #24]
  71              		.loc 1 90 0
  72 001c 2260     		str	r2, [r4, #0]
  73              		.loc 1 94 0
  74 001e 0026     		movs	r6, #0
  75              		.loc 1 91 0
  76 0020 2C60     		str	r4, [r5, #0]
  77              		.loc 1 92 0
  78 0022 6060     		str	r0, [r4, #4]
  79              		.loc 1 93 0
  80 0024 A760     		str	r7, [r4, #8]
  81              		.loc 1 94 0
  82 0026 E660     		str	r6, [r4, #12]
  83              		.loc 1 95 0
  84 0028 FFF7FEFF 		bl	dbg_check_unlock
  85              	.LVL5:
  86              	.LBB3:
  87 002c 3346     		mov	r3, r6
  88              	.LVL6:
  89              	@ 95 "../../../os/kernel/src/chevents.c" 1
  90 002e 83F31188 		msr     BASEPRI, r3
  91              	@ 0 "" 2
  92              	.LVL7:
  93              		.thumb
  94 0032 F8BD     		pop	{r3, r4, r5, r6, r7, pc}
  95              	.LVL8:
  96              	.L2:
  97              	.LBE3:
  98              		.loc 1 87 0 discriminator 1
  99 0034 0248     		ldr	r0, .L8+4
 100              	.LVL9:
 101 0036 FFF7FEFF 		bl	chDbgPanic
 102              	.LVL10:
 103 003a E7E7     		b	.L3
 104              	.L9:
 105              		.align	2
 106              	.L8:
 107 003c 00000000 		.word	rlist
 108 0040 00000000 		.word	.LC0
 109              		.cfi_endproc
 110              	.LFE7:
 111              		.size	chEvtRegisterMask, .-chEvtRegisterMask
 112 0044 AFF30080 		.section	.text.chEvtUnregister,"ax",%progbits
 112      AFF30080 
 112      AFF30080 
ARM GAS  /tmp/ccevInyS.s 			page 3


 113              		.align	2
 114              		.p2align 4,,15
 115              		.global	chEvtUnregister
 116              		.thumb
 117              		.thumb_func
 118              		.type	chEvtUnregister, %function
 119              	chEvtUnregister:
 120              	.LFB8:
 121              		.loc 1 111 0
 122              		.cfi_startproc
 123              		@ args = 0, pretend = 0, frame = 0
 124              		@ frame_needed = 0, uses_anonymous_args = 0
 125              	.LVL11:
 126 0000 38B5     		push	{r3, r4, r5, lr}
 127              	.LCFI1:
 128              		.cfi_def_cfa_offset 16
 129              		.cfi_offset 3, -16
 130              		.cfi_offset 4, -12
 131              		.cfi_offset 5, -8
 132              		.cfi_offset 14, -4
 133              		.loc 1 114 0
 134 0002 0446     		mov	r4, r0
 135              		.loc 1 111 0
 136 0004 0D46     		mov	r5, r1
 137              		.loc 1 114 0
 138 0006 A8B1     		cbz	r0, .L11
 139              		.loc 1 114 0 is_stmt 0 discriminator 2
 140 0008 A1B1     		cbz	r1, .L11
 141              	.LVL12:
 142              	.L12:
 143              	.LBB4:
 144              		.loc 1 117 0 is_stmt 1
 145 000a 2023     		movs	r3, #32
 146              	.LVL13:
 147              	@ 117 "../../../os/kernel/src/chevents.c" 1
 148 000c 83F31188 		msr     BASEPRI, r3
 149              	@ 0 "" 2
 150              	.LVL14:
 151              		.thumb
 152              	.LBE4:
 153 0010 FFF7FEFF 		bl	dbg_check_lock
 154              	.LVL15:
 155              		.loc 1 118 0
 156 0014 2246     		mov	r2, r4
 157 0016 00E0     		b	.L13
 158              	.LVL16:
 159              	.L16:
 160              		.loc 1 119 0
 161 0018 1A46     		mov	r2, r3
 162              	.LVL17:
 163              	.L13:
 164              		.loc 1 118 0 discriminator 1
 165 001a 1368     		ldr	r3, [r2, #0]
 166 001c A342     		cmp	r3, r4
 167 001e 03D0     		beq	.L14
 168              		.loc 1 119 0
 169 0020 9D42     		cmp	r5, r3
ARM GAS  /tmp/ccevInyS.s 			page 4


 170 0022 F9D1     		bne	.L16
 171              		.loc 1 120 0
 172 0024 2868     		ldr	r0, [r5, #0]
 173 0026 1060     		str	r0, [r2, #0]
 174              	.L14:
 175              		.loc 1 125 0
 176 0028 FFF7FEFF 		bl	dbg_check_unlock
 177              	.LVL18:
 178              	.LBB5:
 179 002c 0023     		movs	r3, #0
 180              	.LVL19:
 181              	@ 125 "../../../os/kernel/src/chevents.c" 1
 182 002e 83F31188 		msr     BASEPRI, r3
 183              	@ 0 "" 2
 184              	.LVL20:
 185              		.thumb
 186 0032 38BD     		pop	{r3, r4, r5, pc}
 187              	.LVL21:
 188              	.L11:
 189              	.LBE5:
 190              		.loc 1 114 0 discriminator 1
 191 0034 0148     		ldr	r0, .L20
 192              	.LVL22:
 193 0036 FFF7FEFF 		bl	chDbgPanic
 194              	.LVL23:
 195 003a E6E7     		b	.L12
 196              	.L21:
 197              		.align	2
 198              	.L20:
 199 003c 18000000 		.word	.LC1
 200              		.cfi_endproc
 201              	.LFE8:
 202              		.size	chEvtUnregister, .-chEvtUnregister
 203              		.section	.text.chEvtGetAndClearEvents,"ax",%progbits
 204              		.align	2
 205              		.p2align 4,,15
 206              		.global	chEvtGetAndClearEvents
 207              		.thumb
 208              		.thumb_func
 209              		.type	chEvtGetAndClearEvents, %function
 210              	chEvtGetAndClearEvents:
 211              	.LFB9:
 212              		.loc 1 136 0
 213              		.cfi_startproc
 214              		@ args = 0, pretend = 0, frame = 0
 215              		@ frame_needed = 0, uses_anonymous_args = 0
 216              	.LVL24:
 217 0000 10B5     		push	{r4, lr}
 218              	.LCFI2:
 219              		.cfi_def_cfa_offset 8
 220              		.cfi_offset 4, -8
 221              		.cfi_offset 14, -4
 222              	.LBB6:
 223              		.loc 1 139 0
 224 0002 2023     		movs	r3, #32
 225              	.LVL25:
 226              	.LBE6:
ARM GAS  /tmp/ccevInyS.s 			page 5


 227              		.loc 1 136 0
 228 0004 0446     		mov	r4, r0
 229              	.LBB7:
 230              		.loc 1 139 0
 231              	@ 139 "../../../os/kernel/src/chevents.c" 1
 232 0006 83F31188 		msr     BASEPRI, r3
 233              	@ 0 "" 2
 234              	.LVL26:
 235              		.thumb
 236              	.LBE7:
 237 000a FFF7FEFF 		bl	dbg_check_lock
 238              	.LVL27:
 239              		.loc 1 141 0
 240 000e 40F20003 		movw	r3, #:lower16:rlist
 241 0012 C0F20003 		movt	r3, #:upper16:rlist
 242 0016 9969     		ldr	r1, [r3, #24]
 243 0018 C86B     		ldr	r0, [r1, #60]
 244              		.loc 1 142 0
 245 001a 20EA0402 		bic	r2, r0, r4
 246 001e CA63     		str	r2, [r1, #60]
 247              		.loc 1 141 0
 248 0020 0440     		ands	r4, r4, r0
 249              	.LVL28:
 250              		.loc 1 144 0
 251 0022 FFF7FEFF 		bl	dbg_check_unlock
 252              	.LVL29:
 253              	.LBB8:
 254 0026 0023     		movs	r3, #0
 255              	.LVL30:
 256              	@ 144 "../../../os/kernel/src/chevents.c" 1
 257 0028 83F31188 		msr     BASEPRI, r3
 258              	@ 0 "" 2
 259              	.LVL31:
 260              		.thumb
 261              	.LBE8:
 262              		.loc 1 146 0
 263 002c 2046     		mov	r0, r4
 264 002e 10BD     		pop	{r4, pc}
 265              		.cfi_endproc
 266              	.LFE9:
 267              		.size	chEvtGetAndClearEvents, .-chEvtGetAndClearEvents
 268              		.section	.text.chEvtAddEvents,"ax",%progbits
 269              		.align	2
 270              		.p2align 4,,15
 271              		.global	chEvtAddEvents
 272              		.thumb
 273              		.thumb_func
 274              		.type	chEvtAddEvents, %function
 275              	chEvtAddEvents:
 276              	.LFB10:
 277              		.loc 1 157 0
 278              		.cfi_startproc
 279              		@ args = 0, pretend = 0, frame = 0
 280              		@ frame_needed = 0, uses_anonymous_args = 0
 281              	.LVL32:
 282 0000 10B5     		push	{r4, lr}
 283              	.LCFI3:
ARM GAS  /tmp/ccevInyS.s 			page 6


 284              		.cfi_def_cfa_offset 8
 285              		.cfi_offset 4, -8
 286              		.cfi_offset 14, -4
 287              	.LBB9:
 288              		.loc 1 159 0
 289 0002 2023     		movs	r3, #32
 290              	.LVL33:
 291              	.LBE9:
 292              		.loc 1 157 0
 293 0004 0446     		mov	r4, r0
 294              	.LBB10:
 295              		.loc 1 159 0
 296              	@ 159 "../../../os/kernel/src/chevents.c" 1
 297 0006 83F31188 		msr     BASEPRI, r3
 298              	@ 0 "" 2
 299              	.LVL34:
 300              		.thumb
 301              	.LBE10:
 302 000a FFF7FEFF 		bl	dbg_check_lock
 303              	.LVL35:
 304              		.loc 1 161 0
 305 000e 40F20003 		movw	r3, #:lower16:rlist
 306 0012 C0F20003 		movt	r3, #:upper16:rlist
 307 0016 9869     		ldr	r0, [r3, #24]
 308 0018 C26B     		ldr	r2, [r0, #60]
 309 001a 1443     		orrs	r4, r4, r2
 310              	.LVL36:
 311 001c C463     		str	r4, [r0, #60]
 312              	.LVL37:
 313              		.loc 1 163 0
 314 001e FFF7FEFF 		bl	dbg_check_unlock
 315              	.LVL38:
 316              	.LBB11:
 317 0022 0023     		movs	r3, #0
 318              	.LVL39:
 319              	@ 163 "../../../os/kernel/src/chevents.c" 1
 320 0024 83F31188 		msr     BASEPRI, r3
 321              	@ 0 "" 2
 322              	.LVL40:
 323              		.thumb
 324              	.LBE11:
 325              		.loc 1 165 0
 326 0028 2046     		mov	r0, r4
 327 002a 10BD     		pop	{r4, pc}
 328              		.cfi_endproc
 329              	.LFE10:
 330              		.size	chEvtAddEvents, .-chEvtAddEvents
 331 002c AFF30080 		.section	.text.chEvtGetAndClearFlags,"ax",%progbits
 332              		.align	2
 333              		.p2align 4,,15
 334              		.global	chEvtGetAndClearFlags
 335              		.thumb
 336              		.thumb_func
 337              		.type	chEvtGetAndClearFlags, %function
 338              	chEvtGetAndClearFlags:
 339              	.LFB12:
 340              		.loc 1 209 0
ARM GAS  /tmp/ccevInyS.s 			page 7


 341              		.cfi_startproc
 342              		@ args = 0, pretend = 0, frame = 0
 343              		@ frame_needed = 0, uses_anonymous_args = 0
 344              	.LVL41:
 345 0000 70B5     		push	{r4, r5, r6, lr}
 346              	.LCFI4:
 347              		.cfi_def_cfa_offset 16
 348              		.cfi_offset 4, -16
 349              		.cfi_offset 5, -12
 350              		.cfi_offset 6, -8
 351              		.cfi_offset 14, -4
 352              	.LBB12:
 353              		.loc 1 212 0
 354 0002 2023     		movs	r3, #32
 355              	.LVL42:
 356              	.LBE12:
 357              		.loc 1 209 0
 358 0004 0546     		mov	r5, r0
 359              	.LBB13:
 360              		.loc 1 212 0
 361              	@ 212 "../../../os/kernel/src/chevents.c" 1
 362 0006 83F31188 		msr     BASEPRI, r3
 363              	@ 0 "" 2
 364              	.LVL43:
 365              		.thumb
 366              	.LBE13:
 367              		.loc 1 215 0
 368 000a 0024     		movs	r4, #0
 369              		.loc 1 212 0
 370 000c FFF7FEFF 		bl	dbg_check_lock
 371              	.LVL44:
 372              		.loc 1 214 0
 373 0010 EE68     		ldr	r6, [r5, #12]
 374              	.LVL45:
 375              		.loc 1 215 0
 376 0012 EC60     		str	r4, [r5, #12]
 377              		.loc 1 217 0
 378 0014 FFF7FEFF 		bl	dbg_check_unlock
 379              	.LVL46:
 380              	.LBB14:
 381 0018 2346     		mov	r3, r4
 382              	.LVL47:
 383              	@ 217 "../../../os/kernel/src/chevents.c" 1
 384 001a 83F31188 		msr     BASEPRI, r3
 385              	@ 0 "" 2
 386              	.LVL48:
 387              		.thumb
 388              	.LBE14:
 389              		.loc 1 219 0
 390 001e 3046     		mov	r0, r6
 391 0020 70BD     		pop	{r4, r5, r6, pc}
 392              		.cfi_endproc
 393              	.LFE12:
 394              		.size	chEvtGetAndClearFlags, .-chEvtGetAndClearFlags
 395 0022 00BFAFF3 		.section	.text.chEvtSignalI,"ax",%progbits
 395      0080AFF3 
 395      0080AFF3 
ARM GAS  /tmp/ccevInyS.s 			page 8


 395      0080
 396              		.align	2
 397              		.p2align 4,,15
 398              		.global	chEvtSignalI
 399              		.thumb
 400              		.thumb_func
 401              		.type	chEvtSignalI, %function
 402              	chEvtSignalI:
 403              	.LFB14:
 404              		.loc 1 251 0
 405              		.cfi_startproc
 406              		@ args = 0, pretend = 0, frame = 0
 407              		@ frame_needed = 0, uses_anonymous_args = 0
 408              	.LVL49:
 409 0000 38B5     		push	{r3, r4, r5, lr}
 410              	.LCFI5:
 411              		.cfi_def_cfa_offset 16
 412              		.cfi_offset 3, -16
 413              		.cfi_offset 4, -12
 414              		.cfi_offset 5, -8
 415              		.cfi_offset 14, -4
 416              		.loc 1 251 0
 417 0002 0446     		mov	r4, r0
 418 0004 0D46     		mov	r5, r1
 419              		.loc 1 253 0
 420 0006 FFF7FEFF 		bl	chDbgCheckClassI
 421              	.LVL50:
 422              		.loc 1 254 0
 423 000a C4B1     		cbz	r4, .L30
 424              	.L26:
 425              		.loc 1 256 0
 426 000c E26B     		ldr	r2, [r4, #60]
 427              		.loc 1 258 0
 428 000e 94F82030 		ldrb	r3, [r4, #32]	@ zero_extendqisi2
 429              		.loc 1 256 0
 430 0012 45EA0201 		orr	r1, r5, r2
 431              		.loc 1 258 0
 432 0016 082B     		cmp	r3, #8
 433              		.loc 1 256 0
 434 0018 E163     		str	r1, [r4, #60]
 435              		.loc 1 258 0
 436 001a 0CD0     		beq	.L31
 437              		.loc 1 259 0
 438 001c 092B     		cmp	r3, #9
 439 001e 00D0     		beq	.L32
 440              	.L25:
 441 0020 38BD     		pop	{r3, r4, r5, pc}
 442              	.L32:
 443              		.loc 1 261 0
 444 0022 A06A     		ldr	r0, [r4, #40]
 445 0024 0140     		ands	r1, r1, r0
 446              		.loc 1 260 0
 447 0026 8842     		cmp	r0, r1
 448 0028 FAD1     		bne	.L25
 449              	.L28:
 450              	.LVL51:
 451              	.LBB17:
ARM GAS  /tmp/ccevInyS.s 			page 9


 452              	.LBB18:
 453              		.loc 1 262 0
 454 002a 2046     		mov	r0, r4
 455 002c FFF7FEFF 		bl	chSchReadyI
 456              	.LVL52:
 457 0030 0023     		movs	r3, #0
 458 0032 8362     		str	r3, [r0, #40]
 459 0034 38BD     		pop	{r3, r4, r5, pc}
 460              	.LVL53:
 461              	.L31:
 462              	.LBE18:
 463              	.LBE17:
 464              		.loc 1 259 0 discriminator 1
 465 0036 A26A     		ldr	r2, [r4, #40]
 466              		.loc 1 258 0 discriminator 1
 467 0038 1142     		tst	r1, r2
 468 003a F6D1     		bne	.L28
 469 003c 38BD     		pop	{r3, r4, r5, pc}
 470              	.L30:
 471              		.loc 1 254 0 discriminator 1
 472 003e 0248     		ldr	r0, .L33
 473 0040 FFF7FEFF 		bl	chDbgPanic
 474              	.LVL54:
 475 0044 E2E7     		b	.L26
 476              	.L34:
 477 0046 00BF     		.align	2
 478              	.L33:
 479 0048 2C000000 		.word	.LC2
 480              		.cfi_endproc
 481              	.LFE14:
 482              		.size	chEvtSignalI, .-chEvtSignalI
 483 004c AFF30080 		.section	.text.chEvtSignal,"ax",%progbits
 484              		.align	2
 485              		.p2align 4,,15
 486              		.global	chEvtSignal
 487              		.thumb
 488              		.thumb_func
 489              		.type	chEvtSignal, %function
 490              	chEvtSignal:
 491              	.LFB13:
 492              		.loc 1 229 0
 493              		.cfi_startproc
 494              		@ args = 0, pretend = 0, frame = 0
 495              		@ frame_needed = 0, uses_anonymous_args = 0
 496              	.LVL55:
 497 0000 38B5     		push	{r3, r4, r5, lr}
 498              	.LCFI6:
 499              		.cfi_def_cfa_offset 16
 500              		.cfi_offset 3, -16
 501              		.cfi_offset 4, -12
 502              		.cfi_offset 5, -8
 503              		.cfi_offset 14, -4
 504              		.loc 1 231 0
 505 0002 0446     		mov	r4, r0
 506              		.loc 1 229 0
 507 0004 0D46     		mov	r5, r1
 508              		.loc 1 231 0
ARM GAS  /tmp/ccevInyS.s 			page 10


 509 0006 80B1     		cbz	r0, .L37
 510              	.LVL56:
 511              	.L36:
 512              	.LBB19:
 513              		.loc 1 233 0
 514 0008 2023     		movs	r3, #32
 515              	.LVL57:
 516              	@ 233 "../../../os/kernel/src/chevents.c" 1
 517 000a 83F31188 		msr     BASEPRI, r3
 518              	@ 0 "" 2
 519              	.LVL58:
 520              		.thumb
 521              	.LBE19:
 522 000e FFF7FEFF 		bl	dbg_check_lock
 523              	.LVL59:
 524              		.loc 1 234 0
 525 0012 2046     		mov	r0, r4
 526 0014 2946     		mov	r1, r5
 527 0016 FFF7FEFF 		bl	chEvtSignalI
 528              	.LVL60:
 529              		.loc 1 235 0
 530 001a FFF7FEFF 		bl	chSchRescheduleS
 531              	.LVL61:
 532              		.loc 1 236 0
 533 001e FFF7FEFF 		bl	dbg_check_unlock
 534              	.LVL62:
 535              	.LBB20:
 536 0022 0023     		movs	r3, #0
 537              	.LVL63:
 538              	@ 236 "../../../os/kernel/src/chevents.c" 1
 539 0024 83F31188 		msr     BASEPRI, r3
 540              	@ 0 "" 2
 541              	.LVL64:
 542              		.thumb
 543 0028 38BD     		pop	{r3, r4, r5, pc}
 544              	.LVL65:
 545              	.L37:
 546              	.LBE20:
 547              		.loc 1 231 0 discriminator 1
 548 002a 0248     		ldr	r0, .L38
 549              	.LVL66:
 550 002c FFF7FEFF 		bl	chDbgPanic
 551              	.LVL67:
 552 0030 EAE7     		b	.L36
 553              	.L39:
 554 0032 00BF     		.align	2
 555              	.L38:
 556 0034 40000000 		.word	.LC3
 557              		.cfi_endproc
 558              	.LFE13:
 559              		.size	chEvtSignal, .-chEvtSignal
 560 0038 AFF30080 		.section	.text.chEvtBroadcastFlagsI,"ax",%progbits
 560      AFF30080 
 561              		.align	2
 562              		.p2align 4,,15
 563              		.global	chEvtBroadcastFlagsI
 564              		.thumb
ARM GAS  /tmp/ccevInyS.s 			page 11


 565              		.thumb_func
 566              		.type	chEvtBroadcastFlagsI, %function
 567              	chEvtBroadcastFlagsI:
 568              	.LFB11:
 569              		.loc 1 184 0
 570              		.cfi_startproc
 571              		@ args = 0, pretend = 0, frame = 0
 572              		@ frame_needed = 0, uses_anonymous_args = 0
 573              	.LVL68:
 574 0000 70B5     		push	{r4, r5, r6, lr}
 575              	.LCFI7:
 576              		.cfi_def_cfa_offset 16
 577              		.cfi_offset 4, -16
 578              		.cfi_offset 5, -12
 579              		.cfi_offset 6, -8
 580              		.cfi_offset 14, -4
 581              		.loc 1 184 0
 582 0002 0546     		mov	r5, r0
 583 0004 0E46     		mov	r6, r1
 584              		.loc 1 187 0
 585 0006 FFF7FEFF 		bl	chDbgCheckClassI
 586              	.LVL69:
 587              		.loc 1 188 0
 588 000a 65B1     		cbz	r5, .L47
 589              	.L41:
 590              		.loc 1 190 0
 591 000c 2C68     		ldr	r4, [r5, #0]
 592              	.LVL70:
 593              		.loc 1 191 0
 594 000e A542     		cmp	r5, r4
 595 0010 08D0     		beq	.L40
 596              	.L45:
 597              		.loc 1 193 0
 598 0012 201D     		adds	r0, r4, #4
 599 0014 0BC8     		ldmia	r0, {r0, r1, r3}
 600              		.loc 1 192 0
 601 0016 3343     		orrs	r3, r3, r6
 602 0018 E360     		str	r3, [r4, #12]
 603              		.loc 1 193 0
 604 001a FFF7FEFF 		bl	chEvtSignalI
 605              	.LVL71:
 606              		.loc 1 194 0
 607 001e 2468     		ldr	r4, [r4, #0]
 608              	.LVL72:
 609              		.loc 1 191 0
 610 0020 A542     		cmp	r5, r4
 611 0022 F6D1     		bne	.L45
 612              	.L40:
 613 0024 70BD     		pop	{r4, r5, r6, pc}
 614              	.LVL73:
 615              	.L47:
 616              		.loc 1 188 0 discriminator 1
 617 0026 0248     		ldr	r0, .L48
 618 0028 FFF7FEFF 		bl	chDbgPanic
 619              	.LVL74:
 620 002c EEE7     		b	.L41
 621              	.L49:
ARM GAS  /tmp/ccevInyS.s 			page 12


 622 002e 00BF     		.align	2
 623              	.L48:
 624 0030 50000000 		.word	.LC4
 625              		.cfi_endproc
 626              	.LFE11:
 627              		.size	chEvtBroadcastFlagsI, .-chEvtBroadcastFlagsI
 628 0034 AFF30080 		.section	.text.chEvtBroadcastFlags,"ax",%progbits
 628      AFF30080 
 628      AFF30080 
 629              		.align	2
 630              		.p2align 4,,15
 631              		.global	chEvtBroadcastFlags
 632              		.thumb
 633              		.thumb_func
 634              		.type	chEvtBroadcastFlags, %function
 635              	chEvtBroadcastFlags:
 636              	.LFB15:
 637              		.loc 1 278 0
 638              		.cfi_startproc
 639              		@ args = 0, pretend = 0, frame = 0
 640              		@ frame_needed = 0, uses_anonymous_args = 0
 641              	.LVL75:
 642 0000 38B5     		push	{r3, r4, r5, lr}
 643              	.LCFI8:
 644              		.cfi_def_cfa_offset 16
 645              		.cfi_offset 3, -16
 646              		.cfi_offset 4, -12
 647              		.cfi_offset 5, -8
 648              		.cfi_offset 14, -4
 649              		.loc 1 278 0
 650 0002 0546     		mov	r5, r0
 651 0004 0C46     		mov	r4, r1
 652              	.LBB21:
 653              		.loc 1 280 0
 654 0006 2023     		movs	r3, #32
 655              	.LVL76:
 656              	@ 280 "../../../os/kernel/src/chevents.c" 1
 657 0008 83F31188 		msr     BASEPRI, r3
 658              	@ 0 "" 2
 659              	.LVL77:
 660              		.thumb
 661              	.LBE21:
 662 000c FFF7FEFF 		bl	dbg_check_lock
 663              	.LVL78:
 664              		.loc 1 281 0
 665 0010 2846     		mov	r0, r5
 666 0012 2146     		mov	r1, r4
 667 0014 FFF7FEFF 		bl	chEvtBroadcastFlagsI
 668              	.LVL79:
 669              		.loc 1 282 0
 670 0018 FFF7FEFF 		bl	chSchRescheduleS
 671              	.LVL80:
 672              		.loc 1 283 0
 673 001c FFF7FEFF 		bl	dbg_check_unlock
 674              	.LVL81:
 675              	.LBB22:
 676 0020 0023     		movs	r3, #0
ARM GAS  /tmp/ccevInyS.s 			page 13


 677              	.LVL82:
 678              	@ 283 "../../../os/kernel/src/chevents.c" 1
 679 0022 83F31188 		msr     BASEPRI, r3
 680              	@ 0 "" 2
 681              	.LVL83:
 682              		.thumb
 683 0026 38BD     		pop	{r3, r4, r5, pc}
 684              	.LBE22:
 685              		.cfi_endproc
 686              	.LFE15:
 687              		.size	chEvtBroadcastFlags, .-chEvtBroadcastFlags
 688 0028 AFF30080 		.section	.text.chEvtGetAndClearFlagsI,"ax",%progbits
 688      AFF30080 
 689              		.align	2
 690              		.p2align 4,,15
 691              		.global	chEvtGetAndClearFlagsI
 692              		.thumb
 693              		.thumb_func
 694              		.type	chEvtGetAndClearFlagsI, %function
 695              	chEvtGetAndClearFlagsI:
 696              	.LFB16:
 697              		.loc 1 297 0
 698              		.cfi_startproc
 699              		@ args = 0, pretend = 0, frame = 0
 700              		@ frame_needed = 0, uses_anonymous_args = 0
 701              		@ link register save eliminated.
 702              	.LVL84:
 703              		.loc 1 297 0
 704 0000 0346     		mov	r3, r0
 705              		.loc 1 301 0
 706 0002 0022     		movs	r2, #0
 707              		.loc 1 300 0
 708 0004 C068     		ldr	r0, [r0, #12]
 709              	.LVL85:
 710              		.loc 1 301 0
 711 0006 DA60     		str	r2, [r3, #12]
 712              		.loc 1 304 0
 713 0008 7047     		bx	lr
 714              		.cfi_endproc
 715              	.LFE16:
 716              		.size	chEvtGetAndClearFlagsI, .-chEvtGetAndClearFlagsI
 717 000a 00BFAFF3 		.section	.text.chEvtDispatch,"ax",%progbits
 717      0080
 718              		.align	2
 719              		.p2align 4,,15
 720              		.global	chEvtDispatch
 721              		.thumb
 722              		.thumb_func
 723              		.type	chEvtDispatch, %function
 724              	chEvtDispatch:
 725              	.LFB17:
 726              		.loc 1 315 0
 727              		.cfi_startproc
 728              		@ args = 0, pretend = 0, frame = 0
 729              		@ frame_needed = 0, uses_anonymous_args = 0
 730              	.LVL86:
 731 0000 2DE9F041 		push	{r4, r5, r6, r7, r8, lr}
ARM GAS  /tmp/ccevInyS.s 			page 14


 732              	.LCFI9:
 733              		.cfi_def_cfa_offset 24
 734              		.cfi_offset 4, -24
 735              		.cfi_offset 5, -20
 736              		.cfi_offset 6, -16
 737              		.cfi_offset 7, -12
 738              		.cfi_offset 8, -8
 739              		.cfi_offset 14, -4
 740              		.loc 1 318 0
 741 0004 8046     		mov	r8, r0
 742              		.loc 1 315 0
 743 0006 0D46     		mov	r5, r1
 744              		.loc 1 318 0
 745 0008 D0B1     		cbz	r0, .L63
 746              	.LVL87:
 747              	.L53:
 748              		.loc 1 321 0 discriminator 1
 749 000a 8DB1     		cbz	r5, .L52
 750              		.loc 1 321 0 is_stmt 0
 751 000c 0026     		movs	r6, #0
 752 000e 3446     		mov	r4, r6
 753              		.loc 1 322 0 is_stmt 1
 754 0010 0127     		movs	r7, #1
 755              	.LVL88:
 756              	.L54:
 757 0012 07FA04F3 		lsl	r3, r7, r4
 758 0016 2B42     		tst	r3, r5
 759 0018 06D0     		beq	.L55
 760              		.loc 1 323 0
 761 001a 58F80620 		ldr	r2, [r8, r6]
 762              		.loc 1 326 0
 763 001e 25EA0305 		bic	r5, r5, r3
 764              	.LVL89:
 765              		.loc 1 323 0
 766 0022 3AB1     		cbz	r2, .L64
 767              	.L56:
 768              	.LVL90:
 769              		.loc 1 327 0
 770 0024 2046     		mov	r0, r4
 771 0026 9047     		blx	r2
 772              	.LVL91:
 773              	.L55:
 774              		.loc 1 329 0
 775 0028 0134     		adds	r4, r4, #1
 776              	.LVL92:
 777 002a 0436     		adds	r6, r6, #4
 778              		.loc 1 321 0
 779 002c 002D     		cmp	r5, #0
 780 002e F0D1     		bne	.L54
 781              	.LVL93:
 782              	.L52:
 783 0030 BDE8F081 		pop	{r4, r5, r6, r7, r8, pc}
 784              	.LVL94:
 785              	.L64:
 786              		.loc 1 323 0 discriminator 1
 787 0034 0448     		ldr	r0, .L65
 788 0036 FFF7FEFF 		bl	chDbgPanic
ARM GAS  /tmp/ccevInyS.s 			page 15


 789              	.LVL95:
 790 003a 58F80620 		ldr	r2, [r8, r6]
 791 003e F1E7     		b	.L56
 792              	.LVL96:
 793              	.L63:
 794              		.loc 1 318 0 discriminator 1
 795 0040 0248     		ldr	r0, .L65+4
 796              	.LVL97:
 797 0042 FFF7FEFF 		bl	chDbgPanic
 798              	.LVL98:
 799 0046 E0E7     		b	.L53
 800              	.L66:
 801              		.align	2
 802              	.L65:
 803 0048 7C000000 		.word	.LC6
 804 004c 68000000 		.word	.LC5
 805              		.cfi_endproc
 806              	.LFE17:
 807              		.size	chEvtDispatch, .-chEvtDispatch
 808              		.section	.text.chEvtWaitOne,"ax",%progbits
 809              		.align	2
 810              		.p2align 4,,15
 811              		.global	chEvtWaitOne
 812              		.thumb
 813              		.thumb_func
 814              		.type	chEvtWaitOne, %function
 815              	chEvtWaitOne:
 816              	.LFB18:
 817              		.loc 1 350 0
 818              		.cfi_startproc
 819              		@ args = 0, pretend = 0, frame = 0
 820              		@ frame_needed = 0, uses_anonymous_args = 0
 821              	.LVL99:
 822 0000 38B5     		push	{r3, r4, r5, lr}
 823              	.LCFI10:
 824              		.cfi_def_cfa_offset 16
 825              		.cfi_offset 3, -16
 826              		.cfi_offset 4, -12
 827              		.cfi_offset 5, -8
 828              		.cfi_offset 14, -4
 829              		.loc 1 351 0
 830 0002 0F4B     		ldr	r3, .L69
 831              		.loc 1 350 0
 832 0004 0446     		mov	r4, r0
 833              		.loc 1 351 0
 834 0006 9D69     		ldr	r5, [r3, #24]
 835              	.LVL100:
 836              	.LBB23:
 837              		.loc 1 354 0
 838 0008 2023     		movs	r3, #32
 839              	.LVL101:
 840              	@ 354 "../../../os/kernel/src/chevents.c" 1
 841 000a 83F31188 		msr     BASEPRI, r3
 842              	@ 0 "" 2
 843              	.LVL102:
 844              		.thumb
 845              	.LBE23:
ARM GAS  /tmp/ccevInyS.s 			page 16


 846 000e FFF7FEFF 		bl	dbg_check_lock
 847              	.LVL103:
 848              		.loc 1 356 0
 849 0012 E86B     		ldr	r0, [r5, #60]
 850              	.LVL104:
 851 0014 14EA0002 		ands	r2, r4, r0
 852              	.LVL105:
 853 0018 06D1     		bne	.L68
 854              		.loc 1 358 0
 855 001a 0820     		movs	r0, #8
 856              		.loc 1 357 0
 857 001c AC62     		str	r4, [r5, #40]
 858              		.loc 1 358 0
 859 001e FFF7FEFF 		bl	chSchGoSleepS
 860              	.LVL106:
 861              		.loc 1 359 0
 862 0022 E86B     		ldr	r0, [r5, #60]
 863 0024 04EA0002 		and	r2, r4, r0
 864              	.LVL107:
 865              	.L68:
 866              		.loc 1 361 0
 867 0028 5442     		negs	r4, r2
 868              	.LVL108:
 869 002a 1440     		ands	r4, r4, r2
 870              	.LVL109:
 871              		.loc 1 362 0
 872 002c 20EA0400 		bic	r0, r0, r4
 873 0030 E863     		str	r0, [r5, #60]
 874              		.loc 1 364 0
 875 0032 FFF7FEFF 		bl	dbg_check_unlock
 876              	.LVL110:
 877              	.LBB24:
 878 0036 0023     		movs	r3, #0
 879              	.LVL111:
 880              	@ 364 "../../../os/kernel/src/chevents.c" 1
 881 0038 83F31188 		msr     BASEPRI, r3
 882              	@ 0 "" 2
 883              	.LVL112:
 884              		.thumb
 885              	.LBE24:
 886              		.loc 1 366 0
 887 003c 2046     		mov	r0, r4
 888 003e 38BD     		pop	{r3, r4, r5, pc}
 889              	.L70:
 890              		.align	2
 891              	.L69:
 892 0040 00000000 		.word	rlist
 893              		.cfi_endproc
 894              	.LFE18:
 895              		.size	chEvtWaitOne, .-chEvtWaitOne
 896 0044 AFF30080 		.section	.text.chEvtWaitAny,"ax",%progbits
 896      AFF30080 
 896      AFF30080 
 897              		.align	2
 898              		.p2align 4,,15
 899              		.global	chEvtWaitAny
 900              		.thumb
ARM GAS  /tmp/ccevInyS.s 			page 17


 901              		.thumb_func
 902              		.type	chEvtWaitAny, %function
 903              	chEvtWaitAny:
 904              	.LFB19:
 905              		.loc 1 379 0
 906              		.cfi_startproc
 907              		@ args = 0, pretend = 0, frame = 0
 908              		@ frame_needed = 0, uses_anonymous_args = 0
 909              	.LVL113:
 910              		.loc 1 380 0
 911 0000 0E4B     		ldr	r3, .L73
 912              		.loc 1 379 0
 913 0002 70B5     		push	{r4, r5, r6, lr}
 914              	.LCFI11:
 915              		.cfi_def_cfa_offset 16
 916              		.cfi_offset 4, -16
 917              		.cfi_offset 5, -12
 918              		.cfi_offset 6, -8
 919              		.cfi_offset 14, -4
 920              		.loc 1 380 0
 921 0004 9D69     		ldr	r5, [r3, #24]
 922              	.LVL114:
 923              		.loc 1 379 0
 924 0006 0446     		mov	r4, r0
 925              	.LBB25:
 926              		.loc 1 383 0
 927 0008 2023     		movs	r3, #32
 928              	.LVL115:
 929              	@ 383 "../../../os/kernel/src/chevents.c" 1
 930 000a 83F31188 		msr     BASEPRI, r3
 931              	@ 0 "" 2
 932              	.LVL116:
 933              		.thumb
 934              	.LBE25:
 935 000e FFF7FEFF 		bl	dbg_check_lock
 936              	.LVL117:
 937              		.loc 1 385 0
 938 0012 E86B     		ldr	r0, [r5, #60]
 939              	.LVL118:
 940 0014 14EA0006 		ands	r6, r4, r0
 941              	.LVL119:
 942 0018 06D1     		bne	.L72
 943              		.loc 1 387 0
 944 001a 0820     		movs	r0, #8
 945              		.loc 1 386 0
 946 001c AC62     		str	r4, [r5, #40]
 947              		.loc 1 387 0
 948 001e FFF7FEFF 		bl	chSchGoSleepS
 949              	.LVL120:
 950              		.loc 1 388 0
 951 0022 E86B     		ldr	r0, [r5, #60]
 952 0024 04EA0006 		and	r6, r4, r0
 953              	.LVL121:
 954              	.L72:
 955              		.loc 1 390 0
 956 0028 20EA0600 		bic	r0, r0, r6
 957 002c E863     		str	r0, [r5, #60]
ARM GAS  /tmp/ccevInyS.s 			page 18


 958              		.loc 1 392 0
 959 002e FFF7FEFF 		bl	dbg_check_unlock
 960              	.LVL122:
 961              	.LBB26:
 962 0032 0023     		movs	r3, #0
 963              	.LVL123:
 964              	@ 392 "../../../os/kernel/src/chevents.c" 1
 965 0034 83F31188 		msr     BASEPRI, r3
 966              	@ 0 "" 2
 967              	.LVL124:
 968              		.thumb
 969              	.LBE26:
 970              		.loc 1 394 0
 971 0038 3046     		mov	r0, r6
 972 003a 70BD     		pop	{r4, r5, r6, pc}
 973              	.L74:
 974              		.align	2
 975              	.L73:
 976 003c 00000000 		.word	rlist
 977              		.cfi_endproc
 978              	.LFE19:
 979              		.size	chEvtWaitAny, .-chEvtWaitAny
 980              		.section	.text.chEvtWaitAll,"ax",%progbits
 981              		.align	2
 982              		.p2align 4,,15
 983              		.global	chEvtWaitAll
 984              		.thumb
 985              		.thumb_func
 986              		.type	chEvtWaitAll, %function
 987              	chEvtWaitAll:
 988              	.LFB20:
 989              		.loc 1 407 0
 990              		.cfi_startproc
 991              		@ args = 0, pretend = 0, frame = 0
 992              		@ frame_needed = 0, uses_anonymous_args = 0
 993              	.LVL125:
 994 0000 38B5     		push	{r3, r4, r5, lr}
 995              	.LCFI12:
 996              		.cfi_def_cfa_offset 16
 997              		.cfi_offset 3, -16
 998              		.cfi_offset 4, -12
 999              		.cfi_offset 5, -8
 1000              		.cfi_offset 14, -4
 1001              		.loc 1 408 0
 1002 0002 0E4B     		ldr	r3, .L77
 1003              		.loc 1 407 0
 1004 0004 0446     		mov	r4, r0
 1005              		.loc 1 408 0
 1006 0006 9D69     		ldr	r5, [r3, #24]
 1007              	.LVL126:
 1008              	.LBB27:
 1009              		.loc 1 410 0
 1010 0008 2023     		movs	r3, #32
 1011              	.LVL127:
 1012              	@ 410 "../../../os/kernel/src/chevents.c" 1
 1013 000a 83F31188 		msr     BASEPRI, r3
 1014              	@ 0 "" 2
ARM GAS  /tmp/ccevInyS.s 			page 19


 1015              	.LVL128:
 1016              		.thumb
 1017              	.LBE27:
 1018 000e FFF7FEFF 		bl	dbg_check_lock
 1019              	.LVL129:
 1020              		.loc 1 412 0
 1021 0012 E86B     		ldr	r0, [r5, #60]
 1022 0014 04EA0002 		and	r2, r4, r0
 1023 0018 A242     		cmp	r2, r4
 1024 001a 04D0     		beq	.L76
 1025              		.loc 1 414 0
 1026 001c 0920     		movs	r0, #9
 1027              		.loc 1 413 0
 1028 001e AC62     		str	r4, [r5, #40]
 1029              		.loc 1 414 0
 1030 0020 FFF7FEFF 		bl	chSchGoSleepS
 1031              	.LVL130:
 1032 0024 E86B     		ldr	r0, [r5, #60]
 1033              	.L76:
 1034              		.loc 1 416 0
 1035 0026 20EA0400 		bic	r0, r0, r4
 1036 002a E863     		str	r0, [r5, #60]
 1037              		.loc 1 418 0
 1038 002c FFF7FEFF 		bl	dbg_check_unlock
 1039              	.LVL131:
 1040              	.LBB28:
 1041 0030 0023     		movs	r3, #0
 1042              	.LVL132:
 1043              	@ 418 "../../../os/kernel/src/chevents.c" 1
 1044 0032 83F31188 		msr     BASEPRI, r3
 1045              	@ 0 "" 2
 1046              	.LVL133:
 1047              		.thumb
 1048              	.LBE28:
 1049              		.loc 1 420 0
 1050 0036 2046     		mov	r0, r4
 1051 0038 38BD     		pop	{r3, r4, r5, pc}
 1052              	.L78:
 1053 003a 00BF     		.align	2
 1054              	.L77:
 1055 003c 00000000 		.word	rlist
 1056              		.cfi_endproc
 1057              	.LFE20:
 1058              		.size	chEvtWaitAll, .-chEvtWaitAll
 1059              		.section	.text.chEvtWaitOneTimeout,"ax",%progbits
 1060              		.align	2
 1061              		.p2align 4,,15
 1062              		.global	chEvtWaitOneTimeout
 1063              		.thumb
 1064              		.thumb_func
 1065              		.type	chEvtWaitOneTimeout, %function
 1066              	chEvtWaitOneTimeout:
 1067              	.LFB21:
 1068              		.loc 1 446 0
 1069              		.cfi_startproc
 1070              		@ args = 0, pretend = 0, frame = 0
 1071              		@ frame_needed = 0, uses_anonymous_args = 0
ARM GAS  /tmp/ccevInyS.s 			page 20


 1072              	.LVL134:
 1073 0000 F8B5     		push	{r3, r4, r5, r6, r7, lr}
 1074              	.LCFI13:
 1075              		.cfi_def_cfa_offset 24
 1076              		.cfi_offset 3, -24
 1077              		.cfi_offset 4, -20
 1078              		.cfi_offset 5, -16
 1079              		.cfi_offset 6, -12
 1080              		.cfi_offset 7, -8
 1081              		.cfi_offset 14, -4
 1082              		.loc 1 447 0
 1083 0002 154B     		ldr	r3, .L85
 1084              		.loc 1 446 0
 1085 0004 0546     		mov	r5, r0
 1086              		.loc 1 447 0
 1087 0006 9E69     		ldr	r6, [r3, #24]
 1088              	.LVL135:
 1089              		.loc 1 446 0
 1090 0008 0F46     		mov	r7, r1
 1091              	.LBB29:
 1092              		.loc 1 450 0
 1093 000a 2023     		movs	r3, #32
 1094              	.LVL136:
 1095              	@ 450 "../../../os/kernel/src/chevents.c" 1
 1096 000c 83F31188 		msr     BASEPRI, r3
 1097              	@ 0 "" 2
 1098              	.LVL137:
 1099              		.thumb
 1100              	.LBE29:
 1101 0010 FFF7FEFF 		bl	dbg_check_lock
 1102              	.LVL138:
 1103              		.loc 1 452 0
 1104 0014 F06B     		ldr	r0, [r6, #60]
 1105              	.LVL139:
 1106 0016 15EA0004 		ands	r4, r5, r0
 1107              	.LVL140:
 1108 001a 0AD1     		bne	.L80
 1109              		.loc 1 453 0
 1110 001c AFB1     		cbz	r7, .L84
 1111              		.loc 1 458 0
 1112 001e 0820     		movs	r0, #8
 1113              		.loc 1 457 0
 1114 0020 B562     		str	r5, [r6, #40]
 1115              		.loc 1 458 0
 1116 0022 3946     		mov	r1, r7
 1117 0024 FFF7FEFF 		bl	chSchGoSleepTimeoutS
 1118              	.LVL141:
 1119 0028 0028     		cmp	r0, #0
 1120 002a 0EDB     		blt	.L84
 1121              		.loc 1 462 0
 1122 002c F06B     		ldr	r0, [r6, #60]
 1123 002e 05EA0004 		and	r4, r5, r0
 1124              	.LVL142:
 1125              	.L80:
 1126              		.loc 1 464 0
 1127 0032 6242     		negs	r2, r4
 1128 0034 1440     		ands	r4, r4, r2
ARM GAS  /tmp/ccevInyS.s 			page 21


 1129              	.LVL143:
 1130              		.loc 1 465 0
 1131 0036 20EA0400 		bic	r0, r0, r4
 1132 003a F063     		str	r0, [r6, #60]
 1133              		.loc 1 467 0
 1134 003c FFF7FEFF 		bl	dbg_check_unlock
 1135              	.LVL144:
 1136              	.LBB30:
 1137 0040 0023     		movs	r3, #0
 1138              	.LVL145:
 1139              	@ 467 "../../../os/kernel/src/chevents.c" 1
 1140 0042 83F31188 		msr     BASEPRI, r3
 1141              	@ 0 "" 2
 1142              	.LVL146:
 1143              		.thumb
 1144              	.LBE30:
 1145              		.loc 1 469 0
 1146 0046 2046     		mov	r0, r4
 1147 0048 F8BD     		pop	{r3, r4, r5, r6, r7, pc}
 1148              	.LVL147:
 1149              	.L84:
 1150              		.loc 1 459 0
 1151 004a FFF7FEFF 		bl	dbg_check_unlock
 1152              	.LVL148:
 1153              	.LBB31:
 1154 004e 2346     		mov	r3, r4
 1155              	.LVL149:
 1156              	@ 459 "../../../os/kernel/src/chevents.c" 1
 1157 0050 83F31188 		msr     BASEPRI, r3
 1158              	@ 0 "" 2
 1159              	.LVL150:
 1160              		.thumb
 1161              	.LBE31:
 1162              		.loc 1 469 0
 1163 0054 2046     		mov	r0, r4
 1164 0056 F8BD     		pop	{r3, r4, r5, r6, r7, pc}
 1165              	.L86:
 1166              		.align	2
 1167              	.L85:
 1168 0058 00000000 		.word	rlist
 1169              		.cfi_endproc
 1170              	.LFE21:
 1171              		.size	chEvtWaitOneTimeout, .-chEvtWaitOneTimeout
 1172 005c AFF30080 		.section	.text.chEvtWaitAnyTimeout,"ax",%progbits
 1173              		.align	2
 1174              		.p2align 4,,15
 1175              		.global	chEvtWaitAnyTimeout
 1176              		.thumb
 1177              		.thumb_func
 1178              		.type	chEvtWaitAnyTimeout, %function
 1179              	chEvtWaitAnyTimeout:
 1180              	.LFB22:
 1181              		.loc 1 489 0
 1182              		.cfi_startproc
 1183              		@ args = 0, pretend = 0, frame = 0
 1184              		@ frame_needed = 0, uses_anonymous_args = 0
 1185              	.LVL151:
ARM GAS  /tmp/ccevInyS.s 			page 22


 1186 0000 F8B5     		push	{r3, r4, r5, r6, r7, lr}
 1187              	.LCFI14:
 1188              		.cfi_def_cfa_offset 24
 1189              		.cfi_offset 3, -24
 1190              		.cfi_offset 4, -20
 1191              		.cfi_offset 5, -16
 1192              		.cfi_offset 6, -12
 1193              		.cfi_offset 7, -8
 1194              		.cfi_offset 14, -4
 1195              		.loc 1 490 0
 1196 0002 144B     		ldr	r3, .L93
 1197              		.loc 1 489 0
 1198 0004 0446     		mov	r4, r0
 1199              		.loc 1 490 0
 1200 0006 9D69     		ldr	r5, [r3, #24]
 1201              	.LVL152:
 1202              		.loc 1 489 0
 1203 0008 0F46     		mov	r7, r1
 1204              	.LBB32:
 1205              		.loc 1 493 0
 1206 000a 2023     		movs	r3, #32
 1207              	.LVL153:
 1208              	@ 493 "../../../os/kernel/src/chevents.c" 1
 1209 000c 83F31188 		msr     BASEPRI, r3
 1210              	@ 0 "" 2
 1211              	.LVL154:
 1212              		.thumb
 1213              	.LBE32:
 1214 0010 FFF7FEFF 		bl	dbg_check_lock
 1215              	.LVL155:
 1216              		.loc 1 495 0
 1217 0014 EA6B     		ldr	r2, [r5, #60]
 1218              	.LVL156:
 1219 0016 14EA0206 		ands	r6, r4, r2
 1220              	.LVL157:
 1221 001a 0AD1     		bne	.L88
 1222              		.loc 1 496 0
 1223 001c 9FB1     		cbz	r7, .L92
 1224              		.loc 1 501 0
 1225 001e 0820     		movs	r0, #8
 1226              		.loc 1 500 0
 1227 0020 AC62     		str	r4, [r5, #40]
 1228              		.loc 1 501 0
 1229 0022 3946     		mov	r1, r7
 1230 0024 FFF7FEFF 		bl	chSchGoSleepTimeoutS
 1231              	.LVL158:
 1232 0028 0028     		cmp	r0, #0
 1233 002a 0CDB     		blt	.L92
 1234              		.loc 1 505 0
 1235 002c EA6B     		ldr	r2, [r5, #60]
 1236 002e 04EA0206 		and	r6, r4, r2
 1237              	.LVL159:
 1238              	.L88:
 1239              		.loc 1 507 0
 1240 0032 22EA0602 		bic	r2, r2, r6
 1241 0036 EA63     		str	r2, [r5, #60]
 1242              		.loc 1 509 0
ARM GAS  /tmp/ccevInyS.s 			page 23


 1243 0038 FFF7FEFF 		bl	dbg_check_unlock
 1244              	.LVL160:
 1245              	.LBB33:
 1246 003c 0023     		movs	r3, #0
 1247              	.LVL161:
 1248              	@ 509 "../../../os/kernel/src/chevents.c" 1
 1249 003e 83F31188 		msr     BASEPRI, r3
 1250              	@ 0 "" 2
 1251              	.LVL162:
 1252              		.thumb
 1253              	.LBE33:
 1254              		.loc 1 511 0
 1255 0042 3046     		mov	r0, r6
 1256 0044 F8BD     		pop	{r3, r4, r5, r6, r7, pc}
 1257              	.LVL163:
 1258              	.L92:
 1259              		.loc 1 502 0
 1260 0046 FFF7FEFF 		bl	dbg_check_unlock
 1261              	.LVL164:
 1262              	.LBB34:
 1263 004a 3346     		mov	r3, r6
 1264              	.LVL165:
 1265              	@ 502 "../../../os/kernel/src/chevents.c" 1
 1266 004c 83F31188 		msr     BASEPRI, r3
 1267              	@ 0 "" 2
 1268              	.LVL166:
 1269              		.thumb
 1270              	.LBE34:
 1271              		.loc 1 511 0
 1272 0050 3046     		mov	r0, r6
 1273 0052 F8BD     		pop	{r3, r4, r5, r6, r7, pc}
 1274              	.L94:
 1275              		.align	2
 1276              	.L93:
 1277 0054 00000000 		.word	rlist
 1278              		.cfi_endproc
 1279              	.LFE22:
 1280              		.size	chEvtWaitAnyTimeout, .-chEvtWaitAnyTimeout
 1281 0058 AFF30080 		.section	.text.chEvtWaitAllTimeout,"ax",%progbits
 1281      AFF30080 
 1282              		.align	2
 1283              		.p2align 4,,15
 1284              		.global	chEvtWaitAllTimeout
 1285              		.thumb
 1286              		.thumb_func
 1287              		.type	chEvtWaitAllTimeout, %function
 1288              	chEvtWaitAllTimeout:
 1289              	.LFB23:
 1290              		.loc 1 530 0
 1291              		.cfi_startproc
 1292              		@ args = 0, pretend = 0, frame = 0
 1293              		@ frame_needed = 0, uses_anonymous_args = 0
 1294              	.LVL167:
 1295              		.loc 1 531 0
 1296 0000 184B     		ldr	r3, .L101
 1297              		.loc 1 530 0
 1298 0002 70B5     		push	{r4, r5, r6, lr}
ARM GAS  /tmp/ccevInyS.s 			page 24


 1299              	.LCFI15:
 1300              		.cfi_def_cfa_offset 16
 1301              		.cfi_offset 4, -16
 1302              		.cfi_offset 5, -12
 1303              		.cfi_offset 6, -8
 1304              		.cfi_offset 14, -4
 1305              		.loc 1 531 0
 1306 0004 9D69     		ldr	r5, [r3, #24]
 1307              	.LVL168:
 1308              		.loc 1 530 0
 1309 0006 0446     		mov	r4, r0
 1310 0008 0E46     		mov	r6, r1
 1311              	.LBB35:
 1312              		.loc 1 533 0
 1313 000a 2023     		movs	r3, #32
 1314              	.LVL169:
 1315              	@ 533 "../../../os/kernel/src/chevents.c" 1
 1316 000c 83F31188 		msr     BASEPRI, r3
 1317              	@ 0 "" 2
 1318              	.LVL170:
 1319              		.thumb
 1320              	.LBE35:
 1321 0010 FFF7FEFF 		bl	dbg_check_lock
 1322              	.LVL171:
 1323              		.loc 1 535 0
 1324 0014 EA6B     		ldr	r2, [r5, #60]
 1325 0016 04EA0200 		and	r0, r4, r2
 1326 001a A042     		cmp	r0, r4
 1327 001c 08D0     		beq	.L96
 1328              		.loc 1 536 0
 1329 001e 8EB1     		cbz	r6, .L100
 1330              		.loc 1 541 0
 1331 0020 0920     		movs	r0, #9
 1332              		.loc 1 540 0
 1333 0022 AC62     		str	r4, [r5, #40]
 1334              		.loc 1 541 0
 1335 0024 3146     		mov	r1, r6
 1336 0026 FFF7FEFF 		bl	chSchGoSleepTimeoutS
 1337              	.LVL172:
 1338 002a 0028     		cmp	r0, #0
 1339 002c 12DB     		blt	.L99
 1340 002e EA6B     		ldr	r2, [r5, #60]
 1341              	.L96:
 1342              		.loc 1 546 0
 1343 0030 22EA0402 		bic	r2, r2, r4
 1344 0034 EA63     		str	r2, [r5, #60]
 1345              		.loc 1 548 0
 1346 0036 FFF7FEFF 		bl	dbg_check_unlock
 1347              	.LVL173:
 1348              	.LBB36:
 1349 003a 0023     		movs	r3, #0
 1350              	.LVL174:
 1351              	@ 548 "../../../os/kernel/src/chevents.c" 1
 1352 003c 83F31188 		msr     BASEPRI, r3
 1353              	@ 0 "" 2
 1354              	.LVL175:
 1355              		.thumb
ARM GAS  /tmp/ccevInyS.s 			page 25


 1356              	.L98:
 1357              	.LBE36:
 1358              		.loc 1 550 0
 1359 0040 2046     		mov	r0, r4
 1360 0042 70BD     		pop	{r4, r5, r6, pc}
 1361              	.LVL176:
 1362              	.L100:
 1363              		.loc 1 537 0
 1364 0044 FFF7FEFF 		bl	dbg_check_unlock
 1365              	.LVL177:
 1366              	.LBB37:
 1367 0048 3346     		mov	r3, r6
 1368              	.LVL178:
 1369              	@ 537 "../../../os/kernel/src/chevents.c" 1
 1370 004a 83F31188 		msr     BASEPRI, r3
 1371              	@ 0 "" 2
 1372              	.LVL179:
 1373              		.thumb
 1374              	.LBE37:
 1375              		.loc 1 538 0
 1376 004e 3446     		mov	r4, r6
 1377              	.LVL180:
 1378              		.loc 1 550 0
 1379 0050 2046     		mov	r0, r4
 1380 0052 70BD     		pop	{r4, r5, r6, pc}
 1381              	.LVL181:
 1382              	.L99:
 1383              		.loc 1 542 0
 1384 0054 FFF7FEFF 		bl	dbg_check_unlock
 1385              	.LVL182:
 1386              	.LBB38:
 1387 0058 0023     		movs	r3, #0
 1388              	@ 542 "../../../os/kernel/src/chevents.c" 1
 1389 005a 83F31188 		msr     BASEPRI, r3
 1390              	@ 0 "" 2
 1391              	.LVL183:
 1392              		.thumb
 1393              	.LBE38:
 1394              		.loc 1 543 0
 1395 005e 1C46     		mov	r4, r3
 1396              	.LVL184:
 1397 0060 EEE7     		b	.L98
 1398              	.L102:
 1399 0062 00BF     		.align	2
 1400              	.L101:
 1401 0064 00000000 		.word	rlist
 1402              		.cfi_endproc
 1403              	.LFE23:
 1404              		.size	chEvtWaitAllTimeout, .-chEvtWaitAllTimeout
 1405 0068 AFF30080 		.section	.rodata.str1.4,"aMS",%progbits,1
 1405      AFF30080 
 1406              		.align	2
 1407              	.LC0:
 1408 0000 22636845 		.ascii	"\"chEvtRegisterMask\"()\000"
 1408      76745265 
 1408      67697374 
 1408      65724D61 
ARM GAS  /tmp/ccevInyS.s 			page 26


 1408      736B2228 
 1409 0016 0000     		.space	2
 1410              	.LC1:
 1411 0018 22636845 		.ascii	"\"chEvtUnregister\"()\000"
 1411      7674556E 
 1411      72656769 
 1411      73746572 
 1411      22282900 
 1412              	.LC2:
 1413 002c 22636845 		.ascii	"\"chEvtSignalI\"()\000"
 1413      76745369 
 1413      676E616C 
 1413      49222829 
 1413      00
 1414 003d 000000   		.space	3
 1415              	.LC3:
 1416 0040 22636845 		.ascii	"\"chEvtSignal\"()\000"
 1416      76745369 
 1416      676E616C 
 1416      22282900 
 1417              	.LC4:
 1418 0050 22636845 		.ascii	"\"chEvtBroadcastMaskI\"()\000"
 1418      76744272 
 1418      6F616463 
 1418      6173744D 
 1418      61736B49 
 1419              	.LC5:
 1420 0068 22636845 		.ascii	"\"chEvtDispatch\"()\000"
 1420      76744469 
 1420      73706174 
 1420      63682228 
 1420      2900
 1421 007a 0000     		.space	2
 1422              	.LC6:
 1423 007c 63684576 		.ascii	"chEvtDispatch(), #1\000"
 1423      74446973 
 1423      70617463 
 1423      6828292C 
 1423      20233100 
 1424              		.text
 1425              	.Letext0:
 1426              		.file 2 "/opt/ChibiStudio/tools/gcc-arm-none-eabi-4_7-2013q1/bin/../lib/gcc/arm-none-eabi/4.7.3/..
 1427              		.file 3 "../../../os/ports/GCC/ARMCMx/chtypes.h"
 1428              		.file 4 "../../../os/kernel/include/chlists.h"
 1429              		.file 5 "../../../os/kernel/include/chthreads.h"
 1430              		.file 6 "../../../os/ports/GCC/ARMCMx/chcore_v7m.h"
 1431              		.file 7 "../../../os/kernel/include/chschd.h"
 1432              		.file 8 "../../../os/kernel/include/chmtx.h"
 1433              		.file 9 "../../../os/kernel/include/chevents.h"
 1434              		.file 10 "../../../os/kernel/include/chdebug.h"