ARM GAS  /tmp/ccS3KIAZ.s 			page 1


   1              		.syntax unified
   2              		.cpu cortex-m4
   3              		.fpu softvfp
   4              		.eabi_attribute 20, 1
   5              		.eabi_attribute 21, 1
   6              		.eabi_attribute 23, 3
   7              		.eabi_attribute 24, 1
   8              		.eabi_attribute 25, 1
   9              		.eabi_attribute 26, 1
  10              		.eabi_attribute 30, 2
  11              		.eabi_attribute 34, 1
  12              		.eabi_attribute 18, 4
  13              		.thumb
  14              		.file	"chmsg.c"
  15              		.text
  16              	.Ltext0:
  17              		.cfi_sections	.debug_frame
  18              		.section	.text.chMsgSend,"ax",%progbits
  19              		.align	2
  20              		.p2align 4,,15
  21              		.global	chMsgSend
  22              		.thumb
  23              		.thumb_func
  24              		.type	chMsgSend, %function
  25              	chMsgSend:
  26              	.LFB7:
  27              		.file 1 "../../../os/kernel/src/chmsg.c"
  28              		.loc 1 75 0
  29              		.cfi_startproc
  30              		@ args = 0, pretend = 0, frame = 0
  31              		@ frame_needed = 0, uses_anonymous_args = 0
  32              	.LVL0:
  33              		.loc 1 76 0
  34 0000 154B     		ldr	r3, .L7
  35              		.loc 1 75 0
  36 0002 70B5     		push	{r4, r5, r6, lr}
  37              	.LCFI0:
  38              		.cfi_def_cfa_offset 16
  39              		.cfi_offset 4, -16
  40              		.cfi_offset 5, -12
  41              		.cfi_offset 6, -8
  42              		.cfi_offset 14, -4
  43              		.loc 1 78 0
  44 0004 0546     		mov	r5, r0
  45              		.loc 1 75 0
  46 0006 0E46     		mov	r6, r1
  47              		.loc 1 76 0
  48 0008 9C69     		ldr	r4, [r3, #24]
  49              	.LVL1:
  50              		.loc 1 78 0
  51 000a 00B3     		cbz	r0, .L5
  52              	.LVL2:
  53              	.L2:
  54              	.LBB10:
  55              		.loc 1 80 0
  56 000c 2023     		movs	r3, #32
  57              	.LVL3:
ARM GAS  /tmp/ccS3KIAZ.s 			page 2


  58              	@ 80 "../../../os/kernel/src/chmsg.c" 1
  59 000e 83F31188 		msr     BASEPRI, r3
  60              	@ 0 "" 2
  61              	.LVL4:
  62              		.thumb
  63              	.LBE10:
  64 0012 FFF7FEFF 		bl	dbg_check_lock
  65              	.LVL5:
  66              		.loc 1 82 0
  67 0016 05F13002 		add	r2, r5, #48
  68 001a A262     		str	r2, [r4, #40]
  69              	.LVL6:
  70              		.loc 1 84 0
  71 001c 95F82010 		ldrb	r1, [r5, #32]	@ zero_extendqisi2
  72              	.LBB11:
  73              	.LBB12:
  74              		.file 2 "../../../os/kernel/include/chinline.h"
  75              		.loc 2 55 0
  76 0020 686B     		ldr	r0, [r5, #52]
  77              		.loc 2 54 0
  78 0022 2260     		str	r2, [r4, #0]
  79              	.LBE12:
  80              	.LBE11:
  81              		.loc 1 84 0
  82 0024 0C29     		cmp	r1, #12
  83              		.loc 1 81 0
  84 0026 A663     		str	r6, [r4, #56]
  85              	.LBB14:
  86              	.LBB13:
  87              		.loc 2 55 0
  88 0028 6060     		str	r0, [r4, #4]
  89              		.loc 2 56 0
  90 002a 6C63     		str	r4, [r5, #52]
  91 002c 0460     		str	r4, [r0, #0]
  92              	.LBE13:
  93              	.LBE14:
  94              		.loc 1 84 0
  95 002e 0AD0     		beq	.L6
  96              	.LVL7:
  97              	.L3:
  98              		.loc 1 86 0
  99 0030 0A20     		movs	r0, #10
 100 0032 FFF7FEFF 		bl	chSchGoSleepS
 101              	.LVL8:
 102              		.loc 1 87 0
 103 0036 A46A     		ldr	r4, [r4, #40]
 104              	.LVL9:
 105              		.loc 1 88 0
 106 0038 FFF7FEFF 		bl	dbg_check_unlock
 107              	.LVL10:
 108              	.LBB15:
 109 003c 0023     		movs	r3, #0
 110              	.LVL11:
 111              	@ 88 "../../../os/kernel/src/chmsg.c" 1
 112 003e 83F31188 		msr     BASEPRI, r3
 113              	@ 0 "" 2
 114              	.LVL12:
ARM GAS  /tmp/ccS3KIAZ.s 			page 3


 115              		.thumb
 116              	.LBE15:
 117              		.loc 1 90 0
 118 0042 2046     		mov	r0, r4
 119 0044 70BD     		pop	{r4, r5, r6, pc}
 120              	.LVL13:
 121              	.L6:
 122              		.loc 1 85 0
 123 0046 2846     		mov	r0, r5
 124 0048 FFF7FEFF 		bl	chSchReadyI
 125              	.LVL14:
 126 004c F0E7     		b	.L3
 127              	.LVL15:
 128              	.L5:
 129              		.loc 1 78 0 discriminator 1
 130 004e 0348     		ldr	r0, .L7+4
 131              	.LVL16:
 132 0050 FFF7FEFF 		bl	chDbgPanic
 133              	.LVL17:
 134 0054 DAE7     		b	.L2
 135              	.L8:
 136 0056 00BF     		.align	2
 137              	.L7:
 138 0058 00000000 		.word	rlist
 139 005c 00000000 		.word	.LC0
 140              		.cfi_endproc
 141              	.LFE7:
 142              		.size	chMsgSend, .-chMsgSend
 143              		.section	.text.chMsgWait,"ax",%progbits
 144              		.align	2
 145              		.p2align 4,,15
 146              		.global	chMsgWait
 147              		.thumb
 148              		.thumb_func
 149              		.type	chMsgWait, %function
 150              	chMsgWait:
 151              	.LFB8:
 152              		.loc 1 106 0
 153              		.cfi_startproc
 154              		@ args = 0, pretend = 0, frame = 0
 155              		@ frame_needed = 0, uses_anonymous_args = 0
 156 0000 38B5     		push	{r3, r4, r5, lr}
 157              	.LCFI1:
 158              		.cfi_def_cfa_offset 16
 159              		.cfi_offset 3, -16
 160              		.cfi_offset 4, -12
 161              		.cfi_offset 5, -8
 162              		.cfi_offset 14, -4
 163              	.LBB16:
 164              		.loc 1 109 0
 165 0002 2023     		movs	r3, #32
 166              	.LVL18:
 167              	@ 109 "../../../os/kernel/src/chmsg.c" 1
 168 0004 83F31188 		msr     BASEPRI, r3
 169              	@ 0 "" 2
 170              	.LVL19:
 171              		.thumb
ARM GAS  /tmp/ccS3KIAZ.s 			page 4


 172              	.LBE16:
 173              		.loc 1 110 0
 174 0008 0E4D     		ldr	r5, .L12
 175              		.loc 1 109 0
 176 000a FFF7FEFF 		bl	dbg_check_lock
 177              	.LVL20:
 178              		.loc 1 110 0
 179 000e AA69     		ldr	r2, [r5, #24]
 180 0010 1346     		mov	r3, r2
 181 0012 53F8304F 		ldr	r4, [r3, #48]!
 182 0016 9C42     		cmp	r4, r3
 183 0018 0CD0     		beq	.L11
 184              	.L10:
 185              	.LVL21:
 186              	.LBB17:
 187              	.LBB18:
 188              		.loc 2 62 0
 189 001a 2168     		ldr	r1, [r4, #0]
 190              	.LBE18:
 191              	.LBE17:
 192              		.loc 1 113 0
 193 001c 0B20     		movs	r0, #11
 194              	.LBB20:
 195              	.LBB19:
 196              		.loc 2 62 0
 197 001e 1163     		str	r1, [r2, #48]
 198 0020 4B60     		str	r3, [r1, #4]
 199              	.LBE19:
 200              	.LBE20:
 201              		.loc 1 113 0
 202 0022 84F82000 		strb	r0, [r4, #32]
 203              		.loc 1 114 0
 204 0026 FFF7FEFF 		bl	dbg_check_unlock
 205              	.LVL22:
 206              	.LBB21:
 207 002a 0023     		movs	r3, #0
 208              	.LVL23:
 209              	@ 114 "../../../os/kernel/src/chmsg.c" 1
 210 002c 83F31188 		msr     BASEPRI, r3
 211              	@ 0 "" 2
 212              	.LVL24:
 213              		.thumb
 214              	.LBE21:
 215              		.loc 1 116 0
 216 0030 2046     		mov	r0, r4
 217 0032 38BD     		pop	{r3, r4, r5, pc}
 218              	.LVL25:
 219              	.L11:
 220              		.loc 1 111 0
 221 0034 0C20     		movs	r0, #12
 222 0036 FFF7FEFF 		bl	chSchGoSleepS
 223              	.LVL26:
 224 003a AA69     		ldr	r2, [r5, #24]
 225 003c 1346     		mov	r3, r2
 226 003e 53F8304F 		ldr	r4, [r3, #48]!
 227 0042 EAE7     		b	.L10
 228              	.L13:
ARM GAS  /tmp/ccS3KIAZ.s 			page 5


 229              		.align	2
 230              	.L12:
 231 0044 00000000 		.word	rlist
 232              		.cfi_endproc
 233              	.LFE8:
 234              		.size	chMsgWait, .-chMsgWait
 235 0048 AFF30080 		.section	.text.chMsgRelease,"ax",%progbits
 235      AFF30080 
 236              		.align	2
 237              		.p2align 4,,15
 238              		.global	chMsgRelease
 239              		.thumb
 240              		.thumb_func
 241              		.type	chMsgRelease, %function
 242              	chMsgRelease:
 243              	.LFB9:
 244              		.loc 1 128 0
 245              		.cfi_startproc
 246              		@ args = 0, pretend = 0, frame = 0
 247              		@ frame_needed = 0, uses_anonymous_args = 0
 248              	.LVL27:
 249 0000 38B5     		push	{r3, r4, r5, lr}
 250              	.LCFI2:
 251              		.cfi_def_cfa_offset 16
 252              		.cfi_offset 3, -16
 253              		.cfi_offset 4, -12
 254              		.cfi_offset 5, -8
 255              		.cfi_offset 14, -4
 256              		.loc 1 128 0
 257 0002 0446     		mov	r4, r0
 258 0004 0D46     		mov	r5, r1
 259              	.LBB22:
 260              		.loc 1 130 0
 261 0006 2023     		movs	r3, #32
 262              	.LVL28:
 263              	@ 130 "../../../os/kernel/src/chmsg.c" 1
 264 0008 83F31188 		msr     BASEPRI, r3
 265              	@ 0 "" 2
 266              	.LVL29:
 267              		.thumb
 268              	.LBE22:
 269 000c FFF7FEFF 		bl	dbg_check_lock
 270              	.LVL30:
 271              		.loc 1 131 0
 272 0010 94F82030 		ldrb	r3, [r4, #32]	@ zero_extendqisi2
 273 0014 0B2B     		cmp	r3, #11
 274 0016 02D0     		beq	.L15
 275              		.loc 1 131 0 is_stmt 0 discriminator 1
 276 0018 0648     		ldr	r0, .L19
 277 001a FFF7FEFF 		bl	chDbgPanic
 278              	.LVL31:
 279              	.L15:
 280              		.loc 1 133 0 is_stmt 1
 281 001e 2046     		mov	r0, r4
 282 0020 2946     		mov	r1, r5
 283 0022 FFF7FEFF 		bl	chSchWakeupS
 284              	.LVL32:
ARM GAS  /tmp/ccS3KIAZ.s 			page 6


 285              		.loc 1 134 0
 286 0026 FFF7FEFF 		bl	dbg_check_unlock
 287              	.LVL33:
 288              	.LBB23:
 289 002a 0023     		movs	r3, #0
 290              	.LVL34:
 291              	@ 134 "../../../os/kernel/src/chmsg.c" 1
 292 002c 83F31188 		msr     BASEPRI, r3
 293              	@ 0 "" 2
 294              	.LVL35:
 295              		.thumb
 296 0030 38BD     		pop	{r3, r4, r5, pc}
 297              	.L20:
 298 0032 00BF     		.align	2
 299              	.L19:
 300 0034 10000000 		.word	.LC1
 301              	.LBE23:
 302              		.cfi_endproc
 303              	.LFE9:
 304              		.size	chMsgRelease, .-chMsgRelease
 305 0038 AFF30080 		.section	.rodata.str1.4,"aMS",%progbits,1
 305      AFF30080 
 306              		.align	2
 307              	.LC0:
 308 0000 2263684D 		.ascii	"\"chMsgSend\"()\000"
 308      73675365 
 308      6E642228 
 308      2900
 309 000e 0000     		.space	2
 310              	.LC1:
 311 0010 63684D73 		.ascii	"chMsgRelease(), #1\000"
 311      6752656C 
 311      65617365 
 311      28292C20 
 311      233100
 312 0023 00       		.text
 313              	.Letext0:
 314              		.file 3 "/opt/ChibiStudio/tools/gcc-arm-none-eabi-4_7-2013q1/bin/../lib/gcc/arm-none-eabi/4.7.3/..
 315              		.file 4 "../../../os/ports/GCC/ARMCMx/chtypes.h"
 316              		.file 5 "../../../os/kernel/include/chlists.h"
 317              		.file 6 "../../../os/kernel/include/chthreads.h"
 318              		.file 7 "../../../os/ports/GCC/ARMCMx/chcore_v7m.h"
 319              		.file 8 "../../../os/kernel/include/chschd.h"
 320              		.file 9 "../../../os/kernel/include/chmtx.h"
 321              		.file 10 "../../../os/kernel/include/chdebug.h"