ARM GAS  /tmp/ccrVQusg.s 			page 1


   1              		.syntax unified
   2              		.cpu cortex-m4
   3              		.fpu softvfp
   4              		.eabi_attribute 20, 1
   5              		.eabi_attribute 21, 1
   6              		.eabi_attribute 23, 3
   7              		.eabi_attribute 24, 1
   8              		.eabi_attribute 25, 1
   9              		.eabi_attribute 26, 1
  10              		.eabi_attribute 30, 2
  11              		.eabi_attribute 34, 1
  12              		.eabi_attribute 18, 4
  13              		.thumb
  14              		.file	"chthreads.c"
  15              		.text
  16              	.Ltext0:
  17              		.cfi_sections	.debug_frame
  18              		.section	.text._thread_init,"ax",%progbits
  19              		.align	2
  20              		.p2align 4,,15
  21              		.global	_thread_init
  22              		.thumb
  23              		.thumb_func
  24              		.type	_thread_init, %function
  25              	_thread_init:
  26              	.LFB7:
  27              		.file 1 "../../../os/kernel/src/chthreads.c"
  28              		.loc 1 76 0
  29              		.cfi_startproc
  30              		@ args = 0, pretend = 0, frame = 0
  31              		@ frame_needed = 0, uses_anonymous_args = 0
  32              		@ link register save eliminated.
  33              	.LVL0:
  34 0000 2DE9F001 		push	{r4, r5, r6, r7, r8}
  35              	.LCFI0:
  36              		.cfi_def_cfa_offset 20
  37              		.cfi_offset 4, -20
  38              		.cfi_offset 5, -16
  39              		.cfi_offset 6, -12
  40              		.cfi_offset 7, -8
  41              		.cfi_offset 8, -4
  42              		.loc 1 99 0
  43 0004 40F20004 		movw	r4, #:lower16:rlist
  44 0008 C0F20004 		movt	r4, #:upper16:rlist
  45              		.loc 1 80 0
  46 000c 0022     		movs	r2, #0
  47              		.loc 1 99 0
  48 000e 6569     		ldr	r5, [r4, #20]
  49              		.loc 1 85 0
  50 0010 4164     		str	r1, [r0, #68]
  51              		.loc 1 99 0
  52 0012 0461     		str	r4, [r0, #16]
  53              		.loc 1 105 0
  54 0014 00F13006 		add	r6, r0, #48
  55              		.loc 1 78 0
  56 0018 8160     		str	r1, [r0, #8]
  57              		.loc 1 102 0
ARM GAS  /tmp/ccrVQusg.s 			page 2


  58 001a 00F12C0C 		add	ip, r0, #44
  59              		.loc 1 108 0
  60 001e 00F14C07 		add	r7, r0, #76
  61              		.loc 1 99 0
  62 0022 4561     		str	r5, [r0, #20]
  63              		.loc 1 79 0
  64 0024 4FF00208 		mov	r8, #2
  65              		.loc 1 99 0
  66 0028 6061     		str	r0, [r4, #20]
  67              		.loc 1 95 0
  68 002a 0121     		movs	r1, #1
  69              	.LVL1:
  70              		.loc 1 82 0
  71 002c 1424     		movs	r4, #20
  72              		.loc 1 79 0
  73 002e 80F82080 		strb	r8, [r0, #32]
  74              		.loc 1 80 0
  75 0032 80F82120 		strb	r2, [r0, #33]
  76              		.loc 1 82 0
  77 0036 80F82340 		strb	r4, [r0, #35]
  78              		.loc 1 86 0
  79 003a 0264     		str	r2, [r0, #64]
  80              		.loc 1 89 0
  81 003c C263     		str	r2, [r0, #60]
  82              		.loc 1 92 0
  83 003e 4262     		str	r2, [r0, #36]
  84              		.loc 1 95 0
  85 0040 80F82210 		strb	r1, [r0, #34]
  86              		.loc 1 98 0
  87 0044 8261     		str	r2, [r0, #24]
  88              		.loc 1 99 0
  89 0046 2861     		str	r0, [r5, #16]
  90              		.loc 1 102 0
  91 0048 C0F82CC0 		str	ip, [r0, #44]
  92              		.loc 1 105 0
  93 004c 4663     		str	r6, [r0, #52]
  94 004e 0663     		str	r6, [r0, #48]
  95              		.loc 1 108 0
  96 0050 C761     		str	r7, [r0, #28]
  97              		.loc 1 114 0
  98 0052 BDE8F001 		pop	{r4, r5, r6, r7, r8}
  99 0056 7047     		bx	lr
 100              		.cfi_endproc
 101              	.LFE7:
 102              		.size	_thread_init, .-_thread_init
 103 0058 AFF30080 		.section	.text._thread_memfill,"ax",%progbits
 103      AFF30080 
 104              		.align	2
 105              		.p2align 4,,15
 106              		.global	_thread_memfill
 107              		.thumb
 108              		.thumb_func
 109              		.type	_thread_memfill, %function
 110              	_thread_memfill:
 111              	.LFB8:
 112              		.loc 1 126 0
 113              		.cfi_startproc
ARM GAS  /tmp/ccrVQusg.s 			page 3


 114              		@ args = 0, pretend = 0, frame = 0
 115              		@ frame_needed = 0, uses_anonymous_args = 0
 116              		@ link register save eliminated.
 117              	.LVL2:
 118              		.loc 1 128 0
 119 0000 8842     		cmp	r0, r1
 120 0002 14D2     		bcs	.L2
 121              		.loc 1 129 0
 122 0004 0346     		mov	r3, r0
 123 0006 C043     		mvns	r0, r0
 124              	.LVL3:
 125 0008 03F8012B 		strb	r2, [r3], #1
 126              	.LVL4:
 127 000c 0818     		adds	r0, r1, r0
 128              		.loc 1 128 0
 129 000e 8B42     		cmp	r3, r1
 130 0010 00F00100 		and	r0, r0, #1
 131 0014 0CD0     		beq	.L16
 132 0016 18B1     		cbz	r0, .L6
 133              		.loc 1 129 0
 134 0018 03F8012B 		strb	r2, [r3], #1
 135              	.LVL5:
 136              		.loc 1 128 0
 137 001c 8B42     		cmp	r3, r1
 138 001e 08D0     		beq	.L17
 139              	.L6:
 140              		.loc 1 129 0
 141 0020 1846     		mov	r0, r3
 142 0022 00F8012B 		strb	r2, [r0], #1
 143 0026 5A70     		strb	r2, [r3, #1]
 144 0028 431C     		adds	r3, r0, #1
 145              		.loc 1 128 0
 146 002a 8B42     		cmp	r3, r1
 147 002c F8D1     		bne	.L6
 148              	.L2:
 149 002e 7047     		bx	lr
 150              	.LVL6:
 151              	.L16:
 152 0030 7047     		bx	lr
 153              	.LVL7:
 154              	.L17:
 155 0032 7047     		bx	lr
 156              		.cfi_endproc
 157              	.LFE8:
 158              		.size	_thread_memfill, .-_thread_memfill
 159 0034 AFF30080 		.section	.text.chThdCreateI,"ax",%progbits
 159      AFF30080 
 159      AFF30080 
 160              		.align	2
 161              		.p2align 4,,15
 162              		.global	chThdCreateI
 163              		.thumb
 164              		.thumb_func
 165              		.type	chThdCreateI, %function
 166              	chThdCreateI:
 167              	.LFB9:
 168              		.loc 1 158 0
ARM GAS  /tmp/ccrVQusg.s 			page 4


 169              		.cfi_startproc
 170              		@ args = 4, pretend = 0, frame = 0
 171              		@ frame_needed = 0, uses_anonymous_args = 0
 172              	.LVL8:
 173 0000 2DE9F84F 		push	{r3, r4, r5, r6, r7, r8, r9, sl, fp, lr}
 174              	.LCFI1:
 175              		.cfi_def_cfa_offset 40
 176              		.cfi_offset 3, -40
 177              		.cfi_offset 4, -36
 178              		.cfi_offset 5, -32
 179              		.cfi_offset 6, -28
 180              		.cfi_offset 7, -24
 181              		.cfi_offset 8, -20
 182              		.cfi_offset 9, -16
 183              		.cfi_offset 10, -12
 184              		.cfi_offset 11, -8
 185              		.cfi_offset 14, -4
 186              		.loc 1 158 0
 187 0004 0446     		mov	r4, r0
 188              	.LVL9:
 189 0006 0D46     		mov	r5, r1
 190 0008 9046     		mov	r8, r2
 191 000a 9946     		mov	r9, r3
 192              		.loc 1 162 0
 193 000c FFF7FEFF 		bl	chDbgCheckClassI
 194              	.LVL10:
 195              		.loc 1 164 0
 196 0010 0CB1     		cbz	r4, .L19
 197              		.loc 1 164 0 is_stmt 0 discriminator 2
 198 0012 CF2D     		cmp	r5, #207
 199 0014 38D8     		bhi	.L24
 200              	.L19:
 201              		.loc 1 164 0 discriminator 1
 202 0016 2048     		ldr	r0, .L25
 203 0018 FFF7FEFF 		bl	chDbgPanic
 204              	.LVL11:
 205              	.L20:
 206              	.LBB16:
 207              	.LBB17:
 208              		.loc 1 99 0 is_stmt 1
 209 001c 1F4E     		ldr	r6, .L25+4
 210              	.LBE17:
 211              	.LBE16:
 212              		.loc 1 167 0
 213 001e 0A9B     		ldr	r3, [sp, #40]
 214              	.LBB22:
 215              	.LBB18:
 216              		.loc 1 99 0
 217 0020 D6F814C0 		ldr	ip, [r6, #20]
 218              	.LBE18:
 219              	.LBE22:
 220              		.loc 1 167 0
 221 0024 A5F12401 		sub	r1, r5, #36
 222 0028 6718     		adds	r7, r4, r1
 223 002a E760     		str	r7, [r4, #12]
 224 002c 44F80190 		str	r9, [r4, r1]
 225 0030 1B49     		ldr	r1, .L25+8
ARM GAS  /tmp/ccrVQusg.s 			page 5


 226 0032 7B60     		str	r3, [r7, #4]
 227              	.LBB23:
 228              	.LBB19:
 229              		.loc 1 79 0
 230 0034 0223     		movs	r3, #2
 231              	.LBE19:
 232              	.LBE23:
 233              		.loc 1 167 0
 234 0036 3962     		str	r1, [r7, #32]
 235              	.LVL12:
 236              	.LBB24:
 237              	.LBB20:
 238              		.loc 1 80 0
 239 0038 0025     		movs	r5, #0
 240              	.LVL13:
 241              		.loc 1 105 0
 242 003a 04F13002 		add	r2, r4, #48
 243              		.loc 1 102 0
 244 003e 04F12C0B 		add	fp, r4, #44
 245              		.loc 1 108 0
 246 0042 04F14C0A 		add	sl, r4, #76
 247              		.loc 1 79 0
 248 0046 84F82030 		strb	r3, [r4, #32]
 249              		.loc 1 82 0
 250 004a 1421     		movs	r1, #20
 251              		.loc 1 95 0
 252 004c 0123     		movs	r3, #1
 253              		.loc 1 99 0
 254 004e 2661     		str	r6, [r4, #16]
 255              		.loc 1 78 0
 256 0050 C4F80880 		str	r8, [r4, #8]
 257              		.loc 1 99 0
 258 0054 C4F814C0 		str	ip, [r4, #20]
 259              	.LBE20:
 260              	.LBE24:
 261              		.loc 1 169 0
 262 0058 2046     		mov	r0, r4
 263              	.LBB25:
 264              	.LBB21:
 265              		.loc 1 99 0
 266 005a 7461     		str	r4, [r6, #20]
 267              		.loc 1 80 0
 268 005c 84F82150 		strb	r5, [r4, #33]
 269              		.loc 1 82 0
 270 0060 84F82310 		strb	r1, [r4, #35]
 271              		.loc 1 85 0
 272 0064 C4F84480 		str	r8, [r4, #68]
 273              		.loc 1 86 0
 274 0068 2564     		str	r5, [r4, #64]
 275              		.loc 1 89 0
 276 006a E563     		str	r5, [r4, #60]
 277              		.loc 1 92 0
 278 006c 6562     		str	r5, [r4, #36]
 279              		.loc 1 95 0
 280 006e 84F82230 		strb	r3, [r4, #34]
 281              		.loc 1 98 0
 282 0072 A561     		str	r5, [r4, #24]
ARM GAS  /tmp/ccrVQusg.s 			page 6


 283              		.loc 1 99 0
 284 0074 CCF81040 		str	r4, [ip, #16]
 285              		.loc 1 102 0
 286 0078 C4F82CB0 		str	fp, [r4, #44]
 287              		.loc 1 105 0
 288 007c 6263     		str	r2, [r4, #52]
 289 007e 2263     		str	r2, [r4, #48]
 290              		.loc 1 108 0
 291 0080 C4F81CA0 		str	sl, [r4, #28]
 292              	.LBE21:
 293              	.LBE25:
 294              		.loc 1 169 0
 295 0084 BDE8F88F 		pop	{r3, r4, r5, r6, r7, r8, r9, sl, fp, pc}
 296              	.LVL14:
 297              	.L24:
 298              		.loc 1 164 0 discriminator 3
 299 0088 B8F17F0F 		cmp	r8, #127
 300 008c C3D8     		bhi	.L19
 301              		.loc 1 164 0 is_stmt 0 discriminator 4
 302 008e B9F1000F 		cmp	r9, #0
 303 0092 C3D1     		bne	.L20
 304 0094 BFE7     		b	.L19
 305              	.L26:
 306 0096 00BF     		.align	2
 307              	.L25:
 308 0098 00000000 		.word	.LC0
 309 009c 00000000 		.word	rlist
 310 00a0 00000000 		.word	_port_thread_start
 311              		.cfi_endproc
 312              	.LFE9:
 313              		.size	chThdCreateI, .-chThdCreateI
 314 00a4 AFF30080 		.section	.text.chThdCreateStatic,"ax",%progbits
 314      AFF30080 
 314      AFF30080 
 315              		.align	2
 316              		.p2align 4,,15
 317              		.global	chThdCreateStatic
 318              		.thumb
 319              		.thumb_func
 320              		.type	chThdCreateStatic, %function
 321              	chThdCreateStatic:
 322              	.LFB10:
 323              		.loc 1 188 0 is_stmt 1
 324              		.cfi_startproc
 325              		@ args = 4, pretend = 0, frame = 0
 326              		@ frame_needed = 0, uses_anonymous_args = 0
 327              	.LVL15:
 328 0000 2DE9F04F 		push	{r4, r5, r6, r7, r8, r9, sl, fp, lr}
 329              	.LCFI2:
 330              		.cfi_def_cfa_offset 36
 331              		.cfi_offset 4, -36
 332              		.cfi_offset 5, -32
 333              		.cfi_offset 6, -28
 334              		.cfi_offset 7, -24
 335              		.cfi_offset 8, -20
 336              		.cfi_offset 9, -16
 337              		.cfi_offset 10, -12
ARM GAS  /tmp/ccrVQusg.s 			page 7


 338              		.cfi_offset 11, -8
 339              		.cfi_offset 14, -4
 340 0004 9B46     		mov	fp, r3
 341 0006 83B0     		sub	sp, sp, #12
 342              	.LCFI3:
 343              		.cfi_def_cfa_offset 48
 344              		.loc 1 188 0
 345 0008 8046     		mov	r8, r0
 346 000a 8946     		mov	r9, r1
 347 000c 9246     		mov	sl, r2
 348              		.loc 1 192 0
 349 000e 00F14C03 		add	r3, r0, #76
 350              	.LVL16:
 351              		.loc 1 187 0
 352 0012 00F10104 		add	r4, r0, #1
 353 0016 00F14D07 		add	r7, r0, #77
 354              	.LBB26:
 355              	.LBB27:
 356              		.loc 1 129 0
 357 001a FF26     		movs	r6, #255
 358              	.LVL17:
 359              	.L28:
 360 001c 2546     		mov	r5, r4
 361 001e 04F8016C 		strb	r6, [r4, #-1]
 362 0022 05F8016B 		strb	r6, [r5], #1
 363 0026 6C1C     		adds	r4, r5, #1
 364              		.loc 1 128 0
 365 0028 BC42     		cmp	r4, r7
 366 002a F7D1     		bne	.L28
 367              	.LBE27:
 368              	.LBE26:
 369              		.loc 1 195 0
 370 002c 08EB0907 		add	r7, r8, r9
 371              	.LVL18:
 372              	.LBB28:
 373              	.LBB29:
 374              		.loc 1 128 0
 375 0030 BB42     		cmp	r3, r7
 376 0032 15D2     		bcs	.L31
 377              		.loc 1 129 0
 378 0034 1846     		mov	r0, r3
 379              	.LVL19:
 380 0036 5526     		movs	r6, #85
 381 0038 00F8016B 		strb	r6, [r0], #1
 382 003c D943     		mvns	r1, r3
 383              	.LVL20:
 384 003e 7A18     		adds	r2, r7, r1
 385              	.LVL21:
 386              		.loc 1 128 0
 387 0040 B842     		cmp	r0, r7
 388 0042 02F00103 		and	r3, r2, #1
 389              	.LVL22:
 390 0046 0BD0     		beq	.L31
 391 0048 1BB1     		cbz	r3, .L32
 392              		.loc 1 129 0
 393 004a 00F8016B 		strb	r6, [r0], #1
 394              	.LVL23:
ARM GAS  /tmp/ccrVQusg.s 			page 8


 395              		.loc 1 128 0
 396 004e B842     		cmp	r0, r7
 397 0050 06D0     		beq	.L31
 398              	.L32:
 399              		.loc 1 129 0
 400 0052 0546     		mov	r5, r0
 401 0054 05F8016B 		strb	r6, [r5], #1
 402 0058 4670     		strb	r6, [r0, #1]
 403 005a 681C     		adds	r0, r5, #1
 404              		.loc 1 128 0
 405 005c B842     		cmp	r0, r7
 406 005e F8D1     		bne	.L32
 407              	.LVL24:
 408              	.L31:
 409              	.LBE29:
 410              	.LBE28:
 411              	.LBB30:
 412              		.loc 1 199 0
 413 0060 2023     		movs	r3, #32
 414              	.LVL25:
 415              	@ 199 "../../../os/kernel/src/chthreads.c" 1
 416 0062 83F31188 		msr     BASEPRI, r3
 417              	@ 0 "" 2
 418              	.LVL26:
 419              		.thumb
 420              	.LBE30:
 421 0066 FFF7FEFF 		bl	dbg_check_lock
 422              	.LVL27:
 423              		.loc 1 200 0
 424 006a 0C9C     		ldr	r4, [sp, #48]
 425 006c 5B46     		mov	r3, fp
 426 006e 5246     		mov	r2, sl
 427 0070 4946     		mov	r1, r9
 428 0072 0094     		str	r4, [sp, #0]
 429 0074 4046     		mov	r0, r8
 430 0076 FFF7FEFF 		bl	chThdCreateI
 431              	.LVL28:
 432 007a 0021     		movs	r1, #0
 433 007c 0446     		mov	r4, r0
 434              	.LVL29:
 435 007e FFF7FEFF 		bl	chSchWakeupS
 436              	.LVL30:
 437              		.loc 1 201 0
 438 0082 FFF7FEFF 		bl	dbg_check_unlock
 439              	.LVL31:
 440              	.LBB31:
 441 0086 0023     		movs	r3, #0
 442              	.LVL32:
 443              	@ 201 "../../../os/kernel/src/chthreads.c" 1
 444 0088 83F31188 		msr     BASEPRI, r3
 445              	@ 0 "" 2
 446              	.LVL33:
 447              		.thumb
 448              	.LBE31:
 449              		.loc 1 203 0
 450 008c 2046     		mov	r0, r4
 451 008e 03B0     		add	sp, sp, #12
ARM GAS  /tmp/ccrVQusg.s 			page 9


 452 0090 BDE8F08F 		pop	{r4, r5, r6, r7, r8, r9, sl, fp, pc}
 453              		.cfi_endproc
 454              	.LFE10:
 455              		.size	chThdCreateStatic, .-chThdCreateStatic
 456 0094 AFF30080 		.section	.text.chThdSetPriority,"ax",%progbits
 456      AFF30080 
 456      AFF30080 
 457              		.align	2
 458              		.p2align 4,,15
 459              		.global	chThdSetPriority
 460              		.thumb
 461              		.thumb_func
 462              		.type	chThdSetPriority, %function
 463              	chThdSetPriority:
 464              	.LFB11:
 465              		.loc 1 217 0
 466              		.cfi_startproc
 467              		@ args = 0, pretend = 0, frame = 0
 468              		@ frame_needed = 0, uses_anonymous_args = 0
 469              	.LVL34:
 470              		.loc 1 220 0
 471 0000 7F28     		cmp	r0, #127
 472              		.loc 1 217 0
 473 0002 38B5     		push	{r3, r4, r5, lr}
 474              	.LCFI4:
 475              		.cfi_def_cfa_offset 16
 476              		.cfi_offset 3, -16
 477              		.cfi_offset 4, -12
 478              		.cfi_offset 5, -8
 479              		.cfi_offset 14, -4
 480              		.loc 1 217 0
 481 0004 0446     		mov	r4, r0
 482              		.loc 1 220 0
 483 0006 17D8     		bhi	.L47
 484              	.LVL35:
 485              	.L44:
 486              	.LBB32:
 487              		.loc 1 222 0
 488 0008 2023     		movs	r3, #32
 489              	.LVL36:
 490              	@ 222 "../../../os/kernel/src/chthreads.c" 1
 491 000a 83F31188 		msr     BASEPRI, r3
 492              	@ 0 "" 2
 493              	.LVL37:
 494              		.thumb
 495              	.LBE32:
 496 000e FFF7FEFF 		bl	dbg_check_lock
 497              	.LVL38:
 498              		.loc 1 224 0
 499 0012 0B4B     		ldr	r3, .L48
 500 0014 9869     		ldr	r0, [r3, #24]
 501 0016 456C     		ldr	r5, [r0, #68]
 502              	.LVL39:
 503              		.loc 1 225 0
 504 0018 8268     		ldr	r2, [r0, #8]
 505 001a 9542     		cmp	r5, r2
 506 001c 01D0     		beq	.L45
ARM GAS  /tmp/ccrVQusg.s 			page 10


 507              		.loc 1 225 0 is_stmt 0 discriminator 1
 508 001e 9442     		cmp	r4, r2
 509 0020 00D9     		bls	.L46
 510              	.L45:
 511              		.loc 1 226 0 is_stmt 1
 512 0022 8460     		str	r4, [r0, #8]
 513              	.L46:
 514              		.loc 1 227 0
 515 0024 4464     		str	r4, [r0, #68]
 516              		.loc 1 232 0
 517 0026 FFF7FEFF 		bl	chSchRescheduleS
 518              	.LVL40:
 519              		.loc 1 233 0
 520 002a FFF7FEFF 		bl	dbg_check_unlock
 521              	.LVL41:
 522              	.LBB33:
 523 002e 0023     		movs	r3, #0
 524              	.LVL42:
 525              	@ 233 "../../../os/kernel/src/chthreads.c" 1
 526 0030 83F31188 		msr     BASEPRI, r3
 527              	@ 0 "" 2
 528              	.LVL43:
 529              		.thumb
 530              	.LBE33:
 531              		.loc 1 235 0
 532 0034 2846     		mov	r0, r5
 533 0036 38BD     		pop	{r3, r4, r5, pc}
 534              	.LVL44:
 535              	.L47:
 536              		.loc 1 220 0 discriminator 1
 537 0038 0248     		ldr	r0, .L48+4
 538              	.LVL45:
 539 003a FFF7FEFF 		bl	chDbgPanic
 540              	.LVL46:
 541 003e E3E7     		b	.L44
 542              	.L49:
 543              		.align	2
 544              	.L48:
 545 0040 00000000 		.word	rlist
 546 0044 14000000 		.word	.LC1
 547              		.cfi_endproc
 548              	.LFE11:
 549              		.size	chThdSetPriority, .-chThdSetPriority
 550 0048 AFF30080 		.section	.text.chThdResume,"ax",%progbits
 550      AFF30080 
 551              		.align	2
 552              		.p2align 4,,15
 553              		.global	chThdResume
 554              		.thumb
 555              		.thumb_func
 556              		.type	chThdResume, %function
 557              	chThdResume:
 558              	.LFB12:
 559              		.loc 1 250 0
 560              		.cfi_startproc
 561              		@ args = 0, pretend = 0, frame = 0
 562              		@ frame_needed = 0, uses_anonymous_args = 0
ARM GAS  /tmp/ccrVQusg.s 			page 11


 563              	.LVL47:
 564 0000 10B5     		push	{r4, lr}
 565              	.LCFI5:
 566              		.cfi_def_cfa_offset 8
 567              		.cfi_offset 4, -8
 568              		.cfi_offset 14, -4
 569              	.LBB34:
 570              		.loc 1 252 0
 571 0002 2023     		movs	r3, #32
 572              	.LVL48:
 573              	.LBE34:
 574              		.loc 1 250 0
 575 0004 0446     		mov	r4, r0
 576              	.LBB35:
 577              		.loc 1 252 0
 578              	@ 252 "../../../os/kernel/src/chthreads.c" 1
 579 0006 83F31188 		msr     BASEPRI, r3
 580              	@ 0 "" 2
 581              	.LVL49:
 582              		.thumb
 583              	.LBE35:
 584 000a FFF7FEFF 		bl	dbg_check_lock
 585              	.LVL50:
 586              		.loc 1 253 0
 587 000e 94F82030 		ldrb	r3, [r4, #32]	@ zero_extendqisi2
 588 0012 022B     		cmp	r3, #2
 589 0014 02D0     		beq	.L51
 590              		.loc 1 253 0 is_stmt 0 discriminator 1
 591 0016 0748     		ldr	r0, .L55
 592 0018 FFF7FEFF 		bl	chDbgPanic
 593              	.LVL51:
 594              	.L51:
 595              		.loc 1 256 0 is_stmt 1
 596 001c 2046     		mov	r0, r4
 597 001e 0021     		movs	r1, #0
 598 0020 FFF7FEFF 		bl	chSchWakeupS
 599              	.LVL52:
 600              		.loc 1 257 0
 601 0024 FFF7FEFF 		bl	dbg_check_unlock
 602              	.LVL53:
 603              	.LBB36:
 604 0028 0023     		movs	r3, #0
 605              	.LVL54:
 606              	@ 257 "../../../os/kernel/src/chthreads.c" 1
 607 002a 83F31188 		msr     BASEPRI, r3
 608              	@ 0 "" 2
 609              	.LVL55:
 610              		.thumb
 611              	.LBE36:
 612              		.loc 1 259 0
 613 002e 2046     		mov	r0, r4
 614 0030 10BD     		pop	{r4, pc}
 615              	.L56:
 616 0032 00BF     		.align	2
 617              	.L55:
 618 0034 2C000000 		.word	.LC2
 619              		.cfi_endproc
ARM GAS  /tmp/ccrVQusg.s 			page 12


 620              	.LFE12:
 621              		.size	chThdResume, .-chThdResume
 622 0038 AFF30080 		.section	.text.chThdTerminate,"ax",%progbits
 622      AFF30080 
 623              		.align	2
 624              		.p2align 4,,15
 625              		.global	chThdTerminate
 626              		.thumb
 627              		.thumb_func
 628              		.type	chThdTerminate, %function
 629              	chThdTerminate:
 630              	.LFB13:
 631              		.loc 1 273 0
 632              		.cfi_startproc
 633              		@ args = 0, pretend = 0, frame = 0
 634              		@ frame_needed = 0, uses_anonymous_args = 0
 635              	.LVL56:
 636 0000 10B5     		push	{r4, lr}
 637              	.LCFI6:
 638              		.cfi_def_cfa_offset 8
 639              		.cfi_offset 4, -8
 640              		.cfi_offset 14, -4
 641              	.LBB37:
 642              		.loc 1 275 0
 643 0002 2023     		movs	r3, #32
 644              	.LVL57:
 645              	.LBE37:
 646              		.loc 1 273 0
 647 0004 0446     		mov	r4, r0
 648              	.LBB38:
 649              		.loc 1 275 0
 650              	@ 275 "../../../os/kernel/src/chthreads.c" 1
 651 0006 83F31188 		msr     BASEPRI, r3
 652              	@ 0 "" 2
 653              	.LVL58:
 654              		.thumb
 655              	.LBE38:
 656 000a FFF7FEFF 		bl	dbg_check_lock
 657              	.LVL59:
 658              		.loc 1 276 0
 659 000e 94F82130 		ldrb	r3, [r4, #33]	@ zero_extendqisi2
 660 0012 43F00400 		orr	r0, r3, #4
 661 0016 84F82100 		strb	r0, [r4, #33]
 662              		.loc 1 277 0
 663 001a FFF7FEFF 		bl	dbg_check_unlock
 664              	.LVL60:
 665              	.LBB39:
 666 001e 0023     		movs	r3, #0
 667              	.LVL61:
 668              	@ 277 "../../../os/kernel/src/chthreads.c" 1
 669 0020 83F31188 		msr     BASEPRI, r3
 670              	@ 0 "" 2
 671              	.LVL62:
 672              		.thumb
 673 0024 10BD     		pop	{r4, pc}
 674              	.LBE39:
 675              		.cfi_endproc
ARM GAS  /tmp/ccrVQusg.s 			page 13


 676              	.LFE13:
 677              		.size	chThdTerminate, .-chThdTerminate
 678 0026 00BFAFF3 		.section	.text.chThdSleep,"ax",%progbits
 678      0080AFF3 
 678      0080
 679              		.align	2
 680              		.p2align 4,,15
 681              		.global	chThdSleep
 682              		.thumb
 683              		.thumb_func
 684              		.type	chThdSleep, %function
 685              	chThdSleep:
 686              	.LFB14:
 687              		.loc 1 292 0
 688              		.cfi_startproc
 689              		@ args = 0, pretend = 0, frame = 0
 690              		@ frame_needed = 0, uses_anonymous_args = 0
 691              	.LVL63:
 692 0000 10B5     		push	{r4, lr}
 693              	.LCFI7:
 694              		.cfi_def_cfa_offset 8
 695              		.cfi_offset 4, -8
 696              		.cfi_offset 14, -4
 697              		.loc 1 294 0
 698 0002 0446     		mov	r4, r0
 699 0004 10B9     		cbnz	r0, .L59
 700              		.loc 1 294 0 is_stmt 0 discriminator 1
 701 0006 0948     		ldr	r0, .L60
 702              	.LVL64:
 703 0008 FFF7FEFF 		bl	chDbgPanic
 704              	.LVL65:
 705              	.L59:
 706              	.LBB40:
 707              		.loc 1 296 0 is_stmt 1
 708 000c 2023     		movs	r3, #32
 709              	.LVL66:
 710              	@ 296 "../../../os/kernel/src/chthreads.c" 1
 711 000e 83F31188 		msr     BASEPRI, r3
 712              	@ 0 "" 2
 713              	.LVL67:
 714              		.thumb
 715              	.LBE40:
 716 0012 FFF7FEFF 		bl	dbg_check_lock
 717              	.LVL68:
 718              		.loc 1 297 0
 719 0016 2146     		mov	r1, r4
 720 0018 0620     		movs	r0, #6
 721 001a FFF7FEFF 		bl	chSchGoSleepTimeoutS
 722              	.LVL69:
 723              		.loc 1 298 0
 724 001e FFF7FEFF 		bl	dbg_check_unlock
 725              	.LVL70:
 726              	.LBB41:
 727 0022 0023     		movs	r3, #0
 728              	.LVL71:
 729              	@ 298 "../../../os/kernel/src/chthreads.c" 1
 730 0024 83F31188 		msr     BASEPRI, r3
ARM GAS  /tmp/ccrVQusg.s 			page 14


 731              	@ 0 "" 2
 732              	.LVL72:
 733              		.thumb
 734 0028 10BD     		pop	{r4, pc}
 735              	.L61:
 736 002a 00BF     		.align	2
 737              	.L60:
 738 002c 40000000 		.word	.LC3
 739              	.LBE41:
 740              		.cfi_endproc
 741              	.LFE14:
 742              		.size	chThdSleep, .-chThdSleep
 743              		.section	.text.chThdSleepUntil,"ax",%progbits
 744              		.align	2
 745              		.p2align 4,,15
 746              		.global	chThdSleepUntil
 747              		.thumb
 748              		.thumb_func
 749              		.type	chThdSleepUntil, %function
 750              	chThdSleepUntil:
 751              	.LFB15:
 752              		.loc 1 309 0
 753              		.cfi_startproc
 754              		@ args = 0, pretend = 0, frame = 0
 755              		@ frame_needed = 0, uses_anonymous_args = 0
 756              	.LVL73:
 757 0000 10B5     		push	{r4, lr}
 758              	.LCFI8:
 759              		.cfi_def_cfa_offset 8
 760              		.cfi_offset 4, -8
 761              		.cfi_offset 14, -4
 762              	.LBB42:
 763              		.loc 1 311 0
 764 0002 2023     		movs	r3, #32
 765              	.LVL74:
 766              	.LBE42:
 767              		.loc 1 309 0
 768 0004 0446     		mov	r4, r0
 769              	.LBB43:
 770              		.loc 1 311 0
 771              	@ 311 "../../../os/kernel/src/chthreads.c" 1
 772 0006 83F31188 		msr     BASEPRI, r3
 773              	@ 0 "" 2
 774              	.LVL75:
 775              		.thumb
 776              	.LBE43:
 777 000a FFF7FEFF 		bl	dbg_check_lock
 778              	.LVL76:
 779              		.loc 1 312 0
 780 000e 064B     		ldr	r3, .L67
 781 0010 D968     		ldr	r1, [r3, #12]
 782              	.LVL77:
 783 0012 611A     		subs	r1, r4, r1
 784              	.LVL78:
 785 0014 02D0     		beq	.L63
 786              		.loc 1 313 0
 787 0016 0620     		movs	r0, #6
ARM GAS  /tmp/ccrVQusg.s 			page 15


 788 0018 FFF7FEFF 		bl	chSchGoSleepTimeoutS
 789              	.LVL79:
 790              	.L63:
 791              		.loc 1 314 0
 792 001c FFF7FEFF 		bl	dbg_check_unlock
 793              	.LVL80:
 794              	.LBB44:
 795 0020 0023     		movs	r3, #0
 796              	.LVL81:
 797              	@ 314 "../../../os/kernel/src/chthreads.c" 1
 798 0022 83F31188 		msr     BASEPRI, r3
 799              	@ 0 "" 2
 800              	.LVL82:
 801              		.thumb
 802 0026 10BD     		pop	{r4, pc}
 803              	.L68:
 804              		.align	2
 805              	.L67:
 806 0028 00000000 		.word	vtlist
 807              	.LBE44:
 808              		.cfi_endproc
 809              	.LFE15:
 810              		.size	chThdSleepUntil, .-chThdSleepUntil
 811 002c AFF30080 		.section	.text.chThdYield,"ax",%progbits
 812              		.align	2
 813              		.p2align 4,,15
 814              		.global	chThdYield
 815              		.thumb
 816              		.thumb_func
 817              		.type	chThdYield, %function
 818              	chThdYield:
 819              	.LFB16:
 820              		.loc 1 324 0
 821              		.cfi_startproc
 822              		@ args = 0, pretend = 0, frame = 0
 823              		@ frame_needed = 0, uses_anonymous_args = 0
 824 0000 08B5     		push	{r3, lr}
 825              	.LCFI9:
 826              		.cfi_def_cfa_offset 8
 827              		.cfi_offset 3, -8
 828              		.cfi_offset 14, -4
 829              	.LBB45:
 830              		.loc 1 326 0
 831 0002 2023     		movs	r3, #32
 832              	.LVL83:
 833              	@ 326 "../../../os/kernel/src/chthreads.c" 1
 834 0004 83F31188 		msr     BASEPRI, r3
 835              	@ 0 "" 2
 836              	.LVL84:
 837              		.thumb
 838              	.LBE45:
 839 0008 FFF7FEFF 		bl	dbg_check_lock
 840              	.LVL85:
 841              		.loc 1 327 0
 842 000c 074B     		ldr	r3, .L71
 843 000e 1A68     		ldr	r2, [r3, #0]
 844 0010 9869     		ldr	r0, [r3, #24]
ARM GAS  /tmp/ccrVQusg.s 			page 16


 845 0012 9168     		ldr	r1, [r2, #8]
 846 0014 8368     		ldr	r3, [r0, #8]
 847 0016 9942     		cmp	r1, r3
 848 0018 01D3     		bcc	.L70
 849              		.loc 1 327 0 is_stmt 0 discriminator 1
 850 001a FFF7FEFF 		bl	chSchDoRescheduleBehind
 851              	.LVL86:
 852              	.L70:
 853              		.loc 1 328 0 is_stmt 1
 854 001e FFF7FEFF 		bl	dbg_check_unlock
 855              	.LVL87:
 856              	.LBB46:
 857 0022 0023     		movs	r3, #0
 858              	.LVL88:
 859              	@ 328 "../../../os/kernel/src/chthreads.c" 1
 860 0024 83F31188 		msr     BASEPRI, r3
 861              	@ 0 "" 2
 862              	.LVL89:
 863              		.thumb
 864 0028 08BD     		pop	{r3, pc}
 865              	.L72:
 866 002a 00BF     		.align	2
 867              	.L71:
 868 002c 00000000 		.word	rlist
 869              	.LBE46:
 870              		.cfi_endproc
 871              	.LFE16:
 872              		.size	chThdYield, .-chThdYield
 873              		.section	.text.chThdExitS,"ax",%progbits
 874              		.align	2
 875              		.p2align 4,,15
 876              		.global	chThdExitS
 877              		.thumb
 878              		.thumb_func
 879              		.type	chThdExitS, %function
 880              	chThdExitS:
 881              	.LFB18:
 882              		.loc 1 366 0
 883              		.cfi_startproc
 884              		@ args = 0, pretend = 0, frame = 0
 885              		@ frame_needed = 0, uses_anonymous_args = 0
 886              	.LVL90:
 887 0000 38B5     		push	{r3, r4, r5, lr}
 888              	.LCFI10:
 889              		.cfi_def_cfa_offset 16
 890              		.cfi_offset 3, -16
 891              		.cfi_offset 4, -12
 892              		.cfi_offset 5, -8
 893              		.cfi_offset 14, -4
 894              		.loc 1 367 0
 895 0002 104B     		ldr	r3, .L81
 896 0004 9C69     		ldr	r4, [r3, #24]
 897              	.LVL91:
 898              		.loc 1 374 0
 899 0006 2546     		mov	r5, r4
 900              		.loc 1 369 0
 901 0008 A062     		str	r0, [r4, #40]
ARM GAS  /tmp/ccrVQusg.s 			page 17


 902              		.loc 1 374 0
 903 000a 55F82C0F 		ldr	r0, [r5, #44]!
 904              	.LVL92:
 905 000e A842     		cmp	r0, r5
 906 0010 06D0     		beq	.L78
 907              	.LVL93:
 908              	.L79:
 909              	.LBB47:
 910              	.LBB48:
 911              		.file 2 "../../../os/kernel/include/chinline.h"
 912              		.loc 2 89 0
 913 0012 0168     		ldr	r1, [r0, #0]
 914 0014 E162     		str	r1, [r4, #44]
 915              	.LBE48:
 916              	.LBE47:
 917              		.loc 1 375 0
 918 0016 FFF7FEFF 		bl	chSchReadyI
 919              	.LVL94:
 920              		.loc 1 374 0
 921 001a E06A     		ldr	r0, [r4, #44]
 922 001c A842     		cmp	r0, r5
 923 001e F8D1     		bne	.L79
 924              	.LVL95:
 925              	.L78:
 926              		.loc 1 380 0
 927 0020 94F82100 		ldrb	r0, [r4, #33]	@ zero_extendqisi2
 928 0024 8307     		lsls	r3, r0, #30
 929 0026 04D1     		bne	.L76
 930              		.loc 1 381 0
 931 0028 6369     		ldr	r3, [r4, #20]
 932 002a 2269     		ldr	r2, [r4, #16]
 933 002c 1A61     		str	r2, [r3, #16]
 934 002e 2169     		ldr	r1, [r4, #16]
 935 0030 4B61     		str	r3, [r1, #20]
 936              	.L76:
 937              		.loc 1 383 0
 938 0032 0E20     		movs	r0, #14
 939 0034 FFF7FEFF 		bl	chSchGoSleepS
 940              	.LVL96:
 941              		.loc 1 385 0
 942 0038 0348     		ldr	r0, .L81+4
 943              		.loc 1 386 0
 944 003a BDE83840 		pop	{r3, r4, r5, lr}
 945              		.loc 1 385 0
 946 003e FFF7FEBF 		b	chDbgPanic
 947              	.LVL97:
 948              	.L82:
 949 0042 00BF     		.align	2
 950              	.L81:
 951 0044 00000000 		.word	rlist
 952 0048 50000000 		.word	.LC4
 953              		.cfi_endproc
 954              	.LFE18:
 955              		.size	chThdExitS, .-chThdExitS
 956 004c AFF30080 		.section	.text.chThdExit,"ax",%progbits
 957              		.align	2
 958              		.p2align 4,,15
ARM GAS  /tmp/ccrVQusg.s 			page 18


 959              		.global	chThdExit
 960              		.thumb
 961              		.thumb_func
 962              		.type	chThdExit, %function
 963              	chThdExit:
 964              	.LFB17:
 965              		.loc 1 345 0
 966              		.cfi_startproc
 967              		@ args = 0, pretend = 0, frame = 0
 968              		@ frame_needed = 0, uses_anonymous_args = 0
 969              	.LVL98:
 970 0000 10B5     		push	{r4, lr}
 971              	.LCFI11:
 972              		.cfi_def_cfa_offset 8
 973              		.cfi_offset 4, -8
 974              		.cfi_offset 14, -4
 975              	.LBB49:
 976              		.loc 1 347 0
 977 0002 2023     		movs	r3, #32
 978              	.LVL99:
 979              	.LBE49:
 980              		.loc 1 345 0
 981 0004 0446     		mov	r4, r0
 982              	.LBB50:
 983              		.loc 1 347 0
 984              	@ 347 "../../../os/kernel/src/chthreads.c" 1
 985 0006 83F31188 		msr     BASEPRI, r3
 986              	@ 0 "" 2
 987              	.LVL100:
 988              		.thumb
 989              	.LBE50:
 990 000a FFF7FEFF 		bl	dbg_check_lock
 991              	.LVL101:
 992              		.loc 1 348 0
 993 000e 2046     		mov	r0, r4
 994              		.loc 1 350 0
 995 0010 BDE81040 		pop	{r4, lr}
 996              		.loc 1 348 0
 997 0014 FFF7FEBF 		b	chThdExitS
 998              	.LVL102:
 999              		.cfi_endproc
 1000              	.LFE17:
 1001              		.size	chThdExit, .-chThdExit
 1002 0018 AFF30080 		.section	.text.chThdWait,"ax",%progbits
 1002      AFF30080 
 1003              		.align	2
 1004              		.p2align 4,,15
 1005              		.global	chThdWait
 1006              		.thumb
 1007              		.thumb_func
 1008              		.type	chThdWait, %function
 1009              	chThdWait:
 1010              	.LFB19:
 1011              		.loc 1 420 0
 1012              		.cfi_startproc
 1013              		@ args = 0, pretend = 0, frame = 0
 1014              		@ frame_needed = 0, uses_anonymous_args = 0
ARM GAS  /tmp/ccrVQusg.s 			page 19


 1015              	.LVL103:
 1016 0000 38B5     		push	{r3, r4, r5, lr}
 1017              	.LCFI12:
 1018              		.cfi_def_cfa_offset 16
 1019              		.cfi_offset 3, -16
 1020              		.cfi_offset 4, -12
 1021              		.cfi_offset 5, -8
 1022              		.cfi_offset 14, -4
 1023              		.loc 1 423 0
 1024 0002 0446     		mov	r4, r0
 1025 0004 48B3     		cbz	r0, .L92
 1026              	.LVL104:
 1027              	.L85:
 1028              	.LBB51:
 1029              		.loc 1 425 0
 1030 0006 2023     		movs	r3, #32
 1031              	.LVL105:
 1032              	@ 425 "../../../os/kernel/src/chthreads.c" 1
 1033 0008 83F31188 		msr     BASEPRI, r3
 1034              	@ 0 "" 2
 1035              	.LVL106:
 1036              		.thumb
 1037              	.LBE51:
 1038              		.loc 1 426 0
 1039 000c 154D     		ldr	r5, .L95
 1040              		.loc 1 425 0
 1041 000e FFF7FEFF 		bl	dbg_check_lock
 1042              	.LVL107:
 1043              		.loc 1 426 0
 1044 0012 AB69     		ldr	r3, [r5, #24]
 1045 0014 A342     		cmp	r3, r4
 1046 0016 1CD0     		beq	.L93
 1047              	.L86:
 1048              		.loc 1 428 0
 1049 0018 94F82200 		ldrb	r0, [r4, #34]	@ zero_extendqisi2
 1050 001c A8B1     		cbz	r0, .L94
 1051              	.L87:
 1052              		.loc 1 430 0
 1053 001e 94F82010 		ldrb	r1, [r4, #32]	@ zero_extendqisi2
 1054 0022 0E29     		cmp	r1, #14
 1055 0024 06D0     		beq	.L88
 1056              		.loc 1 431 0
 1057 0026 AD69     		ldr	r5, [r5, #24]
 1058              	.LVL108:
 1059              	.LBB52:
 1060              	.LBB53:
 1061              		.loc 2 82 0
 1062 0028 E26A     		ldr	r2, [r4, #44]
 1063              	.LBE53:
 1064              	.LBE52:
 1065              		.loc 1 432 0
 1066 002a 0720     		movs	r0, #7
 1067              	.LBB55:
 1068              	.LBB54:
 1069              		.loc 2 82 0
 1070 002c 2A60     		str	r2, [r5, #0]
 1071              		.loc 2 83 0
ARM GAS  /tmp/ccrVQusg.s 			page 20


 1072 002e E562     		str	r5, [r4, #44]
 1073              	.LBE54:
 1074              	.LBE55:
 1075              		.loc 1 432 0
 1076 0030 FFF7FEFF 		bl	chSchGoSleepS
 1077              	.LVL109:
 1078              	.L88:
 1079              		.loc 1 434 0
 1080 0034 A56A     		ldr	r5, [r4, #40]
 1081              	.LVL110:
 1082              		.loc 1 435 0
 1083 0036 FFF7FEFF 		bl	dbg_check_unlock
 1084              	.LVL111:
 1085              	.LBB56:
 1086 003a 0023     		movs	r3, #0
 1087              	.LVL112:
 1088              	@ 435 "../../../os/kernel/src/chthreads.c" 1
 1089 003c 83F31188 		msr     BASEPRI, r3
 1090              	@ 0 "" 2
 1091              	.LVL113:
 1092              		.thumb
 1093              	.LBE56:
 1094              		.loc 1 437 0
 1095 0040 2046     		mov	r0, r4
 1096 0042 FFF7FEFF 		bl	chThdRelease
 1097              	.LVL114:
 1098              		.loc 1 440 0
 1099 0046 2846     		mov	r0, r5
 1100 0048 38BD     		pop	{r3, r4, r5, pc}
 1101              	.LVL115:
 1102              	.L94:
 1103              		.loc 1 428 0 discriminator 1
 1104 004a 0748     		ldr	r0, .L95+4
 1105 004c FFF7FEFF 		bl	chDbgPanic
 1106              	.LVL116:
 1107 0050 E5E7     		b	.L87
 1108              	.L93:
 1109              		.loc 1 426 0 discriminator 1
 1110 0052 0648     		ldr	r0, .L95+8
 1111 0054 FFF7FEFF 		bl	chDbgPanic
 1112              	.LVL117:
 1113 0058 DEE7     		b	.L86
 1114              	.LVL118:
 1115              	.L92:
 1116              		.loc 1 423 0 discriminator 1
 1117 005a 0548     		ldr	r0, .L95+12
 1118              	.LVL119:
 1119 005c FFF7FEFF 		bl	chDbgPanic
 1120              	.LVL120:
 1121 0060 D1E7     		b	.L85
 1122              	.L96:
 1123 0062 00BF     		.align	2
 1124              	.L95:
 1125 0064 00000000 		.word	rlist
 1126 0068 84000000 		.word	.LC7
 1127 006c 74000000 		.word	.LC6
 1128 0070 64000000 		.word	.LC5
ARM GAS  /tmp/ccrVQusg.s 			page 21


 1129              		.cfi_endproc
 1130              	.LFE19:
 1131              		.size	chThdWait, .-chThdWait
 1132 0074 AFF30080 		.section	.rodata.str1.4,"aMS",%progbits,1
 1132      AFF30080 
 1132      AFF30080 
 1133              		.align	2
 1134              	.LC0:
 1135 0000 22636854 		.ascii	"\"chThdCreateI\"()\000"
 1135      68644372 
 1135      65617465 
 1135      49222829 
 1135      00
 1136 0011 000000   		.space	3
 1137              	.LC1:
 1138 0014 22636854 		.ascii	"\"chThdSetPriority\"()\000"
 1138      68645365 
 1138      74507269 
 1138      6F726974 
 1138      79222829 
 1139 0029 000000   		.space	3
 1140              	.LC2:
 1141 002c 63685468 		.ascii	"chThdResume(), #1\000"
 1141      64526573 
 1141      756D6528 
 1141      292C2023 
 1141      3100
 1142 003e 0000     		.space	2
 1143              	.LC3:
 1144 0040 22636854 		.ascii	"\"chThdSleep\"()\000"
 1144      6864536C 
 1144      65657022 
 1144      282900
 1145 004f 00       		.space	1
 1146              	.LC4:
 1147 0050 63685468 		.ascii	"chThdExitS(), #1\000"
 1147      64457869 
 1147      74532829 
 1147      2C202331 
 1147      00
 1148 0061 000000   		.space	3
 1149              	.LC5:
 1150 0064 22636854 		.ascii	"\"chThdWait\"()\000"
 1150      68645761 
 1150      69742228 
 1150      2900
 1151 0072 0000     		.space	2
 1152              	.LC6:
 1153 0074 63685468 		.ascii	"chThdWait(), #1\000"
 1153      64576169 
 1153      7428292C 
 1153      20233100 
 1154              	.LC7:
 1155 0084 63685468 		.ascii	"chThdWait(), #2\000"
 1155      64576169 
 1155      7428292C 
 1155      20233200 
ARM GAS  /tmp/ccrVQusg.s 			page 22


 1156              		.text
 1157              	.Letext0:
 1158              		.file 3 "/opt/ChibiStudio/tools/gcc-arm-none-eabi-4_7-2013q1/bin/../lib/gcc/arm-none-eabi/4.7.3/in
 1159              		.file 4 "/opt/ChibiStudio/tools/gcc-arm-none-eabi-4_7-2013q1/bin/../lib/gcc/arm-none-eabi/4.7.3/..
 1160              		.file 5 "../../../os/ports/GCC/ARMCMx/chtypes.h"
 1161              		.file 6 "../../../os/kernel/include/chlists.h"
 1162              		.file 7 "../../../os/kernel/include/chthreads.h"
 1163              		.file 8 "../../../os/ports/GCC/ARMCMx/chcore_v7m.h"
 1164              		.file 9 "../../../os/kernel/include/chvt.h"
 1165              		.file 10 "../../../os/kernel/include/chschd.h"
 1166              		.file 11 "../../../os/kernel/include/chmtx.h"
 1167              		.file 12 "../../../os/kernel/include/chdebug.h"
 1168              		.file 13 "../../../os/kernel/include/chdynamic.h"