ARM GAS  /tmp/ccUJ27Ll.s 			page 1


   1              		.syntax unified
   2              		.cpu cortex-m4
   3              		.fpu softvfp
   4              		.eabi_attribute 20, 1
   5              		.eabi_attribute 21, 1
   6              		.eabi_attribute 23, 3
   7              		.eabi_attribute 24, 1
   8              		.eabi_attribute 25, 1
   9              		.eabi_attribute 26, 1
  10              		.eabi_attribute 30, 2
  11              		.eabi_attribute 34, 1
  12              		.eabi_attribute 18, 4
  13              		.thumb
  14              		.file	"hal.c"
  15              		.text
  16              	.Ltext0:
  17              		.cfi_sections	.debug_frame
  18              		.section	.text.halInit,"ax",%progbits
  19              		.align	2
  20              		.p2align 4,,15
  21              		.global	halInit
  22              		.thumb
  23              		.thumb_func
  24              		.type	halInit, %function
  25              	halInit:
  26              	.LFB118:
  27              		.file 1 "../../../os/hal/src/hal.c"
  28              		.loc 1 68 0
  29              		.cfi_startproc
  30              		@ args = 0, pretend = 0, frame = 0
  31              		@ frame_needed = 0, uses_anonymous_args = 0
  32 0000 08B5     		push	{r3, lr}
  33              	.LCFI0:
  34              		.cfi_def_cfa_offset 8
  35              		.cfi_offset 3, -8
  36              		.cfi_offset 14, -4
  37              		.loc 1 70 0
  38 0002 FFF7FEFF 		bl	hal_lld_init
  39              	.LVL0:
  40              		.loc 1 73 0
  41 0006 FFF7FEFF 		bl	tmInit
  42              	.LVL1:
  43              		.loc 1 76 0
  44 000a 40F20000 		movw	r0, #:lower16:pal_default_config
  45 000e C0F20000 		movt	r0, #:upper16:pal_default_config
  46 0012 FFF7FEFF 		bl	_pal_lld_init
  47              	.LVL2:
  48              		.loc 1 79 0
  49 0016 FFF7FEFF 		bl	adcInit
  50              	.LVL3:
  51              		.loc 1 128 0
  52 001a BDE80840 		pop	{r3, lr}
  53              		.loc 1 127 0
  54 001e FFF7FEBF 		b	boardInit
  55              	.LVL4:
  56              		.cfi_endproc
  57              	.LFE118:
ARM GAS  /tmp/ccUJ27Ll.s 			page 2


  58              		.size	halInit, .-halInit
  59 0022 00BFAFF3 		.section	.text.halIsCounterWithin,"ax",%progbits
  59      0080AFF3 
  59      0080AFF3 
  59      0080
  60              		.align	2
  61              		.p2align 4,,15
  62              		.global	halIsCounterWithin
  63              		.thumb
  64              		.thumb_func
  65              		.type	halIsCounterWithin, %function
  66              	halIsCounterWithin:
  67              	.LFB119:
  68              		.loc 1 174 0
  69              		.cfi_startproc
  70              		@ args = 0, pretend = 0, frame = 0
  71              		@ frame_needed = 0, uses_anonymous_args = 0
  72              		@ link register save eliminated.
  73              	.LVL5:
  74              		.loc 1 175 0
  75 0000 4FF48053 		mov	r3, #4096
  76 0004 CEF20003 		movt	r3, 57344
  77              		.loc 1 177 0
  78 0008 8142     		cmp	r1, r0
  79              		.loc 1 175 0
  80 000a 5A68     		ldr	r2, [r3, #4]
  81              	.LVL6:
  82              		.loc 1 177 0
  83 000c 06D9     		bls	.L3
  84              		.loc 1 177 0 is_stmt 0 discriminator 1
  85 000e 8242     		cmp	r2, r0
  86 0010 08D3     		bcc	.L7
  87              	.L9:
  88              		.loc 1 178 0 is_stmt 1 discriminator 2
  89 0012 8A42     		cmp	r2, r1
  90 0014 2CBF     		ite	cs
  91 0016 0020     		movcs	r0, #0
  92              	.LVL7:
  93 0018 0120     		movcc	r0, #1
  94 001a 7047     		bx	lr
  95              	.LVL8:
  96              	.L3:
  97              		.loc 1 178 0 is_stmt 0
  98 001c 8242     		cmp	r2, r0
  99 001e F8D3     		bcc	.L9
 100 0020 0120     		movs	r0, #1
 101              	.LVL9:
 102              		.loc 1 179 0 is_stmt 1
 103 0022 7047     		bx	lr
 104              	.LVL10:
 105              	.L7:
 106              		.loc 1 177 0
 107 0024 0020     		movs	r0, #0
 108              	.LVL11:
 109 0026 7047     		bx	lr
 110              		.cfi_endproc
 111              	.LFE119:
ARM GAS  /tmp/ccUJ27Ll.s 			page 3


 112              		.size	halIsCounterWithin, .-halIsCounterWithin
 113 0028 AFF30080 		.section	.text.halPolledDelay,"ax",%progbits
 113      AFF30080 
 114              		.align	2
 115              		.p2align 4,,15
 116              		.global	halPolledDelay
 117              		.thumb
 118              		.thumb_func
 119              		.type	halPolledDelay, %function
 120              	halPolledDelay:
 121              	.LFB120:
 122              		.loc 1 193 0
 123              		.cfi_startproc
 124              		@ args = 0, pretend = 0, frame = 0
 125              		@ frame_needed = 0, uses_anonymous_args = 0
 126              		@ link register save eliminated.
 127              	.LVL12:
 128              		.loc 1 194 0
 129 0000 4FF48053 		mov	r3, #4096
 130 0004 CEF20003 		movt	r3, 57344
 131              	.LBB4:
 132              	.LBB5:
 133              		.loc 1 175 0
 134 0008 1946     		mov	r1, r3
 135              	.LBE5:
 136              	.LBE4:
 137              		.loc 1 194 0
 138 000a 5A68     		ldr	r2, [r3, #4]
 139              	.LVL13:
 140              		.loc 1 195 0
 141 000c 8018     		adds	r0, r0, r2
 142              	.LVL14:
 143              	.L21:
 144              	.LBB7:
 145              	.LBB6:
 146              		.loc 1 177 0 discriminator 1
 147 000e 8242     		cmp	r2, r0
 148              		.loc 1 175 0 discriminator 1
 149 0010 4B68     		ldr	r3, [r1, #4]
 150              	.LVL15:
 151              		.loc 1 177 0 discriminator 1
 152 0012 02D2     		bcs	.L12
 153              		.loc 1 177 0 is_stmt 0
 154 0014 9A42     		cmp	r2, r3
 155 0016 02D9     		bls	.L22
 156 0018 7047     		bx	lr
 157              	.L12:
 158              		.loc 1 178 0 is_stmt 1
 159 001a 9A42     		cmp	r2, r3
 160 001c F7D9     		bls	.L21
 161              	.L22:
 162 001e 9842     		cmp	r0, r3
 163 0020 94BF     		ite	ls
 164 0022 0023     		movls	r3, #0
 165              	.LVL16:
 166 0024 0123     		movhi	r3, #1
 167              	.LBE6:
ARM GAS  /tmp/ccUJ27Ll.s 			page 4


 168              	.LBE7:
 169              		.loc 1 196 0
 170 0026 002B     		cmp	r3, #0
 171 0028 F1D1     		bne	.L21
 172 002a 7047     		bx	lr
 173              		.cfi_endproc
 174              	.LFE120:
 175              		.size	halPolledDelay, .-halPolledDelay
 176 002c AFF30080 		.text
 177              	.Letext0:
 178              		.file 2 "/opt/ChibiStudio/tools/gcc-arm-none-eabi-4_7-2013q1/bin/../lib/gcc/arm-none-eabi/4.7.3/..
 179              		.file 3 "../../../os/ports/GCC/ARMCMx/chtypes.h"
 180              		.file 4 "../../../os/ports/common/ARMCMx/nvic.h"
 181              		.file 5 "../../../os/hal/platforms/STM32F30x/hal_lld.h"
 182              		.file 6 "../../../os/hal/platforms/STM32/GPIOv2/pal_lld.h"
 183              		.file 7 "../../../os/ports/common/ARMCMx/CMSIS/include/core_cm4.h"
 184              		.file 8 "../../../os/hal/include/tm.h"
 185              		.file 9 "../../../os/hal/include/adc.h"
 186              		.file 10 "./board.h"