ARM GAS  /tmp/cctvfutn.s 			page 1


   1              		.syntax unified
   2              		.cpu cortex-m4
   3              		.fpu softvfp
   4              		.eabi_attribute 20, 1
   5              		.eabi_attribute 21, 1
   6              		.eabi_attribute 23, 3
   7              		.eabi_attribute 24, 1
   8              		.eabi_attribute 25, 1
   9              		.eabi_attribute 26, 1
  10              		.eabi_attribute 30, 2
  11              		.eabi_attribute 34, 1
  12              		.eabi_attribute 18, 4
  13              		.thumb
  14              		.file	"hal_lld.c"
  15              		.text
  16              	.Ltext0:
  17              		.cfi_sections	.debug_frame
  18              		.section	.text.hal_lld_init,"ax",%progbits
  19              		.align	2
  20              		.p2align 4,,15
  21              		.global	hal_lld_init
  22              		.thumb
  23              		.thumb_func
  24              		.type	hal_lld_init, %function
  25              	hal_lld_init:
  26              	.LFB119:
  27              		.file 1 "../../../os/hal/platforms/STM32F30x/hal_lld.c"
  28              		.loc 1 100 0
  29              		.cfi_startproc
  30              		@ args = 0, pretend = 0, frame = 0
  31              		@ frame_needed = 0, uses_anonymous_args = 0
  32              		.loc 1 103 0
  33 0000 4FF48053 		mov	r3, #4096
  34 0004 C4F20203 		movt	r3, 16386
  35              		.loc 1 107 0
  36 0008 4EF21002 		movw	r2, #57360
  37              		.loc 1 100 0
  38 000c 70B5     		push	{r4, r5, r6, lr}
  39              	.LCFI0:
  40              		.cfi_def_cfa_offset 16
  41              		.cfi_offset 4, -16
  42              		.cfi_offset 5, -12
  43              		.cfi_offset 6, -8
  44              		.cfi_offset 14, -4
  45              		.loc 1 103 0
  46 000e 0021     		movs	r1, #0
  47              		.loc 1 107 0
  48 0010 CEF20002 		movt	r2, 57344
  49              		.loc 1 103 0
  50 0014 4FF0FF35 		mov	r5, #-1
  51              		.loc 1 107 0
  52 0018 41F63F14 		movw	r4, #6463
  53              		.loc 1 103 0
  54 001c 1E69     		ldr	r6, [r3, #16]
  55 001e 1D61     		str	r5, [r3, #16]
  56              		.loc 1 107 0
  57 0020 C0F20104 		movt	r4, 1
ARM GAS  /tmp/cctvfutn.s 			page 2


  58              		.loc 1 103 0
  59 0024 1961     		str	r1, [r3, #16]
  60              		.loc 1 114 0
  61 0026 4EF6F050 		movw	r0, #60912
  62              		.loc 1 104 0
  63 002a DE68     		ldr	r6, [r3, #12]
  64 002c DD60     		str	r5, [r3, #12]
  65              		.loc 1 114 0
  66 002e CEF20000 		movt	r0, 57344
  67              		.loc 1 104 0
  68 0032 D960     		str	r1, [r3, #12]
  69              		.loc 1 107 0
  70 0034 5460     		str	r4, [r2, #4]
  71              		.loc 1 109 0
  72 0036 0724     		movs	r4, #7
  73              		.loc 1 108 0
  74 0038 9160     		str	r1, [r2, #8]
  75              		.loc 1 109 0
  76 003a 1460     		str	r4, [r2, #0]
  77              		.loc 1 114 0
  78 003c C468     		ldr	r4, [r0, #12]
  79              		.loc 1 115 0
  80 003e 4FF48052 		mov	r2, #4096
  81 0042 CEF20002 		movt	r2, 57344
  82              		.loc 1 114 0
  83 0046 44F08074 		orr	r4, r4, #16777216
  84 004a C460     		str	r4, [r0, #12]
  85              		.loc 1 115 0
  86 004c 1068     		ldr	r0, [r2, #0]
  87 004e 40F00100 		orr	r0, r0, #1
  88 0052 1060     		str	r0, [r2, #0]
  89              		.loc 1 118 0
  90 0054 D869     		ldr	r0, [r3, #28]
  91              	.LBB4:
  92              	.LBB5:
  93              		.loc 1 52 0
  94 0056 4FF4E042 		mov	r2, #28672
  95 005a C4F20002 		movt	r2, 16384
  96              	.LBE5:
  97              	.LBE4:
  98              		.loc 1 118 0
  99 005e 40F08050 		orr	r0, r0, #268435456
 100 0062 D861     		str	r0, [r3, #28]
 101              	.LBB7:
 102              	.LBB6:
 103              		.loc 1 52 0
 104 0064 1068     		ldr	r0, [r2, #0]
 105 0066 40F48070 		orr	r0, r0, #256
 106 006a 1060     		str	r0, [r2, #0]
 107              		.loc 1 55 0
 108 006c 1A6A     		ldr	r2, [r3, #32]
 109 006e 02F44070 		and	r0, r2, #768
 110 0072 B0F5007F 		cmp	r0, #512
 111 0076 03D0     		beq	.L2
 112              		.loc 1 57 0
 113 0078 4FF48032 		mov	r2, #65536
 114 007c 1A62     		str	r2, [r3, #32]
ARM GAS  /tmp/cctvfutn.s 			page 3


 115              		.loc 1 58 0
 116 007e 1962     		str	r1, [r3, #32]
 117              	.L2:
 118              		.loc 1 77 0
 119 0080 4FF48053 		mov	r3, #4096
 120 0084 C4F20203 		movt	r3, 16386
 121 0088 196A     		ldr	r1, [r3, #32]
 122 008a 0A04     		lsls	r2, r1, #16
 123 008c 07D4     		bmi	.L3
 124              		.loc 1 79 0
 125 008e 186A     		ldr	r0, [r3, #32]
 126 0090 40F40072 		orr	r2, r0, #512
 127 0094 1A62     		str	r2, [r3, #32]
 128              		.loc 1 82 0
 129 0096 196A     		ldr	r1, [r3, #32]
 130 0098 41F40040 		orr	r0, r1, #32768
 131 009c 1862     		str	r0, [r3, #32]
 132              	.L3:
 133              	.LBE6:
 134              	.LBE7:
 135              		.loc 1 124 0
 136 009e FFF7FEFF 		bl	dmaInit
 137              	.LVL0:
 138              		.loc 1 134 0
 139 00a2 4FF48052 		mov	r2, #4096
 140 00a6 C4F20202 		movt	r2, 16386
 141              		.loc 1 137 0
 142 00aa 0023     		movs	r3, #0
 143              		.loc 1 134 0
 144 00ac 9169     		ldr	r1, [r2, #24]
 145              		.loc 1 137 0
 146 00ae C4F20103 		movt	r3, 16385
 147              		.loc 1 134 0
 148 00b2 41F00100 		orr	r0, r1, #1
 149 00b6 9061     		str	r0, [r2, #24]
 150              		.loc 1 137 0
 151 00b8 1A68     		ldr	r2, [r3, #0]
 152 00ba 42F02001 		orr	r1, r2, #32
 153 00be 1960     		str	r1, [r3, #0]
 154 00c0 70BD     		pop	{r4, r5, r6, pc}
 155              		.cfi_endproc
 156              	.LFE119:
 157              		.size	hal_lld_init, .-hal_lld_init
 158 00c2 00BFAFF3 		.section	.text.stm32_clock_init,"ax",%progbits
 158      0080AFF3 
 158      0080AFF3 
 158      0080
 159              		.align	2
 160              		.p2align 4,,15
 161              		.global	stm32_clock_init
 162              		.thumb
 163              		.thumb_func
 164              		.type	stm32_clock_init, %function
 165              	stm32_clock_init:
 166              	.LFB120:
 167              		.loc 1 147 0
 168              		.cfi_startproc
ARM GAS  /tmp/cctvfutn.s 			page 4


 169              		@ args = 0, pretend = 0, frame = 0
 170              		@ frame_needed = 0, uses_anonymous_args = 0
 171              		@ link register save eliminated.
 172              		.loc 1 152 0
 173 0000 4FF48053 		mov	r3, #4096
 174 0004 C4F20203 		movt	r3, 16386
 175              		.loc 1 153 0
 176 0008 1946     		mov	r1, r3
 177              		.loc 1 152 0
 178 000a 1A68     		ldr	r2, [r3, #0]
 179 000c 42F00100 		orr	r0, r2, #1
 180 0010 1860     		str	r0, [r3, #0]
 181              	.L9:
 182              		.loc 1 153 0 discriminator 1
 183 0012 0A68     		ldr	r2, [r1, #0]
 184 0014 4FF48053 		mov	r3, #4096
 185 0018 9007     		lsls	r0, r2, #30
 186 001a C4F20203 		movt	r3, 16386
 187 001e F8D5     		bpl	.L9
 188              		.loc 1 155 0
 189 0020 1968     		ldr	r1, [r3, #0]
 190              		.loc 1 156 0
 191 0022 0022     		movs	r2, #0
 192              		.loc 1 155 0
 193 0024 01F0F900 		and	r0, r1, #249
 194 0028 1860     		str	r0, [r3, #0]
 195              		.loc 1 157 0
 196 002a 1946     		mov	r1, r3
 197              		.loc 1 156 0
 198 002c 5A60     		str	r2, [r3, #4]
 199              	.L10:
 200              		.loc 1 157 0 discriminator 1
 201 002e 4868     		ldr	r0, [r1, #4]
 202 0030 4FF48053 		mov	r3, #4096
 203 0034 10F00C0F 		tst	r0, #12
 204 0038 C4F20203 		movt	r3, 16386
 205 003c F7D1     		bne	.L10
 206              		.loc 1 164 0
 207 003e 1968     		ldr	r1, [r3, #0]
 208 0040 41F4A022 		orr	r2, r1, #327680
 209 0044 1A60     		str	r2, [r3, #0]
 210              		.loc 1 169 0
 211 0046 1846     		mov	r0, r3
 212              	.L11:
 213              		.loc 1 169 0 is_stmt 0 discriminator 1
 214 0048 0168     		ldr	r1, [r0, #0]
 215 004a 4FF48053 		mov	r3, #4096
 216 004e 8A03     		lsls	r2, r1, #14
 217 0050 C4F20203 		movt	r3, 16386
 218 0054 F8D5     		bpl	.L11
 219              		.loc 1 175 0 is_stmt 1
 220 0056 5A6A     		ldr	r2, [r3, #36]
 221 0058 42F00100 		orr	r0, r2, #1
 222 005c 5862     		str	r0, [r3, #36]
 223              		.loc 1 176 0
 224 005e 1946     		mov	r1, r3
 225              	.L12:
ARM GAS  /tmp/cctvfutn.s 			page 5


 226              		.loc 1 176 0 is_stmt 0 discriminator 1
 227 0060 4A6A     		ldr	r2, [r1, #36]
 228 0062 4FF48053 		mov	r3, #4096
 229 0066 9007     		lsls	r0, r2, #30
 230 0068 C4F20203 		movt	r3, 16386
 231 006c F8D5     		bpl	.L12
 232              		.loc 1 181 0 is_stmt 1
 233 006e 4FF41050 		mov	r0, #9216
 234 0072 C0F21D00 		movt	r0, 29
 235              		.loc 1 184 0
 236 0076 42F20211 		movw	r1, #8450
 237              		.loc 1 185 0
 238 007a 3022     		movs	r2, #48
 239              		.loc 1 181 0
 240 007c 5860     		str	r0, [r3, #4]
 241              		.loc 1 184 0
 242 007e D962     		str	r1, [r3, #44]
 243              		.loc 1 185 0
 244 0080 1A63     		str	r2, [r3, #48]
 245              		.loc 1 191 0
 246 0082 1868     		ldr	r0, [r3, #0]
 247 0084 40F08071 		orr	r1, r0, #16777216
 248 0088 1960     		str	r1, [r3, #0]
 249              	.L13:
 250              		.loc 1 192 0 discriminator 1
 251 008a 1868     		ldr	r0, [r3, #0]
 252 008c 4FF48052 		mov	r2, #4096
 253 0090 8101     		lsls	r1, r0, #6
 254 0092 C4F20202 		movt	r2, 16386
 255 0096 F8D5     		bpl	.L13
 256              		.loc 1 197 0
 257 0098 4FF40053 		mov	r3, #8192
 258 009c C4F20203 		movt	r3, 16386
 259 00a0 1221     		movs	r1, #18
 260 00a2 1960     		str	r1, [r3, #0]
 261              		.loc 1 202 0
 262 00a4 5068     		ldr	r0, [r2, #4]
 263 00a6 40F00203 		orr	r3, r0, #2
 264 00aa 5360     		str	r3, [r2, #4]
 265              	.L14:
 266              		.loc 1 203 0 discriminator 1
 267 00ac 5168     		ldr	r1, [r2, #4]
 268 00ae 01F00C00 		and	r0, r1, #12
 269 00b2 0828     		cmp	r0, #8
 270 00b4 FAD1     		bne	.L14
 271              		.loc 1 207 0
 272 00b6 7047     		bx	lr
 273              		.cfi_endproc
 274              	.LFE120:
 275              		.size	stm32_clock_init, .-stm32_clock_init
 276 00b8 AFF30080 		.text
 276      AFF30080 
 277              	.Letext0:
 278              		.file 2 "/opt/ChibiStudio/tools/gcc-arm-none-eabi-4_7-2013q1/bin/../lib/gcc/arm-none-eabi/4.7.3/..
 279              		.file 3 "../../../os/ports/common/ARMCMx/nvic.h"
 280              		.file 4 "../../../os/ports/common/ARMCMx/CMSIS/include/core_cm4.h"
 281              		.file 5 "../../../os/hal/platforms/STM32F30x/stm32f30x.h"
ARM GAS  /tmp/cctvfutn.s 			page 6


 282              		.file 6 "../../../os/hal/platforms/STM32F30x/stm32_dma.h"