ARM GAS  /tmp/cco43UBS.s 			page 1


   1              		.syntax unified
   2              		.cpu cortex-m4
   3              		.fpu softvfp
   4              		.eabi_attribute 20, 1
   5              		.eabi_attribute 21, 1
   6              		.eabi_attribute 23, 3
   7              		.eabi_attribute 24, 1
   8              		.eabi_attribute 25, 1
   9              		.eabi_attribute 26, 1
  10              		.eabi_attribute 30, 2
  11              		.eabi_attribute 34, 1
  12              		.eabi_attribute 18, 4
  13              		.thumb
  14              		.file	"hal.c"
  15              		.text
  16              	.Ltext0:
  17              		.cfi_sections	.debug_frame
  18              		.section	.text.halInit,"ax",%progbits
  19              		.align	2
  20              		.p2align 4,,15
  21              		.global	halInit
  22              		.thumb
  23              		.thumb_func
  24              		.type	halInit, %function
  25              	halInit:
  26              	.LFB118:
  27              		.file 1 "../../os/hal/src/hal.c"
  28              		.loc 1 68 0
  29              		.cfi_startproc
  30              		@ args = 0, pretend = 0, frame = 0
  31              		@ frame_needed = 0, uses_anonymous_args = 0
  32 0000 08B5     		push	{r3, lr}
  33              	.LCFI0:
  34              		.cfi_def_cfa_offset 8
  35              		.cfi_offset 3, -8
  36              		.cfi_offset 14, -4
  37              		.loc 1 70 0
  38 0002 FFF7FEFF 		bl	hal_lld_init
  39              	.LVL0:
  40              		.loc 1 76 0
  41 0006 40F20000 		movw	r0, #:lower16:pal_default_config
  42 000a C0F20000 		movt	r0, #:upper16:pal_default_config
  43 000e FFF7FEFF 		bl	_pal_lld_init
  44              	.LVL1:
  45              		.loc 1 103 0
  46 0012 FFF7FEFF 		bl	sdInit
  47              	.LVL2:
  48              		.loc 1 128 0
  49 0016 BDE80840 		pop	{r3, lr}
  50              		.loc 1 127 0
  51 001a FFF7FEBF 		b	boardInit
  52              	.LVL3:
  53              		.cfi_endproc
  54              	.LFE118:
  55              		.size	halInit, .-halInit
  56 001e 00BF     		.section	.text.halIsCounterWithin,"ax",%progbits
  57              		.align	2
ARM GAS  /tmp/cco43UBS.s 			page 2


  58              		.p2align 4,,15
  59              		.global	halIsCounterWithin
  60              		.thumb
  61              		.thumb_func
  62              		.type	halIsCounterWithin, %function
  63              	halIsCounterWithin:
  64              	.LFB119:
  65              		.loc 1 174 0
  66              		.cfi_startproc
  67              		@ args = 0, pretend = 0, frame = 0
  68              		@ frame_needed = 0, uses_anonymous_args = 0
  69              		@ link register save eliminated.
  70              	.LVL4:
  71              		.loc 1 175 0
  72 0000 4FF48053 		mov	r3, #4096
  73 0004 CEF20003 		movt	r3, 57344
  74              		.loc 1 177 0
  75 0008 8142     		cmp	r1, r0
  76              		.loc 1 175 0
  77 000a 5A68     		ldr	r2, [r3, #4]
  78              	.LVL5:
  79              		.loc 1 177 0
  80 000c 06D9     		bls	.L3
  81              		.loc 1 177 0 is_stmt 0 discriminator 1
  82 000e 8242     		cmp	r2, r0
  83 0010 08D3     		bcc	.L7
  84              	.L9:
  85              		.loc 1 178 0 is_stmt 1 discriminator 2
  86 0012 8A42     		cmp	r2, r1
  87 0014 2CBF     		ite	cs
  88 0016 0020     		movcs	r0, #0
  89              	.LVL6:
  90 0018 0120     		movcc	r0, #1
  91 001a 7047     		bx	lr
  92              	.LVL7:
  93              	.L3:
  94              		.loc 1 178 0 is_stmt 0
  95 001c 8242     		cmp	r2, r0
  96 001e F8D3     		bcc	.L9
  97 0020 0120     		movs	r0, #1
  98              	.LVL8:
  99              		.loc 1 179 0 is_stmt 1
 100 0022 7047     		bx	lr
 101              	.LVL9:
 102              	.L7:
 103              		.loc 1 177 0
 104 0024 0020     		movs	r0, #0
 105              	.LVL10:
 106 0026 7047     		bx	lr
 107              		.cfi_endproc
 108              	.LFE119:
 109              		.size	halIsCounterWithin, .-halIsCounterWithin
 110 0028 AFF30080 		.section	.text.halPolledDelay,"ax",%progbits
 110      AFF30080 
 111              		.align	2
 112              		.p2align 4,,15
 113              		.global	halPolledDelay
ARM GAS  /tmp/cco43UBS.s 			page 3


 114              		.thumb
 115              		.thumb_func
 116              		.type	halPolledDelay, %function
 117              	halPolledDelay:
 118              	.LFB120:
 119              		.loc 1 193 0
 120              		.cfi_startproc
 121              		@ args = 0, pretend = 0, frame = 0
 122              		@ frame_needed = 0, uses_anonymous_args = 0
 123              		@ link register save eliminated.
 124              	.LVL11:
 125              		.loc 1 194 0
 126 0000 4FF48053 		mov	r3, #4096
 127 0004 CEF20003 		movt	r3, 57344
 128              	.LBB4:
 129              	.LBB5:
 130              		.loc 1 175 0
 131 0008 1946     		mov	r1, r3
 132              	.LBE5:
 133              	.LBE4:
 134              		.loc 1 194 0
 135 000a 5A68     		ldr	r2, [r3, #4]
 136              	.LVL12:
 137              		.loc 1 195 0
 138 000c 8018     		adds	r0, r0, r2
 139              	.LVL13:
 140              	.L21:
 141              	.LBB7:
 142              	.LBB6:
 143              		.loc 1 177 0 discriminator 1
 144 000e 8242     		cmp	r2, r0
 145              		.loc 1 175 0 discriminator 1
 146 0010 4B68     		ldr	r3, [r1, #4]
 147              	.LVL14:
 148              		.loc 1 177 0 discriminator 1
 149 0012 02D2     		bcs	.L12
 150              		.loc 1 177 0 is_stmt 0
 151 0014 9A42     		cmp	r2, r3
 152 0016 02D9     		bls	.L22
 153 0018 7047     		bx	lr
 154              	.L12:
 155              		.loc 1 178 0 is_stmt 1
 156 001a 9A42     		cmp	r2, r3
 157 001c F7D9     		bls	.L21
 158              	.L22:
 159 001e 9842     		cmp	r0, r3
 160 0020 94BF     		ite	ls
 161 0022 0023     		movls	r3, #0
 162              	.LVL15:
 163 0024 0123     		movhi	r3, #1
 164              	.LBE6:
 165              	.LBE7:
 166              		.loc 1 196 0
 167 0026 002B     		cmp	r3, #0
 168 0028 F1D1     		bne	.L21
 169 002a 7047     		bx	lr
 170              		.cfi_endproc
ARM GAS  /tmp/cco43UBS.s 			page 4


 171              	.LFE120:
 172              		.size	halPolledDelay, .-halPolledDelay
 173 002c AFF30080 		.text
 174              	.Letext0:
 175              		.file 2 "/opt/ChibiStudio/tools/gcc-arm-none-eabi-4_7-2013q1/bin/../lib/gcc/arm-none-eabi/4.7.3/..
 176              		.file 3 "../../os/ports/GCC/ARMCMx/chtypes.h"
 177              		.file 4 "../../os/ports/common/ARMCMx/nvic.h"
 178              		.file 5 "../../os/hal/platforms/STM32F30x/hal_lld.h"
 179              		.file 6 "../../os/hal/platforms/STM32/GPIOv2/pal_lld.h"
 180              		.file 7 "../../os/ports/common/ARMCMx/CMSIS/include/core_cm4.h"
 181              		.file 8 "../../os/hal/include/serial.h"
 182              		.file 9 "../../boards/ST_STM32F3_DISCOVERY/board.h"