ARM GAS  /tmp/ccjyzbzX.s 			page 1


   1              		.syntax unified
   2              		.cpu cortex-m4
   3              		.fpu softvfp
   4              		.eabi_attribute 20, 1
   5              		.eabi_attribute 21, 1
   6              		.eabi_attribute 23, 3
   7              		.eabi_attribute 24, 1
   8              		.eabi_attribute 25, 1
   9              		.eabi_attribute 26, 1
  10              		.eabi_attribute 30, 2
  11              		.eabi_attribute 34, 1
  12              		.eabi_attribute 18, 4
  13              		.thumb
  14              		.file	"pal_lld.c"
  15              		.text
  16              	.Ltext0:
  17              		.cfi_sections	.debug_frame
  18              		.section	.text._pal_lld_init,"ax",%progbits
  19              		.align	2
  20              		.p2align 4,,15
  21              		.global	_pal_lld_init
  22              		.thumb
  23              		.thumb_func
  24              		.type	_pal_lld_init, %function
  25              	_pal_lld_init:
  26              	.LFB119:
  27              		.file 1 "../../os/hal/platforms/STM32/GPIOv2/pal_lld.c"
  28              		.loc 1 113 0
  29              		.cfi_startproc
  30              		@ args = 0, pretend = 0, frame = 0
  31              		@ frame_needed = 0, uses_anonymous_args = 0
  32              		@ link register save eliminated.
  33              	.LVL0:
  34              		.loc 1 124 0
  35 0000 4FF48053 		mov	r3, #4096
  36 0004 C4F20203 		movt	r3, 16386
  37 0008 5A69     		ldr	r2, [r3, #20]
  38 000a 42F4FC01 		orr	r1, r2, #8257536
  39 000e 5961     		str	r1, [r3, #20]
  40              	.LVL1:
  41              	.LBB14:
  42              	.LBB15:
  43              		.loc 1 88 0
  44 0010 4168     		ldr	r1, [r0, #4]
  45 0012 4FF09042 		mov	r2, #1207959552
  46              	.LBE15:
  47              	.LBE14:
  48              	.LBB17:
  49              	.LBB18:
  50 0016 4FF48063 		mov	r3, #1024
  51              	.LBE18:
  52              	.LBE17:
  53              	.LBB21:
  54              	.LBB16:
  55 001a 5160     		str	r1, [r2, #4]
  56              		.loc 1 89 0
  57 001c 8168     		ldr	r1, [r0, #8]
ARM GAS  /tmp/ccjyzbzX.s 			page 2


  58 001e 9160     		str	r1, [r2, #8]
  59              		.loc 1 90 0
  60 0020 C168     		ldr	r1, [r0, #12]
  61 0022 D160     		str	r1, [r2, #12]
  62              		.loc 1 91 0
  63 0024 0169     		ldr	r1, [r0, #16]
  64 0026 5161     		str	r1, [r2, #20]
  65              		.loc 1 92 0
  66 0028 4169     		ldr	r1, [r0, #20]
  67 002a 1162     		str	r1, [r2, #32]
  68              		.loc 1 93 0
  69 002c 8169     		ldr	r1, [r0, #24]
  70 002e 5162     		str	r1, [r2, #36]
  71              		.loc 1 94 0
  72 0030 0168     		ldr	r1, [r0, #0]
  73 0032 1160     		str	r1, [r2, #0]
  74              	.LVL2:
  75              	.LBE16:
  76              	.LBE21:
  77              	.LBB22:
  78              	.LBB19:
  79              		.loc 1 88 0
  80 0034 016A     		ldr	r1, [r0, #32]
  81 0036 C4F60003 		movt	r3, 18432
  82              	.LBE19:
  83              	.LBE22:
  84              	.LBB23:
  85              	.LBB24:
  86 003a 4FF40062 		mov	r2, #2048
  87              	.LBE24:
  88              	.LBE23:
  89              	.LBB27:
  90              	.LBB20:
  91 003e 5960     		str	r1, [r3, #4]
  92              		.loc 1 89 0
  93 0040 416A     		ldr	r1, [r0, #36]
  94 0042 9960     		str	r1, [r3, #8]
  95              		.loc 1 90 0
  96 0044 816A     		ldr	r1, [r0, #40]
  97 0046 D960     		str	r1, [r3, #12]
  98              		.loc 1 91 0
  99 0048 C16A     		ldr	r1, [r0, #44]
 100 004a 5961     		str	r1, [r3, #20]
 101              		.loc 1 92 0
 102 004c 016B     		ldr	r1, [r0, #48]
 103 004e 1962     		str	r1, [r3, #32]
 104              		.loc 1 93 0
 105 0050 416B     		ldr	r1, [r0, #52]
 106 0052 5962     		str	r1, [r3, #36]
 107              		.loc 1 94 0
 108 0054 C169     		ldr	r1, [r0, #28]
 109 0056 1960     		str	r1, [r3, #0]
 110              	.LVL3:
 111              	.LBE20:
 112              	.LBE27:
 113              	.LBB28:
 114              	.LBB25:
ARM GAS  /tmp/ccjyzbzX.s 			page 3


 115              		.loc 1 88 0
 116 0058 C4F60002 		movt	r2, 18432
 117 005c C36B     		ldr	r3, [r0, #60]
 118 005e 5360     		str	r3, [r2, #4]
 119              		.loc 1 89 0
 120 0060 016C     		ldr	r1, [r0, #64]
 121 0062 9160     		str	r1, [r2, #8]
 122              		.loc 1 90 0
 123 0064 436C     		ldr	r3, [r0, #68]
 124 0066 D360     		str	r3, [r2, #12]
 125              		.loc 1 91 0
 126 0068 816C     		ldr	r1, [r0, #72]
 127 006a 5161     		str	r1, [r2, #20]
 128              		.loc 1 92 0
 129 006c C36C     		ldr	r3, [r0, #76]
 130 006e 1362     		str	r3, [r2, #32]
 131              		.loc 1 93 0
 132 0070 016D     		ldr	r1, [r0, #80]
 133 0072 5162     		str	r1, [r2, #36]
 134              		.loc 1 94 0
 135 0074 816B     		ldr	r1, [r0, #56]
 136              	.LBE25:
 137              	.LBE28:
 138              	.LBB29:
 139              	.LBB30:
 140              		.loc 1 88 0
 141 0076 4FF44063 		mov	r3, #3072
 142              	.LBE30:
 143              	.LBE29:
 144              	.LBB33:
 145              	.LBB26:
 146              		.loc 1 94 0
 147 007a 1160     		str	r1, [r2, #0]
 148              	.LVL4:
 149              	.LBE26:
 150              	.LBE33:
 151              	.LBB34:
 152              	.LBB31:
 153              		.loc 1 88 0
 154 007c 816D     		ldr	r1, [r0, #88]
 155 007e C4F60003 		movt	r3, 18432
 156              	.LBE31:
 157              	.LBE34:
 158              	.LBB35:
 159              	.LBB36:
 160 0082 4FF48052 		mov	r2, #4096
 161              	.LBE36:
 162              	.LBE35:
 163              	.LBB39:
 164              	.LBB32:
 165 0086 5960     		str	r1, [r3, #4]
 166              		.loc 1 89 0
 167 0088 C16D     		ldr	r1, [r0, #92]
 168 008a 9960     		str	r1, [r3, #8]
 169              		.loc 1 90 0
 170 008c 016E     		ldr	r1, [r0, #96]
 171 008e D960     		str	r1, [r3, #12]
ARM GAS  /tmp/ccjyzbzX.s 			page 4


 172              		.loc 1 91 0
 173 0090 416E     		ldr	r1, [r0, #100]
 174 0092 5961     		str	r1, [r3, #20]
 175              		.loc 1 92 0
 176 0094 816E     		ldr	r1, [r0, #104]
 177 0096 1962     		str	r1, [r3, #32]
 178              		.loc 1 93 0
 179 0098 C16E     		ldr	r1, [r0, #108]
 180 009a 5962     		str	r1, [r3, #36]
 181              		.loc 1 94 0
 182 009c 416D     		ldr	r1, [r0, #84]
 183 009e 1960     		str	r1, [r3, #0]
 184              	.LVL5:
 185              	.LBE32:
 186              	.LBE39:
 187              	.LBB40:
 188              	.LBB37:
 189              		.loc 1 88 0
 190 00a0 C4F60002 		movt	r2, 18432
 191 00a4 436F     		ldr	r3, [r0, #116]
 192 00a6 5360     		str	r3, [r2, #4]
 193              		.loc 1 89 0
 194 00a8 816F     		ldr	r1, [r0, #120]
 195 00aa 9160     		str	r1, [r2, #8]
 196              		.loc 1 90 0
 197 00ac C36F     		ldr	r3, [r0, #124]
 198 00ae D360     		str	r3, [r2, #12]
 199              		.loc 1 91 0
 200 00b0 D0F88010 		ldr	r1, [r0, #128]
 201 00b4 5161     		str	r1, [r2, #20]
 202              		.loc 1 92 0
 203 00b6 D0F88430 		ldr	r3, [r0, #132]
 204 00ba 1362     		str	r3, [r2, #32]
 205              		.loc 1 93 0
 206 00bc D0F88810 		ldr	r1, [r0, #136]
 207 00c0 5162     		str	r1, [r2, #36]
 208              		.loc 1 94 0
 209 00c2 016F     		ldr	r1, [r0, #112]
 210              	.LBE37:
 211              	.LBE40:
 212              	.LBB41:
 213              	.LBB42:
 214              		.loc 1 88 0
 215 00c4 4FF4A053 		mov	r3, #5120
 216              	.LBE42:
 217              	.LBE41:
 218              	.LBB44:
 219              	.LBB38:
 220              		.loc 1 94 0
 221 00c8 1160     		str	r1, [r2, #0]
 222              	.LVL6:
 223              	.LBE38:
 224              	.LBE44:
 225              	.LBB45:
 226              	.LBB43:
 227              		.loc 1 88 0
 228 00ca D0F89020 		ldr	r2, [r0, #144]
ARM GAS  /tmp/ccjyzbzX.s 			page 5


 229 00ce C4F60003 		movt	r3, 18432
 230 00d2 5A60     		str	r2, [r3, #4]
 231              		.loc 1 89 0
 232 00d4 D0F89410 		ldr	r1, [r0, #148]
 233 00d8 9960     		str	r1, [r3, #8]
 234              		.loc 1 90 0
 235 00da D0F89820 		ldr	r2, [r0, #152]
 236 00de DA60     		str	r2, [r3, #12]
 237              		.loc 1 91 0
 238 00e0 D0F89C10 		ldr	r1, [r0, #156]
 239 00e4 5961     		str	r1, [r3, #20]
 240              		.loc 1 92 0
 241 00e6 D0F8A020 		ldr	r2, [r0, #160]
 242 00ea 1A62     		str	r2, [r3, #32]
 243              		.loc 1 93 0
 244 00ec D0F8A410 		ldr	r1, [r0, #164]
 245 00f0 5962     		str	r1, [r3, #36]
 246              		.loc 1 94 0
 247 00f2 D0F88C00 		ldr	r0, [r0, #140]
 248              	.LVL7:
 249 00f6 1860     		str	r0, [r3, #0]
 250 00f8 7047     		bx	lr
 251              	.LBE43:
 252              	.LBE45:
 253              		.cfi_endproc
 254              	.LFE119:
 255              		.size	_pal_lld_init, .-_pal_lld_init
 256 00fa 00BFAFF3 		.section	.text._pal_lld_setgroupmode,"ax",%progbits
 256      0080
 257              		.align	2
 258              		.p2align 4,,15
 259              		.global	_pal_lld_setgroupmode
 260              		.thumb
 261              		.thumb_func
 262              		.type	_pal_lld_setgroupmode, %function
 263              	_pal_lld_setgroupmode:
 264              	.LFB120:
 265              		.loc 1 178 0
 266              		.cfi_startproc
 267              		@ args = 0, pretend = 0, frame = 0
 268              		@ frame_needed = 0, uses_anonymous_args = 0
 269              		@ link register save eliminated.
 270              	.LVL8:
 271 0000 2DE9F00F 		push	{r4, r5, r6, r7, r8, r9, sl, fp}
 272              	.LCFI0:
 273              		.cfi_def_cfa_offset 32
 274              		.cfi_offset 4, -32
 275              		.cfi_offset 5, -28
 276              		.cfi_offset 6, -24
 277              		.cfi_offset 7, -20
 278              		.cfi_offset 8, -16
 279              		.cfi_offset 9, -12
 280              		.cfi_offset 10, -8
 281              		.cfi_offset 11, -4
 282              		.loc 1 185 0
 283 0004 0023     		movs	r3, #0
 284              		.loc 1 180 0
ARM GAS  /tmp/ccjyzbzX.s 			page 6


 285 0006 02F00307 		and	r7, r2, #3
 286              	.LVL9:
 287              		.loc 1 181 0
 288 000a C2F38006 		ubfx	r6, r2, #2, #1
 289              	.LVL10:
 290              		.loc 1 182 0
 291 000e C2F3C105 		ubfx	r5, r2, #3, #2
 292              	.LVL11:
 293              		.loc 1 183 0
 294 0012 C2F34114 		ubfx	r4, r2, #5, #2
 295              	.LVL12:
 296              	.LBB46:
 297              		.loc 1 191 0
 298 0016 4FF00F09 		mov	r9, #15
 299              	.LBE46:
 300              		.loc 1 184 0
 301 001a C2F3C312 		ubfx	r2, r2, #7, #4
 302              	.LVL13:
 303              	.LBB47:
 304              		.loc 1 196 0
 305 001e 4FF0010A 		mov	sl, #1
 306 0022 38E0     		b	.L7
 307              	.LVL14:
 308              	.L12:
 309              		.loc 1 193 0
 310 0024 D0F820B0 		ldr	fp, [r0, #32]
 311 0028 2BEA0C0C 		bic	ip, fp, ip
 312              	.LVL15:
 313 002c 4CEA0808 		orr	r8, ip, r8
 314              	.LVL16:
 315 0030 C0F82080 		str	r8, [r0, #32]
 316              	.L5:
 317              	.LVL17:
 318              		.loc 1 197 0
 319 0034 D0F804B0 		ldr	fp, [r0, #4]
 320              		.loc 1 196 0
 321 0038 0AFA03FC 		lsl	ip, sl, r3
 322              		.loc 1 197 0
 323 003c 2BEA0C08 		bic	r8, fp, ip
 324 0040 48EA060B 		orr	fp, r8, r6
 325 0044 C0F804B0 		str	fp, [r0, #4]
 326              	.LVL18:
 327              		.loc 1 176 0
 328 0048 4FEA430C 		lsl	ip, r3, #1
 329              		.loc 1 198 0
 330 004c 4FF0030B 		mov	fp, #3
 331              		.loc 1 199 0
 332 0050 D0F80880 		ldr	r8, [r0, #8]
 333              		.loc 1 198 0
 334 0054 0BFA0CFC 		lsl	ip, fp, ip
 335              	.LVL19:
 336              		.loc 1 199 0
 337 0058 6FEA0C0C 		mvn	ip, ip
 338              	.LVL20:
 339 005c 0CEA0808 		and	r8, ip, r8
 340 0060 48EA0508 		orr	r8, r8, r5
 341 0064 C0F80880 		str	r8, [r0, #8]
ARM GAS  /tmp/ccjyzbzX.s 			page 7


 342              		.loc 1 200 0
 343 0068 D0F80C80 		ldr	r8, [r0, #12]
 344 006c 0CEA0808 		and	r8, ip, r8
 345 0070 48EA0408 		orr	r8, r8, r4
 346 0074 C0F80C80 		str	r8, [r0, #12]
 347              		.loc 1 201 0
 348 0078 D0F80080 		ldr	r8, [r0, #0]
 349 007c 0CEA080C 		and	ip, ip, r8
 350              	.LVL21:
 351 0080 4CEA070C 		orr	ip, ip, r7
 352 0084 C0F800C0 		str	ip, [r0, #0]
 353              	.LVL22:
 354              	.L3:
 355              	.LBE47:
 356              		.loc 1 204 0
 357 0088 4908     		lsrs	r1, r1, #1
 358              	.LVL23:
 359 008a 1AD0     		beq	.L2
 360              		.loc 1 206 0
 361 008c 7600     		lsls	r6, r6, #1
 362              	.LVL24:
 363              		.loc 1 207 0
 364 008e AD00     		lsls	r5, r5, #2
 365              	.LVL25:
 366              		.loc 1 208 0
 367 0090 A400     		lsls	r4, r4, #2
 368              	.LVL26:
 369              		.loc 1 209 0
 370 0092 BF00     		lsls	r7, r7, #2
 371              	.LVL27:
 372              		.loc 1 210 0
 373 0094 0133     		adds	r3, r3, #1
 374              	.LVL28:
 375              	.L7:
 376              	.LBB48:
 377              		.loc 1 190 0
 378 0096 03F0070C 		and	ip, r3, #7
 379 009a 4FEA8C0C 		lsl	ip, ip, #2
 380              	.LBE48:
 381              		.loc 1 187 0
 382 009e 11F0010F 		tst	r1, #1
 383              	.LBB49:
 384              		.loc 1 190 0
 385 00a2 02FA0CF8 		lsl	r8, r2, ip
 386              	.LVL29:
 387              		.loc 1 191 0
 388 00a6 09FA0CFC 		lsl	ip, r9, ip
 389              	.LVL30:
 390              	.LBE49:
 391              		.loc 1 187 0
 392 00aa EDD0     		beq	.L3
 393              	.LBB50:
 394              		.loc 1 192 0
 395 00ac 072B     		cmp	r3, #7
 396 00ae B9D9     		bls	.L12
 397              		.loc 1 195 0
 398 00b0 D0F824B0 		ldr	fp, [r0, #36]
ARM GAS  /tmp/ccjyzbzX.s 			page 8


 399 00b4 2BEA0C0C 		bic	ip, fp, ip
 400              	.LVL31:
 401 00b8 4CEA0808 		orr	r8, ip, r8
 402              	.LVL32:
 403 00bc C0F82480 		str	r8, [r0, #36]
 404 00c0 B8E7     		b	.L5
 405              	.L2:
 406              	.LBE50:
 407              		.loc 1 212 0
 408 00c2 BDE8F00F 		pop	{r4, r5, r6, r7, r8, r9, sl, fp}
 409 00c6 7047     		bx	lr
 410              		.cfi_endproc
 411              	.LFE120:
 412              		.size	_pal_lld_setgroupmode, .-_pal_lld_setgroupmode
 413 00c8 AFF30080 		.text
 413      AFF30080 
 414              	.Letext0:
 415              		.file 2 "/opt/ChibiStudio/tools/gcc-arm-none-eabi-4_7-2013q1/bin/../lib/gcc/arm-none-eabi/4.7.3/..
 416              		.file 3 "../../os/hal/platforms/STM32F30x/stm32f30x.h"
 417              		.file 4 "../../os/hal/platforms/STM32/GPIOv2/pal_lld.h"
 418              		.file 5 "../../os/ports/common/ARMCMx/CMSIS/include/core_cm4.h"
 419              		.section	.debug_info,"",%progbits
 420              	.Ldebug_info0:
 421 0000 95050000 		.4byte	0x595
 422 0004 0200     		.2byte	0x2
 423 0006 00000000 		.4byte	.Ldebug_abbrev0
 424 000a 04       		.byte	0x4
 425 000b 01       		.uleb128 0x1
 426 000c 58010000 		.4byte	.LASF62
 427 0010 01       		.byte	0x1
 428 0011 BC020000 		.4byte	.LASF63
 429 0015 65000000 		.4byte	.LASF64
 430 0019 E0000000 		.4byte	.Ldebug_ranges0+0xe0
 431 001d 00000000 		.4byte	0
 432 0021 00000000 		.4byte	0
 433 0025 00000000 		.4byte	.Ldebug_line0
 434 0029 02       		.uleb128 0x2
 435 002a 04       		.byte	0x4
 436 002b 05       		.byte	0x5
 437 002c 696E7400 		.ascii	"int\000"
 438 0030 03       		.uleb128 0x3
 439 0031 04       		.byte	0x4
 440 0032 07       		.byte	0x7
 441 0033 A5020000 		.4byte	.LASF0
 442 0037 03       		.uleb128 0x3
 443 0038 01       		.byte	0x1
 444 0039 06       		.byte	0x6
 445 003a C2010000 		.4byte	.LASF1
 446 003e 03       		.uleb128 0x3
 447 003f 01       		.byte	0x1
 448 0040 08       		.byte	0x8
 449 0041 AC010000 		.4byte	.LASF2
 450 0045 03       		.uleb128 0x3
 451 0046 02       		.byte	0x2
 452 0047 05       		.byte	0x5
 453 0048 5B000000 		.4byte	.LASF3
 454 004c 04       		.uleb128 0x4
ARM GAS  /tmp/ccjyzbzX.s 			page 9


 455 004d 23020000 		.4byte	.LASF5
 456 0051 02       		.byte	0x2
 457 0052 36       		.byte	0x36
 458 0053 57000000 		.4byte	0x57
 459 0057 03       		.uleb128 0x3
 460 0058 02       		.byte	0x2
 461 0059 07       		.byte	0x7
 462 005a 0B020000 		.4byte	.LASF4
 463 005e 04       		.uleb128 0x4
 464 005f 2C020000 		.4byte	.LASF6
 465 0063 02       		.byte	0x2
 466 0064 4F       		.byte	0x4f
 467 0065 69000000 		.4byte	0x69
 468 0069 03       		.uleb128 0x3
 469 006a 04       		.byte	0x4
 470 006b 05       		.byte	0x5
 471 006c 20010000 		.4byte	.LASF7
 472 0070 04       		.uleb128 0x4
 473 0071 E5010000 		.4byte	.LASF8
 474 0075 02       		.byte	0x2
 475 0076 50       		.byte	0x50
 476 0077 7B000000 		.4byte	0x7b
 477 007b 03       		.uleb128 0x3
 478 007c 04       		.byte	0x4
 479 007d 07       		.byte	0x7
 480 007e 62020000 		.4byte	.LASF9
 481 0082 03       		.uleb128 0x3
 482 0083 08       		.byte	0x8
 483 0084 05       		.byte	0x5
 484 0085 04010000 		.4byte	.LASF10
 485 0089 03       		.uleb128 0x3
 486 008a 08       		.byte	0x8
 487 008b 07       		.byte	0x7
 488 008c CE010000 		.4byte	.LASF11
 489 0090 03       		.uleb128 0x3
 490 0091 01       		.byte	0x1
 491 0092 02       		.byte	0x2
 492 0093 3E020000 		.4byte	.LASF12
 493 0097 05       		.uleb128 0x5
 494 0098 70000000 		.4byte	0x70
 495 009c 03       		.uleb128 0x3
 496 009d 04       		.byte	0x4
 497 009e 07       		.byte	0x7
 498 009f AE000000 		.4byte	.LASF13
 499 00a3 03       		.uleb128 0x3
 500 00a4 01       		.byte	0x1
 501 00a5 08       		.byte	0x8
 502 00a6 1E020000 		.4byte	.LASF14
 503 00aa 05       		.uleb128 0x5
 504 00ab 5E000000 		.4byte	0x5e
 505 00af 06       		.uleb128 0x6
 506 00b0 34       		.byte	0x34
 507 00b1 03       		.byte	0x3
 508 00b2 8502     		.2byte	0x285
 509 00b4 7B010000 		.4byte	0x17b
 510 00b8 07       		.uleb128 0x7
 511 00b9 435200   		.ascii	"CR\000"
ARM GAS  /tmp/ccjyzbzX.s 			page 10


 512 00bc 03       		.byte	0x3
 513 00bd 8702     		.2byte	0x287
 514 00bf 97000000 		.4byte	0x97
 515 00c3 02       		.byte	0x2
 516 00c4 23       		.byte	0x23
 517 00c5 00       		.uleb128 0
 518 00c6 08       		.uleb128 0x8
 519 00c7 B2020000 		.4byte	.LASF15
 520 00cb 03       		.byte	0x3
 521 00cc 8802     		.2byte	0x288
 522 00ce 97000000 		.4byte	0x97
 523 00d2 02       		.byte	0x2
 524 00d3 23       		.byte	0x23
 525 00d4 04       		.uleb128 0x4
 526 00d5 07       		.uleb128 0x7
 527 00d6 43495200 		.ascii	"CIR\000"
 528 00da 03       		.byte	0x3
 529 00db 8902     		.2byte	0x289
 530 00dd 97000000 		.4byte	0x97
 531 00e1 02       		.byte	0x2
 532 00e2 23       		.byte	0x23
 533 00e3 08       		.uleb128 0x8
 534 00e4 08       		.uleb128 0x8
 535 00e5 49010000 		.4byte	.LASF16
 536 00e9 03       		.byte	0x3
 537 00ea 8A02     		.2byte	0x28a
 538 00ec 97000000 		.4byte	0x97
 539 00f0 02       		.byte	0x2
 540 00f1 23       		.byte	0x23
 541 00f2 0C       		.uleb128 0xc
 542 00f3 08       		.uleb128 0x8
 543 00f4 2A000000 		.4byte	.LASF17
 544 00f8 03       		.byte	0x3
 545 00f9 8B02     		.2byte	0x28b
 546 00fb 97000000 		.4byte	0x97
 547 00ff 02       		.byte	0x2
 548 0100 23       		.byte	0x23
 549 0101 10       		.uleb128 0x10
 550 0102 08       		.uleb128 0x8
 551 0103 3C010000 		.4byte	.LASF18
 552 0107 03       		.byte	0x3
 553 0108 8C02     		.2byte	0x28c
 554 010a 97000000 		.4byte	0x97
 555 010e 02       		.byte	0x2
 556 010f 23       		.byte	0x23
 557 0110 14       		.uleb128 0x14
 558 0111 08       		.uleb128 0x8
 559 0112 BA010000 		.4byte	.LASF19
 560 0116 03       		.byte	0x3
 561 0117 8D02     		.2byte	0x28d
 562 0119 97000000 		.4byte	0x97
 563 011d 02       		.byte	0x2
 564 011e 23       		.byte	0x23
 565 011f 18       		.uleb128 0x18
 566 0120 08       		.uleb128 0x8
 567 0121 D9000000 		.4byte	.LASF20
 568 0125 03       		.byte	0x3
ARM GAS  /tmp/ccjyzbzX.s 			page 11


 569 0126 8E02     		.2byte	0x28e
 570 0128 97000000 		.4byte	0x97
 571 012c 02       		.byte	0x2
 572 012d 23       		.byte	0x23
 573 012e 1C       		.uleb128 0x1c
 574 012f 08       		.uleb128 0x8
 575 0130 B7000000 		.4byte	.LASF21
 576 0134 03       		.byte	0x3
 577 0135 8F02     		.2byte	0x28f
 578 0137 97000000 		.4byte	0x97
 579 013b 02       		.byte	0x2
 580 013c 23       		.byte	0x23
 581 013d 20       		.uleb128 0x20
 582 013e 07       		.uleb128 0x7
 583 013f 43535200 		.ascii	"CSR\000"
 584 0143 03       		.byte	0x3
 585 0144 9002     		.2byte	0x290
 586 0146 97000000 		.4byte	0x97
 587 014a 02       		.byte	0x2
 588 014b 23       		.byte	0x23
 589 014c 24       		.uleb128 0x24
 590 014d 08       		.uleb128 0x8
 591 014e FC000000 		.4byte	.LASF22
 592 0152 03       		.byte	0x3
 593 0153 9102     		.2byte	0x291
 594 0155 97000000 		.4byte	0x97
 595 0159 02       		.byte	0x2
 596 015a 23       		.byte	0x23
 597 015b 28       		.uleb128 0x28
 598 015c 08       		.uleb128 0x8
 599 015d F5010000 		.4byte	.LASF23
 600 0161 03       		.byte	0x3
 601 0162 9202     		.2byte	0x292
 602 0164 97000000 		.4byte	0x97
 603 0168 02       		.byte	0x2
 604 0169 23       		.byte	0x23
 605 016a 2C       		.uleb128 0x2c
 606 016b 08       		.uleb128 0x8
 607 016c FB010000 		.4byte	.LASF24
 608 0170 03       		.byte	0x3
 609 0171 9302     		.2byte	0x293
 610 0173 97000000 		.4byte	0x97
 611 0177 02       		.byte	0x2
 612 0178 23       		.byte	0x23
 613 0179 30       		.uleb128 0x30
 614 017a 00       		.byte	0
 615 017b 09       		.uleb128 0x9
 616 017c 30010000 		.4byte	.LASF25
 617 0180 03       		.byte	0x3
 618 0181 9402     		.2byte	0x294
 619 0183 AF000000 		.4byte	0xaf
 620 0187 0A       		.uleb128 0xa
 621 0188 04       		.byte	0x4
 622 0189 04       		.byte	0x4
 623 018a 96       		.byte	0x96
 624 018b AC010000 		.4byte	0x1ac
 625 018f 0B       		.uleb128 0xb
ARM GAS  /tmp/ccjyzbzX.s 			page 12


 626 0190 73657400 		.ascii	"set\000"
 627 0194 04       		.byte	0x4
 628 0195 97       		.byte	0x97
 629 0196 4C000000 		.4byte	0x4c
 630 019a 02       		.byte	0x2
 631 019b 23       		.byte	0x23
 632 019c 00       		.uleb128 0
 633 019d 0C       		.uleb128 0xc
 634 019e 52010000 		.4byte	.LASF26
 635 01a2 04       		.byte	0x4
 636 01a3 98       		.byte	0x98
 637 01a4 4C000000 		.4byte	0x4c
 638 01a8 02       		.byte	0x2
 639 01a9 23       		.byte	0x23
 640 01aa 02       		.uleb128 0x2
 641 01ab 00       		.byte	0
 642 01ac 0D       		.uleb128 0xd
 643 01ad 04       		.byte	0x4
 644 01ae 04       		.byte	0x4
 645 01af 94       		.byte	0x94
 646 01b0 C7010000 		.4byte	0x1c7
 647 01b4 0E       		.uleb128 0xe
 648 01b5 5700     		.ascii	"W\000"
 649 01b7 04       		.byte	0x4
 650 01b8 95       		.byte	0x95
 651 01b9 70000000 		.4byte	0x70
 652 01bd 0E       		.uleb128 0xe
 653 01be 4800     		.ascii	"H\000"
 654 01c0 04       		.byte	0x4
 655 01c1 99       		.byte	0x99
 656 01c2 87010000 		.4byte	0x187
 657 01c6 00       		.byte	0
 658 01c7 0A       		.uleb128 0xa
 659 01c8 28       		.byte	0x28
 660 01c9 04       		.byte	0x4
 661 01ca 8C       		.byte	0x8c
 662 01cb 5C020000 		.4byte	0x25c
 663 01cf 0C       		.uleb128 0xc
 664 01d0 43010000 		.4byte	.LASF27
 665 01d4 04       		.byte	0x4
 666 01d5 8E       		.byte	0x8e
 667 01d6 97000000 		.4byte	0x97
 668 01da 02       		.byte	0x2
 669 01db 23       		.byte	0x23
 670 01dc 00       		.uleb128 0
 671 01dd 0C       		.uleb128 0xc
 672 01de EE000000 		.4byte	.LASF28
 673 01e2 04       		.byte	0x4
 674 01e3 8F       		.byte	0x8f
 675 01e4 97000000 		.4byte	0x97
 676 01e8 02       		.byte	0x2
 677 01e9 23       		.byte	0x23
 678 01ea 04       		.uleb128 0x4
 679 01eb 0C       		.uleb128 0xc
 680 01ec 5A020000 		.4byte	.LASF29
 681 01f0 04       		.byte	0x4
 682 01f1 90       		.byte	0x90
ARM GAS  /tmp/ccjyzbzX.s 			page 13


 683 01f2 97000000 		.4byte	0x97
 684 01f6 02       		.byte	0x2
 685 01f7 23       		.byte	0x23
 686 01f8 08       		.uleb128 0x8
 687 01f9 0C       		.uleb128 0xc
 688 01fa 12010000 		.4byte	.LASF30
 689 01fe 04       		.byte	0x4
 690 01ff 91       		.byte	0x91
 691 0200 97000000 		.4byte	0x97
 692 0204 02       		.byte	0x2
 693 0205 23       		.byte	0x23
 694 0206 0C       		.uleb128 0xc
 695 0207 0B       		.uleb128 0xb
 696 0208 49445200 		.ascii	"IDR\000"
 697 020c 04       		.byte	0x4
 698 020d 92       		.byte	0x92
 699 020e 97000000 		.4byte	0x97
 700 0212 02       		.byte	0x2
 701 0213 23       		.byte	0x23
 702 0214 10       		.uleb128 0x10
 703 0215 0B       		.uleb128 0xb
 704 0216 4F445200 		.ascii	"ODR\000"
 705 021a 04       		.byte	0x4
 706 021b 93       		.byte	0x93
 707 021c 97000000 		.4byte	0x97
 708 0220 02       		.byte	0x2
 709 0221 23       		.byte	0x23
 710 0222 14       		.uleb128 0x14
 711 0223 0C       		.uleb128 0xc
 712 0224 EA020000 		.4byte	.LASF31
 713 0228 04       		.byte	0x4
 714 0229 9A       		.byte	0x9a
 715 022a 5C020000 		.4byte	0x25c
 716 022e 02       		.byte	0x2
 717 022f 23       		.byte	0x23
 718 0230 18       		.uleb128 0x18
 719 0231 0C       		.uleb128 0xc
 720 0232 B7020000 		.4byte	.LASF32
 721 0236 04       		.byte	0x4
 722 0237 9B       		.byte	0x9b
 723 0238 97000000 		.4byte	0x97
 724 023c 02       		.byte	0x2
 725 023d 23       		.byte	0x23
 726 023e 1C       		.uleb128 0x1c
 727 023f 0C       		.uleb128 0xc
 728 0240 06020000 		.4byte	.LASF33
 729 0244 04       		.byte	0x4
 730 0245 9C       		.byte	0x9c
 731 0246 97000000 		.4byte	0x97
 732 024a 02       		.byte	0x2
 733 024b 23       		.byte	0x23
 734 024c 20       		.uleb128 0x20
 735 024d 0C       		.uleb128 0xc
 736 024e 01020000 		.4byte	.LASF34
 737 0252 04       		.byte	0x4
 738 0253 9D       		.byte	0x9d
 739 0254 97000000 		.4byte	0x97
ARM GAS  /tmp/ccjyzbzX.s 			page 14


 740 0258 02       		.byte	0x2
 741 0259 23       		.byte	0x23
 742 025a 24       		.uleb128 0x24
 743 025b 00       		.byte	0
 744 025c 05       		.uleb128 0x5
 745 025d AC010000 		.4byte	0x1ac
 746 0261 04       		.uleb128 0x4
 747 0262 00000000 		.4byte	.LASF35
 748 0266 04       		.byte	0x4
 749 0267 9E       		.byte	0x9e
 750 0268 C7010000 		.4byte	0x1c7
 751 026c 0A       		.uleb128 0xa
 752 026d 1C       		.byte	0x1c
 753 026e 04       		.byte	0x4
 754 026f A3       		.byte	0xa3
 755 0270 D7020000 		.4byte	0x2d7
 756 0274 0C       		.uleb128 0xc
 757 0275 89020000 		.4byte	.LASF36
 758 0279 04       		.byte	0x4
 759 027a A5       		.byte	0xa5
 760 027b 70000000 		.4byte	0x70
 761 027f 02       		.byte	0x2
 762 0280 23       		.byte	0x23
 763 0281 00       		.uleb128 0
 764 0282 0C       		.uleb128 0xc
 765 0283 EE010000 		.4byte	.LASF37
 766 0287 04       		.byte	0x4
 767 0288 A7       		.byte	0xa7
 768 0289 70000000 		.4byte	0x70
 769 028d 02       		.byte	0x2
 770 028e 23       		.byte	0x23
 771 028f 04       		.uleb128 0x4
 772 0290 0C       		.uleb128 0xc
 773 0291 18010000 		.4byte	.LASF38
 774 0295 04       		.byte	0x4
 775 0296 A9       		.byte	0xa9
 776 0297 70000000 		.4byte	0x70
 777 029b 02       		.byte	0x2
 778 029c 23       		.byte	0x23
 779 029d 08       		.uleb128 0x8
 780 029e 0C       		.uleb128 0xc
 781 029f 79020000 		.4byte	.LASF39
 782 02a3 04       		.byte	0x4
 783 02a4 AB       		.byte	0xab
 784 02a5 70000000 		.4byte	0x70
 785 02a9 02       		.byte	0x2
 786 02aa 23       		.byte	0x23
 787 02ab 0C       		.uleb128 0xc
 788 02ac 0B       		.uleb128 0xb
 789 02ad 6F647200 		.ascii	"odr\000"
 790 02b1 04       		.byte	0x4
 791 02b2 AD       		.byte	0xad
 792 02b3 70000000 		.4byte	0x70
 793 02b7 02       		.byte	0x2
 794 02b8 23       		.byte	0x23
 795 02b9 10       		.uleb128 0x10
 796 02ba 0C       		.uleb128 0xc
ARM GAS  /tmp/ccjyzbzX.s 			page 15


 797 02bb 84020000 		.4byte	.LASF40
 798 02bf 04       		.byte	0x4
 799 02c0 AF       		.byte	0xaf
 800 02c1 70000000 		.4byte	0x70
 801 02c5 02       		.byte	0x2
 802 02c6 23       		.byte	0x23
 803 02c7 14       		.uleb128 0x14
 804 02c8 0C       		.uleb128 0xc
 805 02c9 7F020000 		.4byte	.LASF41
 806 02cd 04       		.byte	0x4
 807 02ce B1       		.byte	0xb1
 808 02cf 70000000 		.4byte	0x70
 809 02d3 02       		.byte	0x2
 810 02d4 23       		.byte	0x23
 811 02d5 18       		.uleb128 0x18
 812 02d6 00       		.byte	0
 813 02d7 04       		.uleb128 0x4
 814 02d8 41000000 		.4byte	.LASF42
 815 02dc 04       		.byte	0x4
 816 02dd B2       		.byte	0xb2
 817 02de 6C020000 		.4byte	0x26c
 818 02e2 0A       		.uleb128 0xa
 819 02e3 A8       		.byte	0xa8
 820 02e4 04       		.byte	0x4
 821 02e5 BB       		.byte	0xbb
 822 02e6 40030000 		.4byte	0x340
 823 02ea 0C       		.uleb128 0xc
 824 02eb F5000000 		.4byte	.LASF43
 825 02ef 04       		.byte	0x4
 826 02f0 BE       		.byte	0xbe
 827 02f1 D7020000 		.4byte	0x2d7
 828 02f5 02       		.byte	0x2
 829 02f6 23       		.byte	0x23
 830 02f7 00       		.uleb128 0
 831 02f8 0C       		.uleb128 0xc
 832 02f9 C2000000 		.4byte	.LASF44
 833 02fd 04       		.byte	0x4
 834 02fe C2       		.byte	0xc2
 835 02ff D7020000 		.4byte	0x2d7
 836 0303 02       		.byte	0x2
 837 0304 23       		.byte	0x23
 838 0305 1C       		.uleb128 0x1c
 839 0306 0C       		.uleb128 0xc
 840 0307 0D000000 		.4byte	.LASF45
 841 030b 04       		.byte	0x4
 842 030c C6       		.byte	0xc6
 843 030d D7020000 		.4byte	0x2d7
 844 0311 02       		.byte	0x2
 845 0312 23       		.byte	0x23
 846 0313 38       		.uleb128 0x38
 847 0314 0C       		.uleb128 0xc
 848 0315 29010000 		.4byte	.LASF46
 849 0319 04       		.byte	0x4
 850 031a CA       		.byte	0xca
 851 031b D7020000 		.4byte	0x2d7
 852 031f 02       		.byte	0x2
 853 0320 23       		.byte	0x23
ARM GAS  /tmp/ccjyzbzX.s 			page 16


 854 0321 54       		.uleb128 0x54
 855 0322 0C       		.uleb128 0xc
 856 0323 4E020000 		.4byte	.LASF47
 857 0327 04       		.byte	0x4
 858 0328 CE       		.byte	0xce
 859 0329 D7020000 		.4byte	0x2d7
 860 032d 02       		.byte	0x2
 861 032e 23       		.byte	0x23
 862 032f 70       		.uleb128 0x70
 863 0330 0C       		.uleb128 0xc
 864 0331 54000000 		.4byte	.LASF48
 865 0335 04       		.byte	0x4
 866 0336 D2       		.byte	0xd2
 867 0337 D7020000 		.4byte	0x2d7
 868 033b 03       		.byte	0x3
 869 033c 23       		.byte	0x23
 870 033d 8C01     		.uleb128 0x8c
 871 033f 00       		.byte	0
 872 0340 04       		.uleb128 0x4
 873 0341 34020000 		.4byte	.LASF49
 874 0345 04       		.byte	0x4
 875 0346 E0       		.byte	0xe0
 876 0347 E2020000 		.4byte	0x2e2
 877 034b 04       		.uleb128 0x4
 878 034c E1000000 		.4byte	.LASF50
 879 0350 04       		.byte	0x4
 880 0351 F0       		.byte	0xf0
 881 0352 70000000 		.4byte	0x70
 882 0356 04       		.uleb128 0x4
 883 0357 D0000000 		.4byte	.LASF51
 884 035b 04       		.byte	0x4
 885 035c F5       		.byte	0xf5
 886 035d 70000000 		.4byte	0x70
 887 0361 04       		.uleb128 0x4
 888 0362 A1010000 		.4byte	.LASF52
 889 0366 04       		.byte	0x4
 890 0367 FD       		.byte	0xfd
 891 0368 6C030000 		.4byte	0x36c
 892 036c 0F       		.uleb128 0xf
 893 036d 04       		.byte	0x4
 894 036e 61020000 		.4byte	0x261
 895 0372 10       		.uleb128 0x10
 896 0373 A5000000 		.4byte	.LASF65
 897 0377 01       		.byte	0x1
 898 0378 56       		.byte	0x56
 899 0379 01       		.byte	0x1
 900 037a 01       		.byte	0x1
 901 037b 96030000 		.4byte	0x396
 902 037f 11       		.uleb128 0x11
 903 0380 BC000000 		.4byte	.LASF53
 904 0384 01       		.byte	0x1
 905 0385 56       		.byte	0x56
 906 0386 6C030000 		.4byte	0x36c
 907 038a 11       		.uleb128 0x11
 908 038b C9000000 		.4byte	.LASF54
 909 038f 01       		.byte	0x1
 910 0390 56       		.byte	0x56
ARM GAS  /tmp/ccjyzbzX.s 			page 17


 911 0391 96030000 		.4byte	0x396
 912 0395 00       		.byte	0
 913 0396 0F       		.uleb128 0xf
 914 0397 04       		.byte	0x4
 915 0398 9C030000 		.4byte	0x39c
 916 039c 12       		.uleb128 0x12
 917 039d D7020000 		.4byte	0x2d7
 918 03a1 13       		.uleb128 0x13
 919 03a2 01       		.byte	0x1
 920 03a3 33000000 		.4byte	.LASF55
 921 03a7 01       		.byte	0x1
 922 03a8 71       		.byte	0x71
 923 03a9 01       		.byte	0x1
 924 03aa 00000000 		.4byte	.LFB119
 925 03ae FA000000 		.4byte	.LFE119
 926 03b2 02       		.byte	0x2
 927 03b3 7D       		.byte	0x7d
 928 03b4 00       		.sleb128 0
 929 03b5 01       		.byte	0x1
 930 03b6 AA040000 		.4byte	0x4aa
 931 03ba 14       		.uleb128 0x14
 932 03bb C9000000 		.4byte	.LASF54
 933 03bf 01       		.byte	0x1
 934 03c0 71       		.byte	0x71
 935 03c1 AA040000 		.4byte	0x4aa
 936 03c5 00000000 		.4byte	.LLST0
 937 03c9 15       		.uleb128 0x15
 938 03ca 72030000 		.4byte	0x372
 939 03ce 10000000 		.4byte	.LBB14
 940 03d2 00000000 		.4byte	.Ldebug_ranges0+0
 941 03d6 01       		.byte	0x1
 942 03d7 86       		.byte	0x86
 943 03d8 EF030000 		.4byte	0x3ef
 944 03dc 16       		.uleb128 0x16
 945 03dd 8A030000 		.4byte	0x38a
 946 03e1 21000000 		.4byte	.LLST1
 947 03e5 17       		.uleb128 0x17
 948 03e6 7F030000 		.4byte	0x37f
 949 03ea 00000048 		.4byte	0x48000000
 950 03ee 00       		.byte	0
 951 03ef 15       		.uleb128 0x15
 952 03f0 72030000 		.4byte	0x372
 953 03f4 16000000 		.4byte	.LBB17
 954 03f8 18000000 		.4byte	.Ldebug_ranges0+0x18
 955 03fc 01       		.byte	0x1
 956 03fd 89       		.byte	0x89
 957 03fe 15040000 		.4byte	0x415
 958 0402 16       		.uleb128 0x16
 959 0403 8A030000 		.4byte	0x38a
 960 0407 42000000 		.4byte	.LLST2
 961 040b 17       		.uleb128 0x17
 962 040c 7F030000 		.4byte	0x37f
 963 0410 00040048 		.4byte	0x48000400
 964 0414 00       		.byte	0
 965 0415 15       		.uleb128 0x15
 966 0416 72030000 		.4byte	0x372
 967 041a 3A000000 		.4byte	.LBB23
ARM GAS  /tmp/ccjyzbzX.s 			page 18


 968 041e 38000000 		.4byte	.Ldebug_ranges0+0x38
 969 0422 01       		.byte	0x1
 970 0423 8C       		.byte	0x8c
 971 0424 3B040000 		.4byte	0x43b
 972 0428 16       		.uleb128 0x16
 973 0429 8A030000 		.4byte	0x38a
 974 042d 67000000 		.4byte	.LLST3
 975 0431 17       		.uleb128 0x17
 976 0432 7F030000 		.4byte	0x37f
 977 0436 00080048 		.4byte	0x48000800
 978 043a 00       		.byte	0
 979 043b 15       		.uleb128 0x15
 980 043c 72030000 		.4byte	0x372
 981 0440 76000000 		.4byte	.LBB29
 982 0444 58000000 		.4byte	.Ldebug_ranges0+0x58
 983 0448 01       		.byte	0x1
 984 0449 8F       		.byte	0x8f
 985 044a 61040000 		.4byte	0x461
 986 044e 16       		.uleb128 0x16
 987 044f 8A030000 		.4byte	0x38a
 988 0453 8C000000 		.4byte	.LLST4
 989 0457 17       		.uleb128 0x17
 990 0458 7F030000 		.4byte	0x37f
 991 045c 000C0048 		.4byte	0x48000c00
 992 0460 00       		.byte	0
 993 0461 15       		.uleb128 0x15
 994 0462 72030000 		.4byte	0x372
 995 0466 82000000 		.4byte	.LBB35
 996 046a 78000000 		.4byte	.Ldebug_ranges0+0x78
 997 046e 01       		.byte	0x1
 998 046f 92       		.byte	0x92
 999 0470 87040000 		.4byte	0x487
 1000 0474 16       		.uleb128 0x16
 1001 0475 8A030000 		.4byte	0x38a
 1002 0479 B2000000 		.4byte	.LLST5
 1003 047d 17       		.uleb128 0x17
 1004 047e 7F030000 		.4byte	0x37f
 1005 0482 00100048 		.4byte	0x48001000
 1006 0486 00       		.byte	0
 1007 0487 18       		.uleb128 0x18
 1008 0488 72030000 		.4byte	0x372
 1009 048c C4000000 		.4byte	.LBB41
 1010 0490 98000000 		.4byte	.Ldebug_ranges0+0x98
 1011 0494 01       		.byte	0x1
 1012 0495 95       		.byte	0x95
 1013 0496 16       		.uleb128 0x16
 1014 0497 8A030000 		.4byte	0x38a
 1015 049b D8000000 		.4byte	.LLST6
 1016 049f 17       		.uleb128 0x17
 1017 04a0 7F030000 		.4byte	0x37f
 1018 04a4 00140048 		.4byte	0x48001400
 1019 04a8 00       		.byte	0
 1020 04a9 00       		.byte	0
 1021 04aa 0F       		.uleb128 0xf
 1022 04ab 04       		.byte	0x4
 1023 04ac B0040000 		.4byte	0x4b0
 1024 04b0 12       		.uleb128 0x12
ARM GAS  /tmp/ccjyzbzX.s 			page 19


 1025 04b1 40030000 		.4byte	0x340
 1026 04b5 19       		.uleb128 0x19
 1027 04b6 01       		.byte	0x1
 1028 04b7 14000000 		.4byte	.LASF56
 1029 04bb 01       		.byte	0x1
 1030 04bc B0       		.byte	0xb0
 1031 04bd 01       		.byte	0x1
 1032 04be 00000000 		.4byte	.LFB120
 1033 04c2 C8000000 		.4byte	.LFE120
 1034 04c6 FF000000 		.4byte	.LLST7
 1035 04ca 01       		.byte	0x1
 1036 04cb 8A050000 		.4byte	0x58a
 1037 04cf 1A       		.uleb128 0x1a
 1038 04d0 49020000 		.4byte	.LASF57
 1039 04d4 01       		.byte	0x1
 1040 04d5 B0       		.byte	0xb0
 1041 04d6 61030000 		.4byte	0x361
 1042 04da 01       		.byte	0x1
 1043 04db 50       		.byte	0x50
 1044 04dc 14       		.uleb128 0x14
 1045 04dd 74020000 		.4byte	.LASF58
 1046 04e1 01       		.byte	0x1
 1047 04e2 B1       		.byte	0xb1
 1048 04e3 4B030000 		.4byte	0x34b
 1049 04e7 1F010000 		.4byte	.LLST8
 1050 04eb 14       		.uleb128 0x14
 1051 04ec 44020000 		.4byte	.LASF59
 1052 04f0 01       		.byte	0x1
 1053 04f1 B2       		.byte	0xb2
 1054 04f2 56030000 		.4byte	0x356
 1055 04f6 4C010000 		.4byte	.LLST9
 1056 04fa 1B       		.uleb128 0x1b
 1057 04fb 89020000 		.4byte	.LASF36
 1058 04ff 01       		.byte	0x1
 1059 0500 B4       		.byte	0xb4
 1060 0501 70000000 		.4byte	0x70
 1061 0505 01       		.byte	0x1
 1062 0506 57       		.byte	0x57
 1063 0507 1B       		.uleb128 0x1b
 1064 0508 EE010000 		.4byte	.LASF37
 1065 050c 01       		.byte	0x1
 1066 050d B5       		.byte	0xb5
 1067 050e 70000000 		.4byte	0x70
 1068 0512 01       		.byte	0x1
 1069 0513 56       		.byte	0x56
 1070 0514 1B       		.uleb128 0x1b
 1071 0515 18010000 		.4byte	.LASF38
 1072 0519 01       		.byte	0x1
 1073 051a B6       		.byte	0xb6
 1074 051b 70000000 		.4byte	0x70
 1075 051f 01       		.byte	0x1
 1076 0520 55       		.byte	0x55
 1077 0521 1B       		.uleb128 0x1b
 1078 0522 79020000 		.4byte	.LASF39
 1079 0526 01       		.byte	0x1
 1080 0527 B7       		.byte	0xb7
 1081 0528 70000000 		.4byte	0x70
ARM GAS  /tmp/ccjyzbzX.s 			page 20


 1082 052c 01       		.byte	0x1
 1083 052d 54       		.byte	0x54
 1084 052e 1B       		.uleb128 0x1b
 1085 052f 55020000 		.4byte	.LASF60
 1086 0533 01       		.byte	0x1
 1087 0534 B8       		.byte	0xb8
 1088 0535 70000000 		.4byte	0x70
 1089 0539 01       		.byte	0x1
 1090 053a 52       		.byte	0x52
 1091 053b 1C       		.uleb128 0x1c
 1092 053c 62697400 		.ascii	"bit\000"
 1093 0540 01       		.byte	0x1
 1094 0541 B9       		.byte	0xb9
 1095 0542 70000000 		.4byte	0x70
 1096 0546 6D010000 		.4byte	.LLST10
 1097 054a 1D       		.uleb128 0x1d
 1098 054b B0000000 		.4byte	.Ldebug_ranges0+0xb0
 1099 054f 1E       		.uleb128 0x1e
 1100 0550 9C020000 		.4byte	.LASF61
 1101 0554 01       		.byte	0x1
 1102 0555 BC       		.byte	0xbc
 1103 0556 70000000 		.4byte	0x70
 1104 055a 8C010000 		.4byte	.LLST11
 1105 055e 1C       		.uleb128 0x1c
 1106 055f 6D3100   		.ascii	"m1\000"
 1107 0562 01       		.byte	0x1
 1108 0563 BC       		.byte	0xbc
 1109 0564 70000000 		.4byte	0x70
 1110 0568 D2010000 		.4byte	.LLST12
 1111 056c 1C       		.uleb128 0x1c
 1112 056d 6D3200   		.ascii	"m2\000"
 1113 0570 01       		.byte	0x1
 1114 0571 BC       		.byte	0xbc
 1115 0572 70000000 		.4byte	0x70
 1116 0576 E9010000 		.4byte	.LLST13
 1117 057a 1C       		.uleb128 0x1c
 1118 057b 6D3400   		.ascii	"m4\000"
 1119 057e 01       		.byte	0x1
 1120 057f BC       		.byte	0xbc
 1121 0580 70000000 		.4byte	0x70
 1122 0584 2C020000 		.4byte	.LLST14
 1123 0588 00       		.byte	0
 1124 0589 00       		.byte	0
 1125 058a 1F       		.uleb128 0x1f
 1126 058b 8F020000 		.4byte	.LASF66
 1127 058f 05       		.byte	0x5
 1128 0590 9806     		.2byte	0x698
 1129 0592 AA000000 		.4byte	0xaa
 1130 0596 01       		.byte	0x1
 1131 0597 01       		.byte	0x1
 1132 0598 00       		.byte	0
 1133              		.section	.debug_abbrev,"",%progbits
 1134              	.Ldebug_abbrev0:
 1135 0000 01       		.uleb128 0x1
 1136 0001 11       		.uleb128 0x11
 1137 0002 01       		.byte	0x1
 1138 0003 25       		.uleb128 0x25
ARM GAS  /tmp/ccjyzbzX.s 			page 21


 1139 0004 0E       		.uleb128 0xe
 1140 0005 13       		.uleb128 0x13
 1141 0006 0B       		.uleb128 0xb
 1142 0007 03       		.uleb128 0x3
 1143 0008 0E       		.uleb128 0xe
 1144 0009 1B       		.uleb128 0x1b
 1145 000a 0E       		.uleb128 0xe
 1146 000b 55       		.uleb128 0x55
 1147 000c 06       		.uleb128 0x6
 1148 000d 11       		.uleb128 0x11
 1149 000e 01       		.uleb128 0x1
 1150 000f 52       		.uleb128 0x52
 1151 0010 01       		.uleb128 0x1
 1152 0011 10       		.uleb128 0x10
 1153 0012 06       		.uleb128 0x6
 1154 0013 00       		.byte	0
 1155 0014 00       		.byte	0
 1156 0015 02       		.uleb128 0x2
 1157 0016 24       		.uleb128 0x24
 1158 0017 00       		.byte	0
 1159 0018 0B       		.uleb128 0xb
 1160 0019 0B       		.uleb128 0xb
 1161 001a 3E       		.uleb128 0x3e
 1162 001b 0B       		.uleb128 0xb
 1163 001c 03       		.uleb128 0x3
 1164 001d 08       		.uleb128 0x8
 1165 001e 00       		.byte	0
 1166 001f 00       		.byte	0
 1167 0020 03       		.uleb128 0x3
 1168 0021 24       		.uleb128 0x24
 1169 0022 00       		.byte	0
 1170 0023 0B       		.uleb128 0xb
 1171 0024 0B       		.uleb128 0xb
 1172 0025 3E       		.uleb128 0x3e
 1173 0026 0B       		.uleb128 0xb
 1174 0027 03       		.uleb128 0x3
 1175 0028 0E       		.uleb128 0xe
 1176 0029 00       		.byte	0
 1177 002a 00       		.byte	0
 1178 002b 04       		.uleb128 0x4
 1179 002c 16       		.uleb128 0x16
 1180 002d 00       		.byte	0
 1181 002e 03       		.uleb128 0x3
 1182 002f 0E       		.uleb128 0xe
 1183 0030 3A       		.uleb128 0x3a
 1184 0031 0B       		.uleb128 0xb
 1185 0032 3B       		.uleb128 0x3b
 1186 0033 0B       		.uleb128 0xb
 1187 0034 49       		.uleb128 0x49
 1188 0035 13       		.uleb128 0x13
 1189 0036 00       		.byte	0
 1190 0037 00       		.byte	0
 1191 0038 05       		.uleb128 0x5
 1192 0039 35       		.uleb128 0x35
 1193 003a 00       		.byte	0
 1194 003b 49       		.uleb128 0x49
 1195 003c 13       		.uleb128 0x13
ARM GAS  /tmp/ccjyzbzX.s 			page 22


 1196 003d 00       		.byte	0
 1197 003e 00       		.byte	0
 1198 003f 06       		.uleb128 0x6
 1199 0040 13       		.uleb128 0x13
 1200 0041 01       		.byte	0x1
 1201 0042 0B       		.uleb128 0xb
 1202 0043 0B       		.uleb128 0xb
 1203 0044 3A       		.uleb128 0x3a
 1204 0045 0B       		.uleb128 0xb
 1205 0046 3B       		.uleb128 0x3b
 1206 0047 05       		.uleb128 0x5
 1207 0048 01       		.uleb128 0x1
 1208 0049 13       		.uleb128 0x13
 1209 004a 00       		.byte	0
 1210 004b 00       		.byte	0
 1211 004c 07       		.uleb128 0x7
 1212 004d 0D       		.uleb128 0xd
 1213 004e 00       		.byte	0
 1214 004f 03       		.uleb128 0x3
 1215 0050 08       		.uleb128 0x8
 1216 0051 3A       		.uleb128 0x3a
 1217 0052 0B       		.uleb128 0xb
 1218 0053 3B       		.uleb128 0x3b
 1219 0054 05       		.uleb128 0x5
 1220 0055 49       		.uleb128 0x49
 1221 0056 13       		.uleb128 0x13
 1222 0057 38       		.uleb128 0x38
 1223 0058 0A       		.uleb128 0xa
 1224 0059 00       		.byte	0
 1225 005a 00       		.byte	0
 1226 005b 08       		.uleb128 0x8
 1227 005c 0D       		.uleb128 0xd
 1228 005d 00       		.byte	0
 1229 005e 03       		.uleb128 0x3
 1230 005f 0E       		.uleb128 0xe
 1231 0060 3A       		.uleb128 0x3a
 1232 0061 0B       		.uleb128 0xb
 1233 0062 3B       		.uleb128 0x3b
 1234 0063 05       		.uleb128 0x5
 1235 0064 49       		.uleb128 0x49
 1236 0065 13       		.uleb128 0x13
 1237 0066 38       		.uleb128 0x38
 1238 0067 0A       		.uleb128 0xa
 1239 0068 00       		.byte	0
 1240 0069 00       		.byte	0
 1241 006a 09       		.uleb128 0x9
 1242 006b 16       		.uleb128 0x16
 1243 006c 00       		.byte	0
 1244 006d 03       		.uleb128 0x3
 1245 006e 0E       		.uleb128 0xe
 1246 006f 3A       		.uleb128 0x3a
 1247 0070 0B       		.uleb128 0xb
 1248 0071 3B       		.uleb128 0x3b
 1249 0072 05       		.uleb128 0x5
 1250 0073 49       		.uleb128 0x49
 1251 0074 13       		.uleb128 0x13
 1252 0075 00       		.byte	0
ARM GAS  /tmp/ccjyzbzX.s 			page 23


 1253 0076 00       		.byte	0
 1254 0077 0A       		.uleb128 0xa
 1255 0078 13       		.uleb128 0x13
 1256 0079 01       		.byte	0x1
 1257 007a 0B       		.uleb128 0xb
 1258 007b 0B       		.uleb128 0xb
 1259 007c 3A       		.uleb128 0x3a
 1260 007d 0B       		.uleb128 0xb
 1261 007e 3B       		.uleb128 0x3b
 1262 007f 0B       		.uleb128 0xb
 1263 0080 01       		.uleb128 0x1
 1264 0081 13       		.uleb128 0x13
 1265 0082 00       		.byte	0
 1266 0083 00       		.byte	0
 1267 0084 0B       		.uleb128 0xb
 1268 0085 0D       		.uleb128 0xd
 1269 0086 00       		.byte	0
 1270 0087 03       		.uleb128 0x3
 1271 0088 08       		.uleb128 0x8
 1272 0089 3A       		.uleb128 0x3a
 1273 008a 0B       		.uleb128 0xb
 1274 008b 3B       		.uleb128 0x3b
 1275 008c 0B       		.uleb128 0xb
 1276 008d 49       		.uleb128 0x49
 1277 008e 13       		.uleb128 0x13
 1278 008f 38       		.uleb128 0x38
 1279 0090 0A       		.uleb128 0xa
 1280 0091 00       		.byte	0
 1281 0092 00       		.byte	0
 1282 0093 0C       		.uleb128 0xc
 1283 0094 0D       		.uleb128 0xd
 1284 0095 00       		.byte	0
 1285 0096 03       		.uleb128 0x3
 1286 0097 0E       		.uleb128 0xe
 1287 0098 3A       		.uleb128 0x3a
 1288 0099 0B       		.uleb128 0xb
 1289 009a 3B       		.uleb128 0x3b
 1290 009b 0B       		.uleb128 0xb
 1291 009c 49       		.uleb128 0x49
 1292 009d 13       		.uleb128 0x13
 1293 009e 38       		.uleb128 0x38
 1294 009f 0A       		.uleb128 0xa
 1295 00a0 00       		.byte	0
 1296 00a1 00       		.byte	0
 1297 00a2 0D       		.uleb128 0xd
 1298 00a3 17       		.uleb128 0x17
 1299 00a4 01       		.byte	0x1
 1300 00a5 0B       		.uleb128 0xb
 1301 00a6 0B       		.uleb128 0xb
 1302 00a7 3A       		.uleb128 0x3a
 1303 00a8 0B       		.uleb128 0xb
 1304 00a9 3B       		.uleb128 0x3b
 1305 00aa 0B       		.uleb128 0xb
 1306 00ab 01       		.uleb128 0x1
 1307 00ac 13       		.uleb128 0x13
 1308 00ad 00       		.byte	0
 1309 00ae 00       		.byte	0
ARM GAS  /tmp/ccjyzbzX.s 			page 24


 1310 00af 0E       		.uleb128 0xe
 1311 00b0 0D       		.uleb128 0xd
 1312 00b1 00       		.byte	0
 1313 00b2 03       		.uleb128 0x3
 1314 00b3 08       		.uleb128 0x8
 1315 00b4 3A       		.uleb128 0x3a
 1316 00b5 0B       		.uleb128 0xb
 1317 00b6 3B       		.uleb128 0x3b
 1318 00b7 0B       		.uleb128 0xb
 1319 00b8 49       		.uleb128 0x49
 1320 00b9 13       		.uleb128 0x13
 1321 00ba 00       		.byte	0
 1322 00bb 00       		.byte	0
 1323 00bc 0F       		.uleb128 0xf
 1324 00bd 0F       		.uleb128 0xf
 1325 00be 00       		.byte	0
 1326 00bf 0B       		.uleb128 0xb
 1327 00c0 0B       		.uleb128 0xb
 1328 00c1 49       		.uleb128 0x49
 1329 00c2 13       		.uleb128 0x13
 1330 00c3 00       		.byte	0
 1331 00c4 00       		.byte	0
 1332 00c5 10       		.uleb128 0x10
 1333 00c6 2E       		.uleb128 0x2e
 1334 00c7 01       		.byte	0x1
 1335 00c8 03       		.uleb128 0x3
 1336 00c9 0E       		.uleb128 0xe
 1337 00ca 3A       		.uleb128 0x3a
 1338 00cb 0B       		.uleb128 0xb
 1339 00cc 3B       		.uleb128 0x3b
 1340 00cd 0B       		.uleb128 0xb
 1341 00ce 27       		.uleb128 0x27
 1342 00cf 0C       		.uleb128 0xc
 1343 00d0 20       		.uleb128 0x20
 1344 00d1 0B       		.uleb128 0xb
 1345 00d2 01       		.uleb128 0x1
 1346 00d3 13       		.uleb128 0x13
 1347 00d4 00       		.byte	0
 1348 00d5 00       		.byte	0
 1349 00d6 11       		.uleb128 0x11
 1350 00d7 05       		.uleb128 0x5
 1351 00d8 00       		.byte	0
 1352 00d9 03       		.uleb128 0x3
 1353 00da 0E       		.uleb128 0xe
 1354 00db 3A       		.uleb128 0x3a
 1355 00dc 0B       		.uleb128 0xb
 1356 00dd 3B       		.uleb128 0x3b
 1357 00de 0B       		.uleb128 0xb
 1358 00df 49       		.uleb128 0x49
 1359 00e0 13       		.uleb128 0x13
 1360 00e1 00       		.byte	0
 1361 00e2 00       		.byte	0
 1362 00e3 12       		.uleb128 0x12
 1363 00e4 26       		.uleb128 0x26
 1364 00e5 00       		.byte	0
 1365 00e6 49       		.uleb128 0x49
 1366 00e7 13       		.uleb128 0x13
ARM GAS  /tmp/ccjyzbzX.s 			page 25


 1367 00e8 00       		.byte	0
 1368 00e9 00       		.byte	0
 1369 00ea 13       		.uleb128 0x13
 1370 00eb 2E       		.uleb128 0x2e
 1371 00ec 01       		.byte	0x1
 1372 00ed 3F       		.uleb128 0x3f
 1373 00ee 0C       		.uleb128 0xc
 1374 00ef 03       		.uleb128 0x3
 1375 00f0 0E       		.uleb128 0xe
 1376 00f1 3A       		.uleb128 0x3a
 1377 00f2 0B       		.uleb128 0xb
 1378 00f3 3B       		.uleb128 0x3b
 1379 00f4 0B       		.uleb128 0xb
 1380 00f5 27       		.uleb128 0x27
 1381 00f6 0C       		.uleb128 0xc
 1382 00f7 11       		.uleb128 0x11
 1383 00f8 01       		.uleb128 0x1
 1384 00f9 12       		.uleb128 0x12
 1385 00fa 01       		.uleb128 0x1
 1386 00fb 40       		.uleb128 0x40
 1387 00fc 0A       		.uleb128 0xa
 1388 00fd 9742     		.uleb128 0x2117
 1389 00ff 0C       		.uleb128 0xc
 1390 0100 01       		.uleb128 0x1
 1391 0101 13       		.uleb128 0x13
 1392 0102 00       		.byte	0
 1393 0103 00       		.byte	0
 1394 0104 14       		.uleb128 0x14
 1395 0105 05       		.uleb128 0x5
 1396 0106 00       		.byte	0
 1397 0107 03       		.uleb128 0x3
 1398 0108 0E       		.uleb128 0xe
 1399 0109 3A       		.uleb128 0x3a
 1400 010a 0B       		.uleb128 0xb
 1401 010b 3B       		.uleb128 0x3b
 1402 010c 0B       		.uleb128 0xb
 1403 010d 49       		.uleb128 0x49
 1404 010e 13       		.uleb128 0x13
 1405 010f 02       		.uleb128 0x2
 1406 0110 06       		.uleb128 0x6
 1407 0111 00       		.byte	0
 1408 0112 00       		.byte	0
 1409 0113 15       		.uleb128 0x15
 1410 0114 1D       		.uleb128 0x1d
 1411 0115 01       		.byte	0x1
 1412 0116 31       		.uleb128 0x31
 1413 0117 13       		.uleb128 0x13
 1414 0118 52       		.uleb128 0x52
 1415 0119 01       		.uleb128 0x1
 1416 011a 55       		.uleb128 0x55
 1417 011b 06       		.uleb128 0x6
 1418 011c 58       		.uleb128 0x58
 1419 011d 0B       		.uleb128 0xb
 1420 011e 59       		.uleb128 0x59
 1421 011f 0B       		.uleb128 0xb
 1422 0120 01       		.uleb128 0x1
 1423 0121 13       		.uleb128 0x13
ARM GAS  /tmp/ccjyzbzX.s 			page 26


 1424 0122 00       		.byte	0
 1425 0123 00       		.byte	0
 1426 0124 16       		.uleb128 0x16
 1427 0125 05       		.uleb128 0x5
 1428 0126 00       		.byte	0
 1429 0127 31       		.uleb128 0x31
 1430 0128 13       		.uleb128 0x13
 1431 0129 02       		.uleb128 0x2
 1432 012a 06       		.uleb128 0x6
 1433 012b 00       		.byte	0
 1434 012c 00       		.byte	0
 1435 012d 17       		.uleb128 0x17
 1436 012e 05       		.uleb128 0x5
 1437 012f 00       		.byte	0
 1438 0130 31       		.uleb128 0x31
 1439 0131 13       		.uleb128 0x13
 1440 0132 1C       		.uleb128 0x1c
 1441 0133 06       		.uleb128 0x6
 1442 0134 00       		.byte	0
 1443 0135 00       		.byte	0
 1444 0136 18       		.uleb128 0x18
 1445 0137 1D       		.uleb128 0x1d
 1446 0138 01       		.byte	0x1
 1447 0139 31       		.uleb128 0x31
 1448 013a 13       		.uleb128 0x13
 1449 013b 52       		.uleb128 0x52
 1450 013c 01       		.uleb128 0x1
 1451 013d 55       		.uleb128 0x55
 1452 013e 06       		.uleb128 0x6
 1453 013f 58       		.uleb128 0x58
 1454 0140 0B       		.uleb128 0xb
 1455 0141 59       		.uleb128 0x59
 1456 0142 0B       		.uleb128 0xb
 1457 0143 00       		.byte	0
 1458 0144 00       		.byte	0
 1459 0145 19       		.uleb128 0x19
 1460 0146 2E       		.uleb128 0x2e
 1461 0147 01       		.byte	0x1
 1462 0148 3F       		.uleb128 0x3f
 1463 0149 0C       		.uleb128 0xc
 1464 014a 03       		.uleb128 0x3
 1465 014b 0E       		.uleb128 0xe
 1466 014c 3A       		.uleb128 0x3a
 1467 014d 0B       		.uleb128 0xb
 1468 014e 3B       		.uleb128 0x3b
 1469 014f 0B       		.uleb128 0xb
 1470 0150 27       		.uleb128 0x27
 1471 0151 0C       		.uleb128 0xc
 1472 0152 11       		.uleb128 0x11
 1473 0153 01       		.uleb128 0x1
 1474 0154 12       		.uleb128 0x12
 1475 0155 01       		.uleb128 0x1
 1476 0156 40       		.uleb128 0x40
 1477 0157 06       		.uleb128 0x6
 1478 0158 9742     		.uleb128 0x2117
 1479 015a 0C       		.uleb128 0xc
 1480 015b 01       		.uleb128 0x1
ARM GAS  /tmp/ccjyzbzX.s 			page 27


 1481 015c 13       		.uleb128 0x13
 1482 015d 00       		.byte	0
 1483 015e 00       		.byte	0
 1484 015f 1A       		.uleb128 0x1a
 1485 0160 05       		.uleb128 0x5
 1486 0161 00       		.byte	0
 1487 0162 03       		.uleb128 0x3
 1488 0163 0E       		.uleb128 0xe
 1489 0164 3A       		.uleb128 0x3a
 1490 0165 0B       		.uleb128 0xb
 1491 0166 3B       		.uleb128 0x3b
 1492 0167 0B       		.uleb128 0xb
 1493 0168 49       		.uleb128 0x49
 1494 0169 13       		.uleb128 0x13
 1495 016a 02       		.uleb128 0x2
 1496 016b 0A       		.uleb128 0xa
 1497 016c 00       		.byte	0
 1498 016d 00       		.byte	0
 1499 016e 1B       		.uleb128 0x1b
 1500 016f 34       		.uleb128 0x34
 1501 0170 00       		.byte	0
 1502 0171 03       		.uleb128 0x3
 1503 0172 0E       		.uleb128 0xe
 1504 0173 3A       		.uleb128 0x3a
 1505 0174 0B       		.uleb128 0xb
 1506 0175 3B       		.uleb128 0x3b
 1507 0176 0B       		.uleb128 0xb
 1508 0177 49       		.uleb128 0x49
 1509 0178 13       		.uleb128 0x13
 1510 0179 02       		.uleb128 0x2
 1511 017a 0A       		.uleb128 0xa
 1512 017b 00       		.byte	0
 1513 017c 00       		.byte	0
 1514 017d 1C       		.uleb128 0x1c
 1515 017e 34       		.uleb128 0x34
 1516 017f 00       		.byte	0
 1517 0180 03       		.uleb128 0x3
 1518 0181 08       		.uleb128 0x8
 1519 0182 3A       		.uleb128 0x3a
 1520 0183 0B       		.uleb128 0xb
 1521 0184 3B       		.uleb128 0x3b
 1522 0185 0B       		.uleb128 0xb
 1523 0186 49       		.uleb128 0x49
 1524 0187 13       		.uleb128 0x13
 1525 0188 02       		.uleb128 0x2
 1526 0189 06       		.uleb128 0x6
 1527 018a 00       		.byte	0
 1528 018b 00       		.byte	0
 1529 018c 1D       		.uleb128 0x1d
 1530 018d 0B       		.uleb128 0xb
 1531 018e 01       		.byte	0x1
 1532 018f 55       		.uleb128 0x55
 1533 0190 06       		.uleb128 0x6
 1534 0191 00       		.byte	0
 1535 0192 00       		.byte	0
 1536 0193 1E       		.uleb128 0x1e
 1537 0194 34       		.uleb128 0x34
ARM GAS  /tmp/ccjyzbzX.s 			page 28


 1538 0195 00       		.byte	0
 1539 0196 03       		.uleb128 0x3
 1540 0197 0E       		.uleb128 0xe
 1541 0198 3A       		.uleb128 0x3a
 1542 0199 0B       		.uleb128 0xb
 1543 019a 3B       		.uleb128 0x3b
 1544 019b 0B       		.uleb128 0xb
 1545 019c 49       		.uleb128 0x49
 1546 019d 13       		.uleb128 0x13
 1547 019e 02       		.uleb128 0x2
 1548 019f 06       		.uleb128 0x6
 1549 01a0 00       		.byte	0
 1550 01a1 00       		.byte	0
 1551 01a2 1F       		.uleb128 0x1f
 1552 01a3 34       		.uleb128 0x34
 1553 01a4 00       		.byte	0
 1554 01a5 03       		.uleb128 0x3
 1555 01a6 0E       		.uleb128 0xe
 1556 01a7 3A       		.uleb128 0x3a
 1557 01a8 0B       		.uleb128 0xb
 1558 01a9 3B       		.uleb128 0x3b
 1559 01aa 05       		.uleb128 0x5
 1560 01ab 49       		.uleb128 0x49
 1561 01ac 13       		.uleb128 0x13
 1562 01ad 3F       		.uleb128 0x3f
 1563 01ae 0C       		.uleb128 0xc
 1564 01af 3C       		.uleb128 0x3c
 1565 01b0 0C       		.uleb128 0xc
 1566 01b1 00       		.byte	0
 1567 01b2 00       		.byte	0
 1568 01b3 00       		.byte	0
 1569              		.section	.debug_loc,"",%progbits
 1570              	.Ldebug_loc0:
 1571              	.LLST0:
 1572 0000 00000000 		.4byte	.LVL0
 1573 0004 F6000000 		.4byte	.LVL7
 1574 0008 0100     		.2byte	0x1
 1575 000a 50       		.byte	0x50
 1576 000b F6000000 		.4byte	.LVL7
 1577 000f FA000000 		.4byte	.LFE119
 1578 0013 0400     		.2byte	0x4
 1579 0015 F3       		.byte	0xf3
 1580 0016 01       		.uleb128 0x1
 1581 0017 50       		.byte	0x50
 1582 0018 9F       		.byte	0x9f
 1583 0019 00000000 		.4byte	0
 1584 001d 00000000 		.4byte	0
 1585              	.LLST1:
 1586 0021 10000000 		.4byte	.LVL1
 1587 0025 F6000000 		.4byte	.LVL7
 1588 0029 0100     		.2byte	0x1
 1589 002b 50       		.byte	0x50
 1590 002c F6000000 		.4byte	.LVL7
 1591 0030 FA000000 		.4byte	.LFE119
 1592 0034 0400     		.2byte	0x4
 1593 0036 F3       		.byte	0xf3
 1594 0037 01       		.uleb128 0x1
ARM GAS  /tmp/ccjyzbzX.s 			page 29


 1595 0038 50       		.byte	0x50
 1596 0039 9F       		.byte	0x9f
 1597 003a 00000000 		.4byte	0
 1598 003e 00000000 		.4byte	0
 1599              	.LLST2:
 1600 0042 34000000 		.4byte	.LVL2
 1601 0046 F6000000 		.4byte	.LVL7
 1602 004a 0300     		.2byte	0x3
 1603 004c 70       		.byte	0x70
 1604 004d 1C       		.sleb128 28
 1605 004e 9F       		.byte	0x9f
 1606 004f F6000000 		.4byte	.LVL7
 1607 0053 FA000000 		.4byte	.LFE119
 1608 0057 0600     		.2byte	0x6
 1609 0059 F3       		.byte	0xf3
 1610 005a 01       		.uleb128 0x1
 1611 005b 50       		.byte	0x50
 1612 005c 23       		.byte	0x23
 1613 005d 1C       		.uleb128 0x1c
 1614 005e 9F       		.byte	0x9f
 1615 005f 00000000 		.4byte	0
 1616 0063 00000000 		.4byte	0
 1617              	.LLST3:
 1618 0067 58000000 		.4byte	.LVL3
 1619 006b F6000000 		.4byte	.LVL7
 1620 006f 0300     		.2byte	0x3
 1621 0071 70       		.byte	0x70
 1622 0072 38       		.sleb128 56
 1623 0073 9F       		.byte	0x9f
 1624 0074 F6000000 		.4byte	.LVL7
 1625 0078 FA000000 		.4byte	.LFE119
 1626 007c 0600     		.2byte	0x6
 1627 007e F3       		.byte	0xf3
 1628 007f 01       		.uleb128 0x1
 1629 0080 50       		.byte	0x50
 1630 0081 23       		.byte	0x23
 1631 0082 38       		.uleb128 0x38
 1632 0083 9F       		.byte	0x9f
 1633 0084 00000000 		.4byte	0
 1634 0088 00000000 		.4byte	0
 1635              	.LLST4:
 1636 008c 7C000000 		.4byte	.LVL4
 1637 0090 F6000000 		.4byte	.LVL7
 1638 0094 0400     		.2byte	0x4
 1639 0096 70       		.byte	0x70
 1640 0097 D400     		.sleb128 84
 1641 0099 9F       		.byte	0x9f
 1642 009a F6000000 		.4byte	.LVL7
 1643 009e FA000000 		.4byte	.LFE119
 1644 00a2 0600     		.2byte	0x6
 1645 00a4 F3       		.byte	0xf3
 1646 00a5 01       		.uleb128 0x1
 1647 00a6 50       		.byte	0x50
 1648 00a7 23       		.byte	0x23
 1649 00a8 54       		.uleb128 0x54
 1650 00a9 9F       		.byte	0x9f
 1651 00aa 00000000 		.4byte	0
ARM GAS  /tmp/ccjyzbzX.s 			page 30


 1652 00ae 00000000 		.4byte	0
 1653              	.LLST5:
 1654 00b2 A0000000 		.4byte	.LVL5
 1655 00b6 F6000000 		.4byte	.LVL7
 1656 00ba 0400     		.2byte	0x4
 1657 00bc 70       		.byte	0x70
 1658 00bd F000     		.sleb128 112
 1659 00bf 9F       		.byte	0x9f
 1660 00c0 F6000000 		.4byte	.LVL7
 1661 00c4 FA000000 		.4byte	.LFE119
 1662 00c8 0600     		.2byte	0x6
 1663 00ca F3       		.byte	0xf3
 1664 00cb 01       		.uleb128 0x1
 1665 00cc 50       		.byte	0x50
 1666 00cd 23       		.byte	0x23
 1667 00ce 70       		.uleb128 0x70
 1668 00cf 9F       		.byte	0x9f
 1669 00d0 00000000 		.4byte	0
 1670 00d4 00000000 		.4byte	0
 1671              	.LLST6:
 1672 00d8 CA000000 		.4byte	.LVL6
 1673 00dc F6000000 		.4byte	.LVL7
 1674 00e0 0400     		.2byte	0x4
 1675 00e2 70       		.byte	0x70
 1676 00e3 8C01     		.sleb128 140
 1677 00e5 9F       		.byte	0x9f
 1678 00e6 F6000000 		.4byte	.LVL7
 1679 00ea FA000000 		.4byte	.LFE119
 1680 00ee 0700     		.2byte	0x7
 1681 00f0 F3       		.byte	0xf3
 1682 00f1 01       		.uleb128 0x1
 1683 00f2 50       		.byte	0x50
 1684 00f3 23       		.byte	0x23
 1685 00f4 8C01     		.uleb128 0x8c
 1686 00f6 9F       		.byte	0x9f
 1687 00f7 00000000 		.4byte	0
 1688 00fb 00000000 		.4byte	0
 1689              	.LLST7:
 1690 00ff 00000000 		.4byte	.LFB120
 1691 0103 04000000 		.4byte	.LCFI0
 1692 0107 0200     		.2byte	0x2
 1693 0109 7D       		.byte	0x7d
 1694 010a 00       		.sleb128 0
 1695 010b 04000000 		.4byte	.LCFI0
 1696 010f C8000000 		.4byte	.LFE120
 1697 0113 0200     		.2byte	0x2
 1698 0115 7D       		.byte	0x7d
 1699 0116 20       		.sleb128 32
 1700 0117 00000000 		.4byte	0
 1701 011b 00000000 		.4byte	0
 1702              	.LLST8:
 1703 011f 00000000 		.4byte	.LVL8
 1704 0123 88000000 		.4byte	.LVL22
 1705 0127 0100     		.2byte	0x1
 1706 0129 51       		.byte	0x51
 1707 012a 88000000 		.4byte	.LVL22
 1708 012e 8A000000 		.4byte	.LVL23
ARM GAS  /tmp/ccjyzbzX.s 			page 31


 1709 0132 0500     		.2byte	0x5
 1710 0134 71       		.byte	0x71
 1711 0135 00       		.sleb128 0
 1712 0136 31       		.byte	0x31
 1713 0137 25       		.byte	0x25
 1714 0138 9F       		.byte	0x9f
 1715 0139 8A000000 		.4byte	.LVL23
 1716 013d C8000000 		.4byte	.LFE120
 1717 0141 0100     		.2byte	0x1
 1718 0143 51       		.byte	0x51
 1719 0144 00000000 		.4byte	0
 1720 0148 00000000 		.4byte	0
 1721              	.LLST9:
 1722 014c 00000000 		.4byte	.LVL8
 1723 0150 1E000000 		.4byte	.LVL13
 1724 0154 0100     		.2byte	0x1
 1725 0156 52       		.byte	0x52
 1726 0157 1E000000 		.4byte	.LVL13
 1727 015b C8000000 		.4byte	.LFE120
 1728 015f 0400     		.2byte	0x4
 1729 0161 F3       		.byte	0xf3
 1730 0162 01       		.uleb128 0x1
 1731 0163 52       		.byte	0x52
 1732 0164 9F       		.byte	0x9f
 1733 0165 00000000 		.4byte	0
 1734 0169 00000000 		.4byte	0
 1735              	.LLST10:
 1736 016d 1E000000 		.4byte	.LVL13
 1737 0171 24000000 		.4byte	.LVL14
 1738 0175 0200     		.2byte	0x2
 1739 0177 30       		.byte	0x30
 1740 0178 9F       		.byte	0x9f
 1741 0179 24000000 		.4byte	.LVL14
 1742 017d C8000000 		.4byte	.LFE120
 1743 0181 0100     		.2byte	0x1
 1744 0183 53       		.byte	0x53
 1745 0184 00000000 		.4byte	0
 1746 0188 00000000 		.4byte	0
 1747              	.LLST11:
 1748 018c 24000000 		.4byte	.LVL14
 1749 0190 30000000 		.4byte	.LVL16
 1750 0194 0100     		.2byte	0x1
 1751 0196 58       		.byte	0x58
 1752 0197 30000000 		.4byte	.LVL16
 1753 019b 96000000 		.4byte	.LVL28
 1754 019f 0A00     		.2byte	0xa
 1755 01a1 72       		.byte	0x72
 1756 01a2 00       		.sleb128 0
 1757 01a3 73       		.byte	0x73
 1758 01a4 00       		.sleb128 0
 1759 01a5 37       		.byte	0x37
 1760 01a6 1A       		.byte	0x1a
 1761 01a7 32       		.byte	0x32
 1762 01a8 24       		.byte	0x24
 1763 01a9 24       		.byte	0x24
 1764 01aa 9F       		.byte	0x9f
 1765 01ab A6000000 		.4byte	.LVL29
ARM GAS  /tmp/ccjyzbzX.s 			page 32


 1766 01af BC000000 		.4byte	.LVL32
 1767 01b3 0100     		.2byte	0x1
 1768 01b5 58       		.byte	0x58
 1769 01b6 BC000000 		.4byte	.LVL32
 1770 01ba C8000000 		.4byte	.LFE120
 1771 01be 0A00     		.2byte	0xa
 1772 01c0 72       		.byte	0x72
 1773 01c1 00       		.sleb128 0
 1774 01c2 73       		.byte	0x73
 1775 01c3 00       		.sleb128 0
 1776 01c4 37       		.byte	0x37
 1777 01c5 1A       		.byte	0x1a
 1778 01c6 32       		.byte	0x32
 1779 01c7 24       		.byte	0x24
 1780 01c8 24       		.byte	0x24
 1781 01c9 9F       		.byte	0x9f
 1782 01ca 00000000 		.4byte	0
 1783 01ce 00000000 		.4byte	0
 1784              	.LLST12:
 1785 01d2 34000000 		.4byte	.LVL17
 1786 01d6 88000000 		.4byte	.LVL22
 1787 01da 0500     		.2byte	0x5
 1788 01dc 31       		.byte	0x31
 1789 01dd 73       		.byte	0x73
 1790 01de 00       		.sleb128 0
 1791 01df 24       		.byte	0x24
 1792 01e0 9F       		.byte	0x9f
 1793 01e1 00000000 		.4byte	0
 1794 01e5 00000000 		.4byte	0
 1795              	.LLST13:
 1796 01e9 48000000 		.4byte	.LVL18
 1797 01ed 58000000 		.4byte	.LVL19
 1798 01f1 0700     		.2byte	0x7
 1799 01f3 33       		.byte	0x33
 1800 01f4 73       		.byte	0x73
 1801 01f5 00       		.sleb128 0
 1802 01f6 31       		.byte	0x31
 1803 01f7 24       		.byte	0x24
 1804 01f8 24       		.byte	0x24
 1805 01f9 9F       		.byte	0x9f
 1806 01fa 58000000 		.4byte	.LVL19
 1807 01fe 5C000000 		.4byte	.LVL20
 1808 0202 0100     		.2byte	0x1
 1809 0204 5C       		.byte	0x5c
 1810 0205 5C000000 		.4byte	.LVL20
 1811 0209 80000000 		.4byte	.LVL21
 1812 020d 0400     		.2byte	0x4
 1813 020f 7C       		.byte	0x7c
 1814 0210 00       		.sleb128 0
 1815 0211 20       		.byte	0x20
 1816 0212 9F       		.byte	0x9f
 1817 0213 80000000 		.4byte	.LVL21
 1818 0217 88000000 		.4byte	.LVL22
 1819 021b 0700     		.2byte	0x7
 1820 021d 33       		.byte	0x33
 1821 021e 73       		.byte	0x73
 1822 021f 00       		.sleb128 0
ARM GAS  /tmp/ccjyzbzX.s 			page 33


 1823 0220 31       		.byte	0x31
 1824 0221 24       		.byte	0x24
 1825 0222 24       		.byte	0x24
 1826 0223 9F       		.byte	0x9f
 1827 0224 00000000 		.4byte	0
 1828 0228 00000000 		.4byte	0
 1829              	.LLST14:
 1830 022c 24000000 		.4byte	.LVL14
 1831 0230 2C000000 		.4byte	.LVL15
 1832 0234 0100     		.2byte	0x1
 1833 0236 5C       		.byte	0x5c
 1834 0237 2C000000 		.4byte	.LVL15
 1835 023b 96000000 		.4byte	.LVL28
 1836 023f 0A00     		.2byte	0xa
 1837 0241 79       		.byte	0x79
 1838 0242 00       		.sleb128 0
 1839 0243 73       		.byte	0x73
 1840 0244 00       		.sleb128 0
 1841 0245 37       		.byte	0x37
 1842 0246 1A       		.byte	0x1a
 1843 0247 32       		.byte	0x32
 1844 0248 24       		.byte	0x24
 1845 0249 24       		.byte	0x24
 1846 024a 9F       		.byte	0x9f
 1847 024b AA000000 		.4byte	.LVL30
 1848 024f B8000000 		.4byte	.LVL31
 1849 0253 0100     		.2byte	0x1
 1850 0255 5C       		.byte	0x5c
 1851 0256 B8000000 		.4byte	.LVL31
 1852 025a C8000000 		.4byte	.LFE120
 1853 025e 0A00     		.2byte	0xa
 1854 0260 79       		.byte	0x79
 1855 0261 00       		.sleb128 0
 1856 0262 73       		.byte	0x73
 1857 0263 00       		.sleb128 0
 1858 0264 37       		.byte	0x37
 1859 0265 1A       		.byte	0x1a
 1860 0266 32       		.byte	0x32
 1861 0267 24       		.byte	0x24
 1862 0268 24       		.byte	0x24
 1863 0269 9F       		.byte	0x9f
 1864 026a 00000000 		.4byte	0
 1865 026e 00000000 		.4byte	0
 1866              		.section	.debug_aranges,"",%progbits
 1867 0000 24000000 		.4byte	0x24
 1868 0004 0200     		.2byte	0x2
 1869 0006 00000000 		.4byte	.Ldebug_info0
 1870 000a 04       		.byte	0x4
 1871 000b 00       		.byte	0
 1872 000c 0000     		.2byte	0
 1873 000e 0000     		.2byte	0
 1874 0010 00000000 		.4byte	.LFB119
 1875 0014 FA000000 		.4byte	.LFE119-.LFB119
 1876 0018 00000000 		.4byte	.LFB120
 1877 001c C8000000 		.4byte	.LFE120-.LFB120
 1878 0020 00000000 		.4byte	0
 1879 0024 00000000 		.4byte	0
ARM GAS  /tmp/ccjyzbzX.s 			page 34


 1880              		.section	.debug_ranges,"",%progbits
 1881              	.Ldebug_ranges0:
 1882 0000 10000000 		.4byte	.LBB14
 1883 0004 16000000 		.4byte	.LBE14
 1884 0008 1A000000 		.4byte	.LBB21
 1885 000c 34000000 		.4byte	.LBE21
 1886 0010 00000000 		.4byte	0
 1887 0014 00000000 		.4byte	0
 1888 0018 16000000 		.4byte	.LBB17
 1889 001c 1A000000 		.4byte	.LBE17
 1890 0020 34000000 		.4byte	.LBB22
 1891 0024 3A000000 		.4byte	.LBE22
 1892 0028 3E000000 		.4byte	.LBB27
 1893 002c 58000000 		.4byte	.LBE27
 1894 0030 00000000 		.4byte	0
 1895 0034 00000000 		.4byte	0
 1896 0038 3A000000 		.4byte	.LBB23
 1897 003c 3E000000 		.4byte	.LBE23
 1898 0040 58000000 		.4byte	.LBB28
 1899 0044 76000000 		.4byte	.LBE28
 1900 0048 7A000000 		.4byte	.LBB33
 1901 004c 7C000000 		.4byte	.LBE33
 1902 0050 00000000 		.4byte	0
 1903 0054 00000000 		.4byte	0
 1904 0058 76000000 		.4byte	.LBB29
 1905 005c 7A000000 		.4byte	.LBE29
 1906 0060 7C000000 		.4byte	.LBB34
 1907 0064 82000000 		.4byte	.LBE34
 1908 0068 86000000 		.4byte	.LBB39
 1909 006c A0000000 		.4byte	.LBE39
 1910 0070 00000000 		.4byte	0
 1911 0074 00000000 		.4byte	0
 1912 0078 82000000 		.4byte	.LBB35
 1913 007c 86000000 		.4byte	.LBE35
 1914 0080 A0000000 		.4byte	.LBB40
 1915 0084 C4000000 		.4byte	.LBE40
 1916 0088 C8000000 		.4byte	.LBB44
 1917 008c CA000000 		.4byte	.LBE44
 1918 0090 00000000 		.4byte	0
 1919 0094 00000000 		.4byte	0
 1920 0098 C4000000 		.4byte	.LBB41
 1921 009c C8000000 		.4byte	.LBE41
 1922 00a0 CA000000 		.4byte	.LBB45
 1923 00a4 FA000000 		.4byte	.LBE45
 1924 00a8 00000000 		.4byte	0
 1925 00ac 00000000 		.4byte	0
 1926 00b0 16000000 		.4byte	.LBB46
 1927 00b4 1A000000 		.4byte	.LBE46
 1928 00b8 1E000000 		.4byte	.LBB47
 1929 00bc 88000000 		.4byte	.LBE47
 1930 00c0 96000000 		.4byte	.LBB48
 1931 00c4 9E000000 		.4byte	.LBE48
 1932 00c8 A2000000 		.4byte	.LBB49
 1933 00cc AA000000 		.4byte	.LBE49
 1934 00d0 AC000000 		.4byte	.LBB50
 1935 00d4 C2000000 		.4byte	.LBE50
 1936 00d8 00000000 		.4byte	0
ARM GAS  /tmp/ccjyzbzX.s 			page 35


 1937 00dc 00000000 		.4byte	0
 1938 00e0 00000000 		.4byte	.LFB119
 1939 00e4 FA000000 		.4byte	.LFE119
 1940 00e8 00000000 		.4byte	.LFB120
 1941 00ec C8000000 		.4byte	.LFE120
 1942 00f0 00000000 		.4byte	0
 1943 00f4 00000000 		.4byte	0
 1944              		.section	.debug_line,"",%progbits
 1945              	.Ldebug_line0:
 1946 0000 D3010000 		.section	.debug_str,"MS",%progbits,1
 1946      02003F01 
 1946      00000201 
 1946      FB0E0D00 
 1946      01010101 
 1947              	.LASF35:
 1948 0000 4750494F 		.ascii	"GPIO_TypeDef\000"
 1948      5F547970 
 1948      65446566 
 1948      00
 1949              	.LASF45:
 1950 000d 50434461 		.ascii	"PCData\000"
 1950      746100
 1951              	.LASF56:
 1952 0014 5F70616C 		.ascii	"_pal_lld_setgroupmode\000"
 1952      5F6C6C64 
 1952      5F736574 
 1952      67726F75 
 1952      706D6F64 
 1953              	.LASF17:
 1954 002a 41504231 		.ascii	"APB1RSTR\000"
 1954      52535452 
 1954      00
 1955              	.LASF55:
 1956 0033 5F70616C 		.ascii	"_pal_lld_init\000"
 1956      5F6C6C64 
 1956      5F696E69 
 1956      7400
 1957              	.LASF42:
 1958 0041 73746D33 		.ascii	"stm32_gpio_setup_t\000"
 1958      325F6770 
 1958      696F5F73 
 1958      65747570 
 1958      5F7400
 1959              	.LASF48:
 1960 0054 50464461 		.ascii	"PFData\000"
 1960      746100
 1961              	.LASF3:
 1962 005b 73686F72 		.ascii	"short int\000"
 1962      7420696E 
 1962      7400
 1963              	.LASF64:
 1964 0065 2F6F7074 		.ascii	"/opt/ChibiStudio/ChibiOS_2.6.5/demos/ARMCM4-STM32F3"
 1964      2F436869 
 1964      62695374 
 1964      7564696F 
 1964      2F436869 
 1965 0098 30332D44 		.ascii	"03-DISCOVERY\000"
ARM GAS  /tmp/ccjyzbzX.s 			page 36


 1965      4953434F 
 1965      56455259 
 1965      00
 1966              	.LASF65:
 1967 00a5 696E6974 		.ascii	"initgpio\000"
 1967      6770696F 
 1967      00
 1968              	.LASF13:
 1969 00ae 73697A65 		.ascii	"sizetype\000"
 1969      74797065 
 1969      00
 1970              	.LASF21:
 1971 00b7 42444352 		.ascii	"BDCR\000"
 1971      00
 1972              	.LASF53:
 1973 00bc 6770696F 		.ascii	"gpiop\000"
 1973      7000
 1974              	.LASF44:
 1975 00c2 50424461 		.ascii	"PBData\000"
 1975      746100
 1976              	.LASF54:
 1977 00c9 636F6E66 		.ascii	"config\000"
 1977      696700
 1978              	.LASF51:
 1979 00d0 696F6D6F 		.ascii	"iomode_t\000"
 1979      64655F74 
 1979      00
 1980              	.LASF20:
 1981 00d9 41504231 		.ascii	"APB1ENR\000"
 1981      454E5200 
 1982              	.LASF50:
 1983 00e1 696F706F 		.ascii	"ioportmask_t\000"
 1983      72746D61 
 1983      736B5F74 
 1983      00
 1984              	.LASF28:
 1985 00ee 4F545950 		.ascii	"OTYPER\000"
 1985      455200
 1986              	.LASF43:
 1987 00f5 50414461 		.ascii	"PAData\000"
 1987      746100
 1988              	.LASF22:
 1989 00fc 41484252 		.ascii	"AHBRSTR\000"
 1989      53545200 
 1990              	.LASF10:
 1991 0104 6C6F6E67 		.ascii	"long long int\000"
 1991      206C6F6E 
 1991      6720696E 
 1991      7400
 1992              	.LASF30:
 1993 0112 50555044 		.ascii	"PUPDR\000"
 1993      5200
 1994              	.LASF38:
 1995 0118 6F737065 		.ascii	"ospeedr\000"
 1995      65647200 
 1996              	.LASF7:
 1997 0120 6C6F6E67 		.ascii	"long int\000"
ARM GAS  /tmp/ccjyzbzX.s 			page 37


 1997      20696E74 
 1997      00
 1998              	.LASF46:
 1999 0129 50444461 		.ascii	"PDData\000"
 1999      746100
 2000              	.LASF25:
 2001 0130 5243435F 		.ascii	"RCC_TypeDef\000"
 2001      54797065 
 2001      44656600 
 2002              	.LASF18:
 2003 013c 41484245 		.ascii	"AHBENR\000"
 2003      4E5200
 2004              	.LASF27:
 2005 0143 4D4F4445 		.ascii	"MODER\000"
 2005      5200
 2006              	.LASF16:
 2007 0149 41504232 		.ascii	"APB2RSTR\000"
 2007      52535452 
 2007      00
 2008              	.LASF26:
 2009 0152 636C6561 		.ascii	"clear\000"
 2009      7200
 2010              	.LASF62:
 2011 0158 474E5520 		.ascii	"GNU C 4.7.3 20130312 (release) [ARM/embedded-4_7-br"
 2011      4320342E 
 2011      372E3320 
 2011      32303133 
 2011      30333132 
 2012 018b 616E6368 		.ascii	"anch revision 196615]\000"
 2012      20726576 
 2012      6973696F 
 2012      6E203139 
 2012      36363135 
 2013              	.LASF52:
 2014 01a1 696F706F 		.ascii	"ioportid_t\000"
 2014      72746964 
 2014      5F7400
 2015              	.LASF2:
 2016 01ac 756E7369 		.ascii	"unsigned char\000"
 2016      676E6564 
 2016      20636861 
 2016      7200
 2017              	.LASF19:
 2018 01ba 41504232 		.ascii	"APB2ENR\000"
 2018      454E5200 
 2019              	.LASF1:
 2020 01c2 7369676E 		.ascii	"signed char\000"
 2020      65642063 
 2020      68617200 
 2021              	.LASF11:
 2022 01ce 6C6F6E67 		.ascii	"long long unsigned int\000"
 2022      206C6F6E 
 2022      6720756E 
 2022      7369676E 
 2022      65642069 
 2023              	.LASF8:
 2024 01e5 75696E74 		.ascii	"uint32_t\000"
ARM GAS  /tmp/ccjyzbzX.s 			page 38


 2024      33325F74 
 2024      00
 2025              	.LASF37:
 2026 01ee 6F747970 		.ascii	"otyper\000"
 2026      657200
 2027              	.LASF23:
 2028 01f5 43464752 		.ascii	"CFGR2\000"
 2028      3200
 2029              	.LASF24:
 2030 01fb 43464752 		.ascii	"CFGR3\000"
 2030      3300
 2031              	.LASF34:
 2032 0201 41465248 		.ascii	"AFRH\000"
 2032      00
 2033              	.LASF33:
 2034 0206 4146524C 		.ascii	"AFRL\000"
 2034      00
 2035              	.LASF4:
 2036 020b 73686F72 		.ascii	"short unsigned int\000"
 2036      7420756E 
 2036      7369676E 
 2036      65642069 
 2036      6E7400
 2037              	.LASF14:
 2038 021e 63686172 		.ascii	"char\000"
 2038      00
 2039              	.LASF5:
 2040 0223 75696E74 		.ascii	"uint16_t\000"
 2040      31365F74 
 2040      00
 2041              	.LASF6:
 2042 022c 696E7433 		.ascii	"int32_t\000"
 2042      325F7400 
 2043              	.LASF49:
 2044 0234 50414C43 		.ascii	"PALConfig\000"
 2044      6F6E6669 
 2044      6700
 2045              	.LASF12:
 2046 023e 5F426F6F 		.ascii	"_Bool\000"
 2046      6C00
 2047              	.LASF59:
 2048 0244 6D6F6465 		.ascii	"mode\000"
 2048      00
 2049              	.LASF57:
 2050 0249 706F7274 		.ascii	"port\000"
 2050      00
 2051              	.LASF47:
 2052 024e 50454461 		.ascii	"PEData\000"
 2052      746100
 2053              	.LASF60:
 2054 0255 616C7472 		.ascii	"altr\000"
 2054      00
 2055              	.LASF29:
 2056 025a 4F535045 		.ascii	"OSPEEDR\000"
 2056      45445200 
 2057              	.LASF9:
 2058 0262 6C6F6E67 		.ascii	"long unsigned int\000"
ARM GAS  /tmp/ccjyzbzX.s 			page 39


 2058      20756E73 
 2058      69676E65 
 2058      6420696E 
 2058      7400
 2059              	.LASF58:
 2060 0274 6D61736B 		.ascii	"mask\000"
 2060      00
 2061              	.LASF39:
 2062 0279 70757064 		.ascii	"pupdr\000"
 2062      7200
 2063              	.LASF41:
 2064 027f 61667268 		.ascii	"afrh\000"
 2064      00
 2065              	.LASF40:
 2066 0284 6166726C 		.ascii	"afrl\000"
 2066      00
 2067              	.LASF36:
 2068 0289 6D6F6465 		.ascii	"moder\000"
 2068      7200
 2069              	.LASF66:
 2070 028f 49544D5F 		.ascii	"ITM_RxBuffer\000"
 2070      52784275 
 2070      66666572 
 2070      00
 2071              	.LASF61:
 2072 029c 616C7472 		.ascii	"altrmask\000"
 2072      6D61736B 
 2072      00
 2073              	.LASF0:
 2074 02a5 756E7369 		.ascii	"unsigned int\000"
 2074      676E6564 
 2074      20696E74 
 2074      00
 2075              	.LASF15:
 2076 02b2 43464752 		.ascii	"CFGR\000"
 2076      00
 2077              	.LASF32:
 2078 02b7 4C434B52 		.ascii	"LCKR\000"
 2078      00
 2079              	.LASF63:
 2080 02bc 2E2E2F2E 		.ascii	"../../os/hal/platforms/STM32/GPIOv2/pal_lld.c\000"
 2080      2E2F6F73 
 2080      2F68616C 
 2080      2F706C61 
 2080      74666F72 
 2081              	.LASF31:
 2082 02ea 42535252 		.ascii	"BSRR\000"
 2082      00
 2083              		.ident	"GCC: (GNU Tools for ARM Embedded Processors) 4.7.3 20130312 (release) [ARM/embedded-4_7-br
ARM GAS  /tmp/ccjyzbzX.s 			page 40


DEFINED SYMBOLS
                            *ABS*:00000000 pal_lld.c
     /tmp/ccjyzbzX.s:19     .text._pal_lld_init:00000000 $t
     /tmp/ccjyzbzX.s:25     .text._pal_lld_init:00000000 _pal_lld_init
     /tmp/ccjyzbzX.s:257    .text._pal_lld_setgroupmode:00000000 $t
     /tmp/ccjyzbzX.s:263    .text._pal_lld_setgroupmode:00000000 _pal_lld_setgroupmode
                     .debug_frame:00000010 $d

NO UNDEFINED SYMBOLS
