ARM GAS  /tmp/ccjyzbzX.s 			page 1


   1              		.syntax unified
   2              		.cpu cortex-m4
   3              		.fpu softvfp
   4              		.eabi_attribute 20, 1
   5              		.eabi_attribute 21, 1
   6              		.eabi_attribute 23, 3
   7              		.eabi_attribute 24, 1
   8              		.eabi_attribute 25, 1
   9              		.eabi_attribute 26, 1
  10              		.eabi_attribute 30, 2
  11              		.eabi_attribute 34, 1
  12              		.eabi_attribute 18, 4
  13              		.thumb
  14              		.file	"pal_lld.c"
  15              		.text
  16              	.Ltext0:
  17              		.cfi_sections	.debug_frame
  18              		.section	.text._pal_lld_init,"ax",%progbits
  19              		.align	2
  20              		.p2align 4,,15
  21              		.global	_pal_lld_init
  22              		.thumb
  23              		.thumb_func
  24              		.type	_pal_lld_init, %function
  25              	_pal_lld_init:
  26              	.LFB119:
  27              		.file 1 "../../os/hal/platforms/STM32/GPIOv2/pal_lld.c"
  28              		.loc 1 113 0
  29              		.cfi_startproc
  30              		@ args = 0, pretend = 0, frame = 0
  31              		@ frame_needed = 0, uses_anonymous_args = 0
  32              		@ link register save eliminated.
  33              	.LVL0:
  34              		.loc 1 124 0
  35 0000 4FF48053 		mov	r3, #4096
  36 0004 C4F20203 		movt	r3, 16386
  37 0008 5A69     		ldr	r2, [r3, #20]
  38 000a 42F4FC01 		orr	r1, r2, #8257536
  39 000e 5961     		str	r1, [r3, #20]
  40              	.LVL1:
  41              	.LBB14:
  42              	.LBB15:
  43              		.loc 1 88 0
  44 0010 4168     		ldr	r1, [r0, #4]
  45 0012 4FF09042 		mov	r2, #1207959552
  46              	.LBE15:
  47              	.LBE14:
  48              	.LBB17:
  49              	.LBB18:
  50 0016 4FF48063 		mov	r3, #1024
  51              	.LBE18:
  52              	.LBE17:
  53              	.LBB21:
  54              	.LBB16:
  55 001a 5160     		str	r1, [r2, #4]
  56              		.loc 1 89 0
  57 001c 8168     		ldr	r1, [r0, #8]
ARM GAS  /tmp/ccjyzbzX.s 			page 2


  58 001e 9160     		str	r1, [r2, #8]
  59              		.loc 1 90 0
  60 0020 C168     		ldr	r1, [r0, #12]
  61 0022 D160     		str	r1, [r2, #12]
  62              		.loc 1 91 0
  63 0024 0169     		ldr	r1, [r0, #16]
  64 0026 5161     		str	r1, [r2, #20]
  65              		.loc 1 92 0
  66 0028 4169     		ldr	r1, [r0, #20]
  67 002a 1162     		str	r1, [r2, #32]
  68              		.loc 1 93 0
  69 002c 8169     		ldr	r1, [r0, #24]
  70 002e 5162     		str	r1, [r2, #36]
  71              		.loc 1 94 0
  72 0030 0168     		ldr	r1, [r0, #0]
  73 0032 1160     		str	r1, [r2, #0]
  74              	.LVL2:
  75              	.LBE16:
  76              	.LBE21:
  77              	.LBB22:
  78              	.LBB19:
  79              		.loc 1 88 0
  80 0034 016A     		ldr	r1, [r0, #32]
  81 0036 C4F60003 		movt	r3, 18432
  82              	.LBE19:
  83              	.LBE22:
  84              	.LBB23:
  85              	.LBB24:
  86 003a 4FF40062 		mov	r2, #2048
  87              	.LBE24:
  88              	.LBE23:
  89              	.LBB27:
  90              	.LBB20:
  91 003e 5960     		str	r1, [r3, #4]
  92              		.loc 1 89 0
  93 0040 416A     		ldr	r1, [r0, #36]
  94 0042 9960     		str	r1, [r3, #8]
  95              		.loc 1 90 0
  96 0044 816A     		ldr	r1, [r0, #40]
  97 0046 D960     		str	r1, [r3, #12]
  98              		.loc 1 91 0
  99 0048 C16A     		ldr	r1, [r0, #44]
 100 004a 5961     		str	r1, [r3, #20]
 101              		.loc 1 92 0
 102 004c 016B     		ldr	r1, [r0, #48]
 103 004e 1962     		str	r1, [r3, #32]
 104              		.loc 1 93 0
 105 0050 416B     		ldr	r1, [r0, #52]
 106 0052 5962     		str	r1, [r3, #36]
 107              		.loc 1 94 0
 108 0054 C169     		ldr	r1, [r0, #28]
 109 0056 1960     		str	r1, [r3, #0]
 110              	.LVL3:
 111              	.LBE20:
 112              	.LBE27:
 113              	.LBB28:
 114              	.LBB25:
ARM GAS  /tmp/ccjyzbzX.s 			page 3


 115              		.loc 1 88 0
 116 0058 C4F60002 		movt	r2, 18432
 117 005c C36B     		ldr	r3, [r0, #60]
 118 005e 5360     		str	r3, [r2, #4]
 119              		.loc 1 89 0
 120 0060 016C     		ldr	r1, [r0, #64]
 121 0062 9160     		str	r1, [r2, #8]
 122              		.loc 1 90 0
 123 0064 436C     		ldr	r3, [r0, #68]
 124 0066 D360     		str	r3, [r2, #12]
 125              		.loc 1 91 0
 126 0068 816C     		ldr	r1, [r0, #72]
 127 006a 5161     		str	r1, [r2, #20]
 128              		.loc 1 92 0
 129 006c C36C     		ldr	r3, [r0, #76]
 130 006e 1362     		str	r3, [r2, #32]
 131              		.loc 1 93 0
 132 0070 016D     		ldr	r1, [r0, #80]
 133 0072 5162     		str	r1, [r2, #36]
 134              		.loc 1 94 0
 135 0074 816B     		ldr	r1, [r0, #56]
 136              	.LBE25:
 137              	.LBE28:
 138              	.LBB29:
 139              	.LBB30:
 140              		.loc 1 88 0
 141 0076 4FF44063 		mov	r3, #3072
 142              	.LBE30:
 143              	.LBE29:
 144              	.LBB33:
 145              	.LBB26:
 146              		.loc 1 94 0
 147 007a 1160     		str	r1, [r2, #0]
 148              	.LVL4:
 149              	.LBE26:
 150              	.LBE33:
 151              	.LBB34:
 152              	.LBB31:
 153              		.loc 1 88 0
 154 007c 816D     		ldr	r1, [r0, #88]
 155 007e C4F60003 		movt	r3, 18432
 156              	.LBE31:
 157              	.LBE34:
 158              	.LBB35:
 159              	.LBB36:
 160 0082 4FF48052 		mov	r2, #4096
 161              	.LBE36:
 162              	.LBE35:
 163              	.LBB39:
 164              	.LBB32:
 165 0086 5960     		str	r1, [r3, #4]
 166              		.loc 1 89 0
 167 0088 C16D     		ldr	r1, [r0, #92]
 168 008a 9960     		str	r1, [r3, #8]
 169              		.loc 1 90 0
 170 008c 016E     		ldr	r1, [r0, #96]
 171 008e D960     		str	r1, [r3, #12]
ARM GAS  /tmp/ccjyzbzX.s 			page 4


 172              		.loc 1 91 0
 173 0090 416E     		ldr	r1, [r0, #100]
 174 0092 5961     		str	r1, [r3, #20]
 175              		.loc 1 92 0
 176 0094 816E     		ldr	r1, [r0, #104]
 177 0096 1962     		str	r1, [r3, #32]
 178              		.loc 1 93 0
 179 0098 C16E     		ldr	r1, [r0, #108]
 180 009a 5962     		str	r1, [r3, #36]
 181              		.loc 1 94 0
 182 009c 416D     		ldr	r1, [r0, #84]
 183 009e 1960     		str	r1, [r3, #0]
 184              	.LVL5:
 185              	.LBE32:
 186              	.LBE39:
 187              	.LBB40:
 188              	.LBB37:
 189              		.loc 1 88 0
 190 00a0 C4F60002 		movt	r2, 18432
 191 00a4 436F     		ldr	r3, [r0, #116]
 192 00a6 5360     		str	r3, [r2, #4]
 193              		.loc 1 89 0
 194 00a8 816F     		ldr	r1, [r0, #120]
 195 00aa 9160     		str	r1, [r2, #8]
 196              		.loc 1 90 0
 197 00ac C36F     		ldr	r3, [r0, #124]
 198 00ae D360     		str	r3, [r2, #12]
 199              		.loc 1 91 0
 200 00b0 D0F88010 		ldr	r1, [r0, #128]
 201 00b4 5161     		str	r1, [r2, #20]
 202              		.loc 1 92 0
 203 00b6 D0F88430 		ldr	r3, [r0, #132]
 204 00ba 1362     		str	r3, [r2, #32]
 205              		.loc 1 93 0
 206 00bc D0F88810 		ldr	r1, [r0, #136]
 207 00c0 5162     		str	r1, [r2, #36]
 208              		.loc 1 94 0
 209 00c2 016F     		ldr	r1, [r0, #112]
 210              	.LBE37:
 211              	.LBE40:
 212              	.LBB41:
 213              	.LBB42:
 214              		.loc 1 88 0
 215 00c4 4FF4A053 		mov	r3, #5120
 216              	.LBE42:
 217              	.LBE41:
 218              	.LBB44:
 219              	.LBB38:
 220              		.loc 1 94 0
 221 00c8 1160     		str	r1, [r2, #0]
 222              	.LVL6:
 223              	.LBE38:
 224              	.LBE44:
 225              	.LBB45:
 226              	.LBB43:
 227              		.loc 1 88 0
 228 00ca D0F89020 		ldr	r2, [r0, #144]
ARM GAS  /tmp/ccjyzbzX.s 			page 5


 229 00ce C4F60003 		movt	r3, 18432
 230 00d2 5A60     		str	r2, [r3, #4]
 231              		.loc 1 89 0
 232 00d4 D0F89410 		ldr	r1, [r0, #148]
 233 00d8 9960     		str	r1, [r3, #8]
 234              		.loc 1 90 0
 235 00da D0F89820 		ldr	r2, [r0, #152]
 236 00de DA60     		str	r2, [r3, #12]
 237              		.loc 1 91 0
 238 00e0 D0F89C10 		ldr	r1, [r0, #156]
 239 00e4 5961     		str	r1, [r3, #20]
 240              		.loc 1 92 0
 241 00e6 D0F8A020 		ldr	r2, [r0, #160]
 242 00ea 1A62     		str	r2, [r3, #32]
 243              		.loc 1 93 0
 244 00ec D0F8A410 		ldr	r1, [r0, #164]
 245 00f0 5962     		str	r1, [r3, #36]
 246              		.loc 1 94 0
 247 00f2 D0F88C00 		ldr	r0, [r0, #140]
 248              	.LVL7:
 249 00f6 1860     		str	r0, [r3, #0]
 250 00f8 7047     		bx	lr
 251              	.LBE43:
 252              	.LBE45:
 253              		.cfi_endproc
 254              	.LFE119:
 255              		.size	_pal_lld_init, .-_pal_lld_init
 256 00fa 00BFAFF3 		.section	.text._pal_lld_setgroupmode,"ax",%progbits
 256      0080
 257              		.align	2
 258              		.p2align 4,,15
 259              		.global	_pal_lld_setgroupmode
 260              		.thumb
 261              		.thumb_func
 262              		.type	_pal_lld_setgroupmode, %function
 263              	_pal_lld_setgroupmode:
 264              	.LFB120:
 265              		.loc 1 178 0
 266              		.cfi_startproc
 267              		@ args = 0, pretend = 0, frame = 0
 268              		@ frame_needed = 0, uses_anonymous_args = 0
 269              		@ link register save eliminated.
 270              	.LVL8:
 271 0000 2DE9F00F 		push	{r4, r5, r6, r7, r8, r9, sl, fp}
 272              	.LCFI0:
 273              		.cfi_def_cfa_offset 32
 274              		.cfi_offset 4, -32
 275              		.cfi_offset 5, -28
 276              		.cfi_offset 6, -24
 277              		.cfi_offset 7, -20
 278              		.cfi_offset 8, -16
 279              		.cfi_offset 9, -12
 280              		.cfi_offset 10, -8
 281              		.cfi_offset 11, -4
 282              		.loc 1 185 0
 283 0004 0023     		movs	r3, #0
 284              		.loc 1 180 0
ARM GAS  /tmp/ccjyzbzX.s 			page 6


 285 0006 02F00307 		and	r7, r2, #3
 286              	.LVL9:
 287              		.loc 1 181 0
 288 000a C2F38006 		ubfx	r6, r2, #2, #1
 289              	.LVL10:
 290              		.loc 1 182 0
 291 000e C2F3C105 		ubfx	r5, r2, #3, #2
 292              	.LVL11:
 293              		.loc 1 183 0
 294 0012 C2F34114 		ubfx	r4, r2, #5, #2
 295              	.LVL12:
 296              	.LBB46:
 297              		.loc 1 191 0
 298 0016 4FF00F09 		mov	r9, #15
 299              	.LBE46:
 300              		.loc 1 184 0
 301 001a C2F3C312 		ubfx	r2, r2, #7, #4
 302              	.LVL13:
 303              	.LBB47:
 304              		.loc 1 196 0
 305 001e 4FF0010A 		mov	sl, #1
 306 0022 38E0     		b	.L7
 307              	.LVL14:
 308              	.L12:
 309              		.loc 1 193 0
 310 0024 D0F820B0 		ldr	fp, [r0, #32]
 311 0028 2BEA0C0C 		bic	ip, fp, ip
 312              	.LVL15:
 313 002c 4CEA0808 		orr	r8, ip, r8
 314              	.LVL16:
 315 0030 C0F82080 		str	r8, [r0, #32]
 316              	.L5:
 317              	.LVL17:
 318              		.loc 1 197 0
 319 0034 D0F804B0 		ldr	fp, [r0, #4]
 320              		.loc 1 196 0
 321 0038 0AFA03FC 		lsl	ip, sl, r3
 322              		.loc 1 197 0
 323 003c 2BEA0C08 		bic	r8, fp, ip
 324 0040 48EA060B 		orr	fp, r8, r6
 325 0044 C0F804B0 		str	fp, [r0, #4]
 326              	.LVL18:
 327              		.loc 1 176 0
 328 0048 4FEA430C 		lsl	ip, r3, #1
 329              		.loc 1 198 0
 330 004c 4FF0030B 		mov	fp, #3
 331              		.loc 1 199 0
 332 0050 D0F80880 		ldr	r8, [r0, #8]
 333              		.loc 1 198 0
 334 0054 0BFA0CFC 		lsl	ip, fp, ip
 335              	.LVL19:
 336              		.loc 1 199 0
 337 0058 6FEA0C0C 		mvn	ip, ip
 338              	.LVL20:
 339 005c 0CEA0808 		and	r8, ip, r8
 340 0060 48EA0508 		orr	r8, r8, r5
 341 0064 C0F80880 		str	r8, [r0, #8]
ARM GAS  /tmp/ccjyzbzX.s 			page 7


 342              		.loc 1 200 0
 343 0068 D0F80C80 		ldr	r8, [r0, #12]
 344 006c 0CEA0808 		and	r8, ip, r8
 345 0070 48EA0408 		orr	r8, r8, r4
 346 0074 C0F80C80 		str	r8, [r0, #12]
 347              		.loc 1 201 0
 348 0078 D0F80080 		ldr	r8, [r0, #0]
 349 007c 0CEA080C 		and	ip, ip, r8
 350              	.LVL21:
 351 0080 4CEA070C 		orr	ip, ip, r7
 352 0084 C0F800C0 		str	ip, [r0, #0]
 353              	.LVL22:
 354              	.L3:
 355              	.LBE47:
 356              		.loc 1 204 0
 357 0088 4908     		lsrs	r1, r1, #1
 358              	.LVL23:
 359 008a 1AD0     		beq	.L2
 360              		.loc 1 206 0
 361 008c 7600     		lsls	r6, r6, #1
 362              	.LVL24:
 363              		.loc 1 207 0
 364 008e AD00     		lsls	r5, r5, #2
 365              	.LVL25:
 366              		.loc 1 208 0
 367 0090 A400     		lsls	r4, r4, #2
 368              	.LVL26:
 369              		.loc 1 209 0
 370 0092 BF00     		lsls	r7, r7, #2
 371              	.LVL27:
 372              		.loc 1 210 0
 373 0094 0133     		adds	r3, r3, #1
 374              	.LVL28:
 375              	.L7:
 376              	.LBB48:
 377              		.loc 1 190 0
 378 0096 03F0070C 		and	ip, r3, #7
 379 009a 4FEA8C0C 		lsl	ip, ip, #2
 380              	.LBE48:
 381              		.loc 1 187 0
 382 009e 11F0010F 		tst	r1, #1
 383              	.LBB49:
 384              		.loc 1 190 0
 385 00a2 02FA0CF8 		lsl	r8, r2, ip
 386              	.LVL29:
 387              		.loc 1 191 0
 388 00a6 09FA0CFC 		lsl	ip, r9, ip
 389              	.LVL30:
 390              	.LBE49:
 391              		.loc 1 187 0
 392 00aa EDD0     		beq	.L3
 393              	.LBB50:
 394              		.loc 1 192 0
 395 00ac 072B     		cmp	r3, #7
 396 00ae B9D9     		bls	.L12
 397              		.loc 1 195 0
 398 00b0 D0F824B0 		ldr	fp, [r0, #36]
ARM GAS  /tmp/ccjyzbzX.s 			page 8


 399 00b4 2BEA0C0C 		bic	ip, fp, ip
 400              	.LVL31:
 401 00b8 4CEA0808 		orr	r8, ip, r8
 402              	.LVL32:
 403 00bc C0F82480 		str	r8, [r0, #36]
 404 00c0 B8E7     		b	.L5
 405              	.L2:
 406              	.LBE50:
 407              		.loc 1 212 0
 408 00c2 BDE8F00F 		pop	{r4, r5, r6, r7, r8, r9, sl, fp}
 409 00c6 7047     		bx	lr
 410              		.cfi_endproc
 411              	.LFE120:
 412              		.size	_pal_lld_setgroupmode, .-_pal_lld_setgroupmode
 413 00c8 AFF30080 		.text
 413      AFF30080 
 414              	.Letext0:
 415              		.file 2 "/opt/ChibiStudio/tools/gcc-arm-none-eabi-4_7-2013q1/bin/../lib/gcc/arm-none-eabi/4.7.3/..
 416              		.file 3 "../../os/hal/platforms/STM32F30x/stm32f30x.h"
 417              		.file 4 "../../os/hal/platforms/STM32/GPIOv2/pal_lld.h"
 418              		.file 5 "../../os/ports/common/ARMCMx/CMSIS/include/core_cm4.h"