ARM GAS  /tmp/ccgFERJb.s 			page 1


   1              		.syntax unified
   2              		.cpu cortex-m4
   3              		.fpu softvfp
   4              		.eabi_attribute 20, 1
   5              		.eabi_attribute 21, 1
   6              		.eabi_attribute 23, 3
   7              		.eabi_attribute 24, 1
   8              		.eabi_attribute 25, 1
   9              		.eabi_attribute 26, 1
  10              		.eabi_attribute 30, 2
  11              		.eabi_attribute 34, 1
  12              		.eabi_attribute 18, 4
  13              		.thumb
  14              		.file	"serial_lld.c"
  15              		.text
  16              	.Ltext0:
  17              		.cfi_sections	.debug_frame
  18              		.section	.text.notify1,"ax",%progbits
  19              		.align	2
  20              		.p2align 4,,15
  21              		.thumb
  22              		.thumb_func
  23              		.type	notify1, %function
  24              	notify1:
  25              	.LFB122:
  26              		.file 1 "../../os/hal/platforms/STM32/USARTv2/serial_lld.c"
  27              		.loc 1 199 0
  28              		.cfi_startproc
  29              		@ args = 0, pretend = 0, frame = 0
  30              		@ frame_needed = 0, uses_anonymous_args = 0
  31              		@ link register save eliminated.
  32              	.LVL0:
  33              		.loc 1 202 0
  34 0000 4FF46053 		mov	r3, #14336
  35 0004 C4F20103 		movt	r3, 16385
  36 0008 1A68     		ldr	r2, [r3, #0]
  37 000a 42F08000 		orr	r0, r2, #128
  38              	.LVL1:
  39 000e 1860     		str	r0, [r3, #0]
  40 0010 7047     		bx	lr
  41              		.cfi_endproc
  42              	.LFE122:
  43              		.size	notify1, .-notify1
  44 0012 00BFAFF3 		.section	.text.VectorD4,"ax",%progbits
  44      0080AFF3 
  44      0080AFF3 
  44      0080
  45              		.align	2
  46              		.p2align 4,,15
  47              		.global	VectorD4
  48              		.thumb
  49              		.thumb_func
  50              		.type	VectorD4, %function
  51              	VectorD4:
  52              	.LFB123:
  53              		.loc 1 259 0
  54              		.cfi_startproc
ARM GAS  /tmp/ccgFERJb.s 			page 2


  55              		@ args = 0, pretend = 0, frame = 0
  56              		@ frame_needed = 0, uses_anonymous_args = 0
  57              	.LVL2:
  58 0000 F8B5     		push	{r3, r4, r5, r6, r7, lr}
  59              	.LCFI0:
  60              		.cfi_def_cfa_offset 24
  61              		.cfi_offset 3, -24
  62              		.cfi_offset 4, -20
  63              		.cfi_offset 5, -16
  64              		.cfi_offset 6, -12
  65              		.cfi_offset 7, -8
  66              		.cfi_offset 14, -4
  67              	.LBB32:
  68              	.LBB33:
  69              		.loc 1 148 0
  70 0002 3B4E     		ldr	r6, .L51
  71 0004 756F     		ldr	r5, [r6, #116]
  72              	.LVL3:
  73              		.loc 1 149 0
  74 0006 2F68     		ldr	r7, [r5, #0]
  75              	.LVL4:
  76              		.loc 1 153 0
  77 0008 EC69     		ldr	r4, [r5, #28]
  78              	.LVL5:
  79              		.loc 1 157 0
  80 000a 2207     		lsls	r2, r4, #28
  81              		.loc 1 154 0
  82 000c 2C62     		str	r4, [r5, #32]
  83              		.loc 1 157 0
  84 000e 33D1     		bne	.L45
  85              	.LVL6:
  86              	.L3:
  87              		.loc 1 161 0
  88 0010 E305     		lsls	r3, r4, #23
  89              	.LVL7:
  90 0012 25D4     		bmi	.L46
  91              	.LVL8:
  92              	.L8:
  93              		.loc 1 168 0
  94 0014 A006     		lsls	r0, r4, #26
  95 0016 17D4     		bmi	.L47
  96              	.LVL9:
  97              	.L9:
  98              		.loc 1 175 0
  99 0018 3906     		lsls	r1, r7, #24
 100 001a 01D5     		bpl	.L10
 101 001c 2206     		lsls	r2, r4, #24
 102 001e 46D4     		bmi	.L48
 103              	.LVL10:
 104              	.L10:
 105              		.loc 1 189 0
 106 0020 6306     		lsls	r3, r4, #25
 107              	.LVL11:
 108 0022 0DD5     		bpl	.L13
 109              	.LBB34:
 110              		.loc 1 190 0
 111 0024 2023     		movs	r3, #32
ARM GAS  /tmp/ccgFERJb.s 			page 3


 112              	.LVL12:
 113              	@ 190 "../../os/hal/platforms/STM32/USARTv2/serial_lld.c" 1
 114 0026 83F31188 		msr     BASEPRI, r3
 115              	@ 0 "" 2
 116              	.LVL13:
 117              		.thumb
 118              	.LBE34:
 119              		.loc 1 191 0
 120 002a 716C     		ldr	r1, [r6, #68]
 121 002c B36C     		ldr	r3, [r6, #72]
 122              	.LVL14:
 123 002e 3048     		ldr	r0, .L51
 124 0030 9942     		cmp	r1, r3
 125 0032 4AD0     		beq	.L49
 126              	.L14:
 127              		.loc 1 193 0
 128 0034 27F04007 		bic	r7, r7, #64
 129              	.LVL15:
 130 0038 2F60     		str	r7, [r5, #0]
 131              	.LBB35:
 132              		.loc 1 194 0
 133 003a 0023     		movs	r3, #0
 134              	.LVL16:
 135              	@ 194 "../../os/hal/platforms/STM32/USARTv2/serial_lld.c" 1
 136 003c 83F31188 		msr     BASEPRI, r3
 137              	@ 0 "" 2
 138              	.LVL17:
 139              		.thumb
 140              	.L13:
 141              	.LBE35:
 142              	.LBE33:
 143              	.LBE32:
 144              		.loc 1 266 0
 145 0040 BDE8F840 		pop	{r3, r4, r5, r6, r7, lr}
 146              		.loc 1 265 0
 147 0044 FFF7FEBF 		b	_port_irq_epilogue
 148              	.LVL18:
 149              	.L47:
 150              	.LBB49:
 151              	.LBB48:
 152              	.LBB36:
 153              		.loc 1 169 0
 154 0048 2023     		movs	r3, #32
 155              	.LVL19:
 156              	@ 169 "../../os/hal/platforms/STM32/USARTv2/serial_lld.c" 1
 157 004a 83F31188 		msr     BASEPRI, r3
 158              	@ 0 "" 2
 159              	.LVL20:
 160              		.thumb
 161              	.LBE36:
 162              		.loc 1 170 0
 163 004e A98C     		ldrh	r1, [r5, #36]
 164 0050 2748     		ldr	r0, .L51
 165 0052 C9B2     		uxtb	r1, r1
 166 0054 FFF7FEFF 		bl	sdIncomingDataI
 167              	.LVL21:
 168              	.LBB37:
ARM GAS  /tmp/ccgFERJb.s 			page 4


 169              		.loc 1 171 0
 170 0058 0023     		movs	r3, #0
 171              	@ 171 "../../os/hal/platforms/STM32/USARTv2/serial_lld.c" 1
 172 005a 83F31188 		msr     BASEPRI, r3
 173              	@ 0 "" 2
 174              	.LVL22:
 175              		.thumb
 176 005e DBE7     		b	.L9
 177              	.LVL23:
 178              	.L46:
 179              	.LBE37:
 180              	.LBB38:
 181              		.loc 1 162 0
 182 0060 2023     		movs	r3, #32
 183              	.LVL24:
 184              	@ 162 "../../os/hal/platforms/STM32/USARTv2/serial_lld.c" 1
 185 0062 83F31188 		msr     BASEPRI, r3
 186              	@ 0 "" 2
 187              	.LVL25:
 188              		.thumb
 189              	.LBE38:
 190              		.loc 1 163 0
 191 0066 2348     		ldr	r0, .L51+4
 192 0068 4FF40071 		mov	r1, #512
 193 006c FFF7FEFF 		bl	chEvtBroadcastFlagsI
 194              	.LVL26:
 195              	.LBB39:
 196              		.loc 1 164 0
 197 0070 0023     		movs	r3, #0
 198              	@ 164 "../../os/hal/platforms/STM32/USARTv2/serial_lld.c" 1
 199 0072 83F31188 		msr     BASEPRI, r3
 200              	@ 0 "" 2
 201              	.LVL27:
 202              		.thumb
 203 0076 CDE7     		b	.L8
 204              	.LVL28:
 205              	.L45:
 206              	.LBE39:
 207              	.LBB40:
 208              	.LBB41:
 209              		.loc 1 130 0
 210 0078 14F0080F 		tst	r4, #8
 211 007c 0CBF     		ite	eq
 212 007e 0021     		moveq	r1, #0
 213 0080 8021     		movne	r1, #128
 214              	.LVL29:
 215              		.loc 1 131 0
 216 0082 E307     		lsls	r3, r4, #31
 217              		.loc 1 132 0
 218 0084 48BF     		it	mi
 219 0086 41F02001 		orrmi	r1, r1, #32
 220              	.LVL30:
 221              		.loc 1 133 0
 222 008a A007     		lsls	r0, r4, #30
 223              		.loc 1 134 0
 224 008c 48BF     		it	mi
 225 008e 41F04001 		orrmi	r1, r1, #64
ARM GAS  /tmp/ccgFERJb.s 			page 5


 226              	.LVL31:
 227              		.loc 1 135 0
 228 0092 6207     		lsls	r2, r4, #29
 229              		.loc 1 136 0
 230 0094 48BF     		it	mi
 231 0096 41F48071 		orrmi	r1, r1, #256
 232              	.LVL32:
 233              	.LBB42:
 234              		.loc 1 137 0
 235 009a 2023     		movs	r3, #32
 236              	.LVL33:
 237              	@ 137 "../../os/hal/platforms/STM32/USARTv2/serial_lld.c" 1
 238 009c 83F31188 		msr     BASEPRI, r3
 239              	@ 0 "" 2
 240              	.LVL34:
 241              		.thumb
 242              	.LBE42:
 243              		.loc 1 138 0
 244 00a0 1448     		ldr	r0, .L51+4
 245 00a2 FFF7FEFF 		bl	chEvtBroadcastFlagsI
 246              	.LVL35:
 247              	.LBB43:
 248              		.loc 1 139 0
 249 00a6 0023     		movs	r3, #0
 250              	@ 139 "../../os/hal/platforms/STM32/USARTv2/serial_lld.c" 1
 251 00a8 83F31188 		msr     BASEPRI, r3
 252              	@ 0 "" 2
 253              	.LVL36:
 254              		.thumb
 255 00ac B0E7     		b	.L3
 256              	.LVL37:
 257              	.L48:
 258              	.LBE43:
 259              	.LBE41:
 260              	.LBE40:
 261              	.LBB44:
 262              	.LBB45:
 263              		.loc 1 177 0
 264 00ae 2023     		movs	r3, #32
 265              	.LVL38:
 266              	@ 177 "../../os/hal/platforms/STM32/USARTv2/serial_lld.c" 1
 267 00b0 83F31188 		msr     BASEPRI, r3
 268              	@ 0 "" 2
 269              	.LVL39:
 270              		.thumb
 271              	.LBE45:
 272              		.loc 1 178 0
 273 00b4 1048     		ldr	r0, .L51+8
 274 00b6 FFF7FEFF 		bl	chOQGetI
 275              	.LVL40:
 276              		.loc 1 179 0
 277 00ba 0028     		cmp	r0, #0
 278 00bc 0DDB     		blt	.L50
 279              		.loc 1 184 0
 280 00be 80B2     		uxth	r0, r0
 281              	.LVL41:
 282 00c0 2885     		strh	r0, [r5, #40]	@ movhi
ARM GAS  /tmp/ccgFERJb.s 			page 6


 283              	.L12:
 284              	.LBB46:
 285              		.loc 1 185 0
 286 00c2 0023     		movs	r3, #0
 287              	@ 185 "../../os/hal/platforms/STM32/USARTv2/serial_lld.c" 1
 288 00c4 83F31188 		msr     BASEPRI, r3
 289              	@ 0 "" 2
 290              	.LVL42:
 291              		.thumb
 292 00c8 AAE7     		b	.L10
 293              	.LVL43:
 294              	.L49:
 295              	.LBE46:
 296              	.LBE44:
 297              		.loc 1 191 0
 298 00ca 826B     		ldr	r2, [r0, #56]
 299 00cc 002A     		cmp	r2, #0
 300 00ce B1D0     		beq	.L14
 301              		.loc 1 192 0
 302 00d0 0430     		adds	r0, r0, #4
 303 00d2 1021     		movs	r1, #16
 304 00d4 FFF7FEFF 		bl	chEvtBroadcastFlagsI
 305              	.LVL44:
 306 00d8 ACE7     		b	.L14
 307              	.LVL45:
 308              	.L50:
 309              	.LBB47:
 310              		.loc 1 180 0
 311 00da 0648     		ldr	r0, .L51+4
 312              	.LVL46:
 313 00dc 0821     		movs	r1, #8
 314 00de FFF7FEFF 		bl	chEvtBroadcastFlagsI
 315              	.LVL47:
 316              		.loc 1 181 0
 317 00e2 27F0C003 		bic	r3, r7, #192
 318 00e6 43F04002 		orr	r2, r3, #64
 319 00ea 2A60     		str	r2, [r5, #0]
 320 00ec E9E7     		b	.L12
 321              	.L52:
 322 00ee 00BF     		.align	2
 323              	.L51:
 324 00f0 00000000 		.word	.LANCHOR0
 325 00f4 04000000 		.word	.LANCHOR0+4
 326 00f8 30000000 		.word	.LANCHOR0+48
 327              	.LBE47:
 328              	.LBE48:
 329              	.LBE49:
 330              		.cfi_endproc
 331              	.LFE123:
 332              		.size	VectorD4, .-VectorD4
 333 00fc AFF30080 		.section	.text.sd_lld_init,"ax",%progbits
 334              		.align	2
 335              		.p2align 4,,15
 336              		.global	sd_lld_init
 337              		.thumb
 338              		.thumb_func
 339              		.type	sd_lld_init, %function
ARM GAS  /tmp/ccgFERJb.s 			page 7


 340              	sd_lld_init:
 341              	.LFB124:
 342              		.loc 1 373 0
 343              		.cfi_startproc
 344              		@ args = 0, pretend = 0, frame = 0
 345              		@ frame_needed = 0, uses_anonymous_args = 0
 346 0000 10B5     		push	{r4, lr}
 347              	.LCFI1:
 348              		.cfi_def_cfa_offset 8
 349              		.cfi_offset 4, -8
 350              		.cfi_offset 14, -4
 351              		.loc 1 376 0
 352 0002 40F20004 		movw	r4, #:lower16:.LANCHOR0
 353 0006 C0F20004 		movt	r4, #:upper16:.LANCHOR0
 354 000a 40F20002 		movw	r2, #:lower16:notify1
 355 000e C0F20002 		movt	r2, #:upper16:notify1
 356 0012 2046     		mov	r0, r4
 357 0014 0021     		movs	r1, #0
 358 0016 FFF7FEFF 		bl	sdObjectInit
 359              	.LVL48:
 360              		.loc 1 377 0
 361 001a 4FF46052 		mov	r2, #14336
 362              		.loc 1 378 0
 363 001e 4FF4A243 		mov	r3, #20736
 364              		.loc 1 377 0
 365 0022 C4F20102 		movt	r2, 16385
 366              		.loc 1 378 0
 367 0026 C0F22523 		movt	r3, 549
 368              		.loc 1 377 0
 369 002a 6267     		str	r2, [r4, #116]
 370              		.loc 1 378 0
 371 002c A367     		str	r3, [r4, #120]
 372 002e 10BD     		pop	{r4, pc}
 373              		.cfi_endproc
 374              	.LFE124:
 375              		.size	sd_lld_init, .-sd_lld_init
 376              		.section	.text.sd_lld_start,"ax",%progbits
 377              		.align	2
 378              		.p2align 4,,15
 379              		.global	sd_lld_start
 380              		.thumb
 381              		.thumb_func
 382              		.type	sd_lld_start, %function
 383              	sd_lld_start:
 384              	.LFB125:
 385              		.loc 1 422 0
 386              		.cfi_startproc
 387              		@ args = 0, pretend = 0, frame = 0
 388              		@ frame_needed = 0, uses_anonymous_args = 0
 389              	.LVL49:
 390 0000 F8B5     		push	{r3, r4, r5, r6, r7, lr}
 391              	.LCFI2:
 392              		.cfi_def_cfa_offset 24
 393              		.cfi_offset 3, -24
 394              		.cfi_offset 4, -20
 395              		.cfi_offset 5, -16
 396              		.cfi_offset 6, -12
ARM GAS  /tmp/ccgFERJb.s 			page 8


 397              		.cfi_offset 7, -8
 398              		.cfi_offset 14, -4
 399              		.loc 1 427 0
 400 0002 037A     		ldrb	r3, [r0, #8]	@ zero_extendqisi2
 401              		.loc 1 425 0
 402 0004 174C     		ldr	r4, .L59
 403 0006 0029     		cmp	r1, #0
 404 0008 18BF     		it	ne
 405 000a 0C46     		movne	r4, r1
 406              		.loc 1 427 0
 407 000c 012B     		cmp	r3, #1
 408              		.loc 1 422 0
 409 000e 0546     		mov	r5, r0
 410              		.loc 1 427 0
 411 0010 18D0     		beq	.L58
 412              	.LVL50:
 413              	.L56:
 414              	.LBB50:
 415              	.LBB51:
 416              		.loc 1 96 0
 417 0012 AF6F     		ldr	r7, [r5, #120]
 418 0014 2668     		ldr	r6, [r4, #0]
 419              		.loc 1 102 0
 420 0016 6268     		ldr	r2, [r4, #4]
 421              		.loc 1 99 0
 422 0018 A068     		ldr	r0, [r4, #8]
 423              		.loc 1 100 0
 424 001a E168     		ldr	r1, [r4, #12]
 425              		.loc 1 93 0
 426 001c 6B6F     		ldr	r3, [r5, #116]
 427              	.LVL51:
 428              		.loc 1 96 0
 429 001e B7FBF6F4 		udiv	r4, r7, r6
 430              		.loc 1 99 0
 431 0022 40F04000 		orr	r0, r0, #64
 432              		.loc 1 102 0
 433 0026 42F49672 		orr	r2, r2, #300
 434              		.loc 1 96 0
 435 002a A4B2     		uxth	r4, r4
 436 002c 9C81     		strh	r4, [r3, #12]	@ movhi
 437              		.loc 1 100 0
 438 002e 41F00101 		orr	r1, r1, #1
 439              		.loc 1 99 0
 440 0032 5860     		str	r0, [r3, #4]
 441              		.loc 1 102 0
 442 0034 42F00102 		orr	r2, r2, #1
 443              		.loc 1 104 0
 444 0038 4FF0FF30 		mov	r0, #-1
 445              		.loc 1 100 0
 446 003c 9960     		str	r1, [r3, #8]
 447              		.loc 1 101 0
 448 003e 1A60     		str	r2, [r3, #0]
 449              		.loc 1 104 0
 450 0040 1862     		str	r0, [r3, #32]
 451 0042 F8BD     		pop	{r3, r4, r5, r6, r7, pc}
 452              	.LVL52:
 453              	.L58:
ARM GAS  /tmp/ccgFERJb.s 			page 9


 454              	.LBE51:
 455              	.LBE50:
 456              		.loc 1 429 0
 457 0044 0848     		ldr	r0, .L59+4
 458              	.LVL53:
 459 0046 8542     		cmp	r5, r0
 460 0048 E3D1     		bne	.L56
 461              		.loc 1 430 0
 462 004a 4FF48051 		mov	r1, #4096
 463              	.LVL54:
 464 004e C4F20201 		movt	r1, 16386
 465              		.loc 1 431 0
 466 0052 2520     		movs	r0, #37
 467              		.loc 1 430 0
 468 0054 8A69     		ldr	r2, [r1, #24]
 469 0056 42F48046 		orr	r6, r2, #16384
 470 005a 8E61     		str	r6, [r1, #24]
 471              		.loc 1 431 0
 472 005c C021     		movs	r1, #192
 473 005e FFF7FEFF 		bl	nvicEnableVector
 474              	.LVL55:
 475 0062 D6E7     		b	.L56
 476              	.L60:
 477              		.align	2
 478              	.L59:
 479 0064 00000000 		.word	.LANCHOR1
 480 0068 00000000 		.word	.LANCHOR0
 481              		.cfi_endproc
 482              	.LFE125:
 483              		.size	sd_lld_start, .-sd_lld_start
 484 006c AFF30080 		.section	.text.sd_lld_stop,"ax",%progbits
 485              		.align	2
 486              		.p2align 4,,15
 487              		.global	sd_lld_stop
 488              		.thumb
 489              		.thumb_func
 490              		.type	sd_lld_stop, %function
 491              	sd_lld_stop:
 492              	.LFB126:
 493              		.loc 1 483 0
 494              		.cfi_startproc
 495              		@ args = 0, pretend = 0, frame = 0
 496              		@ frame_needed = 0, uses_anonymous_args = 0
 497              		@ link register save eliminated.
 498              	.LVL56:
 499              		.loc 1 485 0
 500 0000 037A     		ldrb	r3, [r0, #8]	@ zero_extendqisi2
 501 0002 022B     		cmp	r3, #2
 502 0004 00D0     		beq	.L65
 503              	.L61:
 504 0006 7047     		bx	lr
 505              	.L65:
 506              		.loc 1 488 0
 507 0008 094B     		ldr	r3, .L66
 508              		.loc 1 486 0
 509 000a 416F     		ldr	r1, [r0, #116]
 510              	.LVL57:
ARM GAS  /tmp/ccgFERJb.s 			page 10


 511              	.LBB52:
 512              	.LBB53:
 513              		.loc 1 115 0
 514 000c 0022     		movs	r2, #0
 515              	.LBE53:
 516              	.LBE52:
 517              		.loc 1 488 0
 518 000e 9842     		cmp	r0, r3
 519              	.LBB55:
 520              	.LBB54:
 521              		.loc 1 115 0
 522 0010 0A60     		str	r2, [r1, #0]
 523              		.loc 1 116 0
 524 0012 4A60     		str	r2, [r1, #4]
 525              		.loc 1 117 0
 526 0014 8A60     		str	r2, [r1, #8]
 527              	.LBE54:
 528              	.LBE55:
 529              		.loc 1 488 0
 530 0016 F6D1     		bne	.L61
 531              		.loc 1 489 0
 532 0018 4FF48051 		mov	r1, #4096
 533              	.LVL58:
 534 001c C4F20201 		movt	r1, 16386
 535              		.loc 1 490 0
 536 0020 2520     		movs	r0, #37
 537              	.LVL59:
 538              		.loc 1 489 0
 539 0022 8A69     		ldr	r2, [r1, #24]
 540 0024 22F48043 		bic	r3, r2, #16384
 541 0028 8B61     		str	r3, [r1, #24]
 542              		.loc 1 530 0
 543              		.loc 1 490 0
 544 002a FFF7FEBF 		b	nvicDisableVector
 545              	.LVL60:
 546              	.L67:
 547 002e 00BF     		.align	2
 548              	.L66:
 549 0030 00000000 		.word	.LANCHOR0
 550              		.cfi_endproc
 551              	.LFE126:
 552              		.size	sd_lld_stop, .-sd_lld_stop
 553              		.global	SD1
 554 0034 AFF30080 		.section	.rodata.default_config,"a",%progbits
 554      AFF30080 
 554      AFF30080 
 555              		.align	2
 556              		.set	.LANCHOR1,. + 0
 557              		.type	default_config, %object
 558              		.size	default_config, 16
 559              	default_config:
 560 0000 00960000 		.word	38400
 561 0004 00000000 		.word	0
 562 0008 00400000 		.word	16384
 563 000c 00000000 		.word	0
 564              		.section	.bss.SD1,"aw",%nobits
 565              		.align	2
ARM GAS  /tmp/ccgFERJb.s 			page 11


 566              		.set	.LANCHOR0,. + 0
 567              		.type	SD1, %object
 568              		.size	SD1, 124
 569              	SD1:
 570 0000 00000000 		.space	124
 570      00000000 
 570      00000000 
 570      00000000 
 570      00000000 
 571              		.text
 572              	.Letext0:
 573              		.file 2 "/opt/ChibiStudio/tools/gcc-arm-none-eabi-4_7-2013q1/bin/../lib/gcc/arm-none-eabi/4.7.3/in
 574              		.file 3 "/opt/ChibiStudio/tools/gcc-arm-none-eabi-4_7-2013q1/bin/../lib/gcc/arm-none-eabi/4.7.3/..
 575              		.file 4 "../../os/ports/GCC/ARMCMx/chtypes.h"
 576              		.file 5 "../../os/kernel/include/chlists.h"
 577              		.file 6 "../../os/kernel/include/chthreads.h"
 578              		.file 7 "../../os/ports/GCC/ARMCMx/chcore_v7m.h"
 579              		.file 8 "../../os/kernel/include/chmtx.h"
 580              		.file 9 "../../os/kernel/include/chevents.h"
 581              		.file 10 "../../os/kernel/include/chqueues.h"
 582              		.file 11 "../../os/hal/platforms/STM32F30x/stm32f30x.h"
 583              		.file 12 "../../os/hal/include/serial.h"
 584              		.file 13 "../../os/hal/platforms/STM32/USARTv2/serial_lld.h"
 585              		.file 14 "../../os/ports/common/ARMCMx/nvic.h"
 586              		.file 15 "../../os/ports/common/ARMCMx/CMSIS/include/core_cm4.h"
 587              		.section	.debug_info,"",%progbits
 588              	.Ldebug_info0:
 589 0000 54100000 		.4byte	0x1054
 590 0004 0200     		.2byte	0x2
 591 0006 00000000 		.4byte	.Ldebug_abbrev0
 592 000a 04       		.byte	0x4
 593 000b 01       		.uleb128 0x1
 594 000c 47020000 		.4byte	.LASF132
 595 0010 01       		.byte	0x1
 596 0011 D0040000 		.4byte	.LASF133
 597 0015 B1010000 		.4byte	.LASF134
 598 0019 60000000 		.4byte	.Ldebug_ranges0+0x60
 599 001d 00000000 		.4byte	0
 600 0021 00000000 		.4byte	0
 601 0025 00000000 		.4byte	.Ldebug_line0
 602 0029 02       		.uleb128 0x2
 603 002a 04       		.byte	0x4
 604 002b 05       		.byte	0x5
 605 002c 696E7400 		.ascii	"int\000"
 606 0030 03       		.uleb128 0x3
 607 0031 00000000 		.4byte	.LASF2
 608 0035 02       		.byte	0x2
 609 0036 D5       		.byte	0xd5
 610 0037 3B000000 		.4byte	0x3b
 611 003b 04       		.uleb128 0x4
 612 003c 04       		.byte	0x4
 613 003d 07       		.byte	0x7
 614 003e 6D010000 		.4byte	.LASF0
 615 0042 04       		.uleb128 0x4
 616 0043 01       		.byte	0x1
 617 0044 06       		.byte	0x6
 618 0045 8D000000 		.4byte	.LASF1
ARM GAS  /tmp/ccgFERJb.s 			page 12


 619 0049 03       		.uleb128 0x3
 620 004a 68050000 		.4byte	.LASF3
 621 004e 03       		.byte	0x3
 622 004f 2A       		.byte	0x2a
 623 0050 54000000 		.4byte	0x54
 624 0054 04       		.uleb128 0x4
 625 0055 01       		.byte	0x1
 626 0056 08       		.byte	0x8
 627 0057 9C030000 		.4byte	.LASF4
 628 005b 04       		.uleb128 0x4
 629 005c 02       		.byte	0x2
 630 005d 05       		.byte	0x5
 631 005e DE030000 		.4byte	.LASF5
 632 0062 03       		.uleb128 0x3
 633 0063 7A010000 		.4byte	.LASF6
 634 0067 03       		.byte	0x3
 635 0068 36       		.byte	0x36
 636 0069 6D000000 		.4byte	0x6d
 637 006d 04       		.uleb128 0x4
 638 006e 02       		.byte	0x2
 639 006f 07       		.byte	0x7
 640 0070 F7010000 		.4byte	.LASF7
 641 0074 03       		.uleb128 0x3
 642 0075 94030000 		.4byte	.LASF8
 643 0079 03       		.byte	0x3
 644 007a 4F       		.byte	0x4f
 645 007b 7F000000 		.4byte	0x7f
 646 007f 04       		.uleb128 0x4
 647 0080 04       		.byte	0x4
 648 0081 05       		.byte	0x5
 649 0082 E0000000 		.4byte	.LASF9
 650 0086 03       		.uleb128 0x3
 651 0087 4F040000 		.4byte	.LASF10
 652 008b 03       		.byte	0x3
 653 008c 50       		.byte	0x50
 654 008d 91000000 		.4byte	0x91
 655 0091 04       		.uleb128 0x4
 656 0092 04       		.byte	0x4
 657 0093 07       		.byte	0x7
 658 0094 81040000 		.4byte	.LASF11
 659 0098 04       		.uleb128 0x4
 660 0099 08       		.byte	0x8
 661 009a 05       		.byte	0x5
 662 009b 7F000000 		.4byte	.LASF12
 663 009f 04       		.uleb128 0x4
 664 00a0 08       		.byte	0x8
 665 00a1 07       		.byte	0x7
 666 00a2 35000000 		.4byte	.LASF13
 667 00a6 03       		.uleb128 0x3
 668 00a7 A6000000 		.4byte	.LASF14
 669 00ab 04       		.byte	0x4
 670 00ac 2B       		.byte	0x2b
 671 00ad B1000000 		.4byte	0xb1
 672 00b1 04       		.uleb128 0x4
 673 00b2 01       		.byte	0x1
 674 00b3 02       		.byte	0x2
 675 00b4 8E030000 		.4byte	.LASF15
ARM GAS  /tmp/ccgFERJb.s 			page 13


 676 00b8 03       		.uleb128 0x3
 677 00b9 3F020000 		.4byte	.LASF16
 678 00bd 04       		.byte	0x4
 679 00be 2C       		.byte	0x2c
 680 00bf 49000000 		.4byte	0x49
 681 00c3 03       		.uleb128 0x3
 682 00c4 EE000000 		.4byte	.LASF17
 683 00c8 04       		.byte	0x4
 684 00c9 2D       		.byte	0x2d
 685 00ca 49000000 		.4byte	0x49
 686 00ce 03       		.uleb128 0x3
 687 00cf 47030000 		.4byte	.LASF18
 688 00d3 04       		.byte	0x4
 689 00d4 2E       		.byte	0x2e
 690 00d5 49000000 		.4byte	0x49
 691 00d9 03       		.uleb128 0x3
 692 00da B5000000 		.4byte	.LASF19
 693 00de 04       		.byte	0x4
 694 00df 2F       		.byte	0x2f
 695 00e0 49000000 		.4byte	0x49
 696 00e4 03       		.uleb128 0x3
 697 00e5 7E030000 		.4byte	.LASF20
 698 00e9 04       		.byte	0x4
 699 00ea 30       		.byte	0x30
 700 00eb 86000000 		.4byte	0x86
 701 00ef 03       		.uleb128 0x3
 702 00f0 0A020000 		.4byte	.LASF21
 703 00f4 04       		.byte	0x4
 704 00f5 31       		.byte	0x31
 705 00f6 74000000 		.4byte	0x74
 706 00fa 03       		.uleb128 0x3
 707 00fb 9C020000 		.4byte	.LASF22
 708 00ff 04       		.byte	0x4
 709 0100 33       		.byte	0x33
 710 0101 86000000 		.4byte	0x86
 711 0105 03       		.uleb128 0x3
 712 0106 27050000 		.4byte	.LASF23
 713 010a 04       		.byte	0x4
 714 010b 34       		.byte	0x34
 715 010c 86000000 		.4byte	0x86
 716 0110 03       		.uleb128 0x3
 717 0111 BB040000 		.4byte	.LASF24
 718 0115 04       		.byte	0x4
 719 0116 35       		.byte	0x35
 720 0117 86000000 		.4byte	0x86
 721 011b 03       		.uleb128 0x3
 722 011c 19040000 		.4byte	.LASF25
 723 0120 05       		.byte	0x5
 724 0121 2A       		.byte	0x2a
 725 0122 26010000 		.4byte	0x126
 726 0126 05       		.uleb128 0x5
 727 0127 19040000 		.4byte	.LASF25
 728 012b 48       		.byte	0x48
 729 012c 06       		.byte	0x6
 730 012d 5E       		.byte	0x5e
 731 012e 4B020000 		.4byte	0x24b
 732 0132 06       		.uleb128 0x6
ARM GAS  /tmp/ccgFERJb.s 			page 14


 733 0133 FD020000 		.4byte	.LASF26
 734 0137 06       		.byte	0x6
 735 0138 5F       		.byte	0x5f
 736 0139 70020000 		.4byte	0x270
 737 013d 02       		.byte	0x2
 738 013e 23       		.byte	0x23
 739 013f 00       		.uleb128 0
 740 0140 06       		.uleb128 0x6
 741 0141 77030000 		.4byte	.LASF27
 742 0145 06       		.byte	0x6
 743 0146 61       		.byte	0x61
 744 0147 70020000 		.4byte	0x270
 745 014b 02       		.byte	0x2
 746 014c 23       		.byte	0x23
 747 014d 04       		.uleb128 0x4
 748 014e 06       		.uleb128 0x6
 749 014f 7B050000 		.4byte	.LASF28
 750 0153 06       		.byte	0x6
 751 0154 63       		.byte	0x63
 752 0155 E4000000 		.4byte	0xe4
 753 0159 02       		.byte	0x2
 754 015a 23       		.byte	0x23
 755 015b 08       		.uleb128 0x8
 756 015c 06       		.uleb128 0x6
 757 015d BD050000 		.4byte	.LASF29
 758 0161 06       		.byte	0x6
 759 0162 64       		.byte	0x64
 760 0163 3E030000 		.4byte	0x33e
 761 0167 02       		.byte	0x2
 762 0168 23       		.byte	0x23
 763 0169 0C       		.uleb128 0xc
 764 016a 06       		.uleb128 0x6
 765 016b 34010000 		.4byte	.LASF30
 766 016f 06       		.byte	0x6
 767 0170 66       		.byte	0x66
 768 0171 70020000 		.4byte	0x270
 769 0175 02       		.byte	0x2
 770 0176 23       		.byte	0x23
 771 0177 10       		.uleb128 0x10
 772 0178 06       		.uleb128 0x6
 773 0179 04030000 		.4byte	.LASF31
 774 017d 06       		.byte	0x6
 775 017e 67       		.byte	0x67
 776 017f 70020000 		.4byte	0x270
 777 0183 02       		.byte	0x2
 778 0184 23       		.byte	0x23
 779 0185 14       		.uleb128 0x14
 780 0186 06       		.uleb128 0x6
 781 0187 39050000 		.4byte	.LASF32
 782 018b 06       		.byte	0x6
 783 018c 6E       		.byte	0x6e
 784 018d 6B040000 		.4byte	0x46b
 785 0191 02       		.byte	0x2
 786 0192 23       		.byte	0x23
 787 0193 18       		.uleb128 0x18
 788 0194 06       		.uleb128 0x6
 789 0195 CC030000 		.4byte	.LASF33
ARM GAS  /tmp/ccgFERJb.s 			page 15


 790 0199 06       		.byte	0x6
 791 019a 79       		.byte	0x79
 792 019b C3000000 		.4byte	0xc3
 793 019f 02       		.byte	0x2
 794 01a0 23       		.byte	0x23
 795 01a1 1C       		.uleb128 0x1c
 796 01a2 06       		.uleb128 0x6
 797 01a3 F9030000 		.4byte	.LASF34
 798 01a7 06       		.byte	0x6
 799 01a8 7D       		.byte	0x7d
 800 01a9 B8000000 		.4byte	0xb8
 801 01ad 02       		.byte	0x2
 802 01ae 23       		.byte	0x23
 803 01af 1D       		.uleb128 0x1d
 804 01b0 06       		.uleb128 0x6
 805 01b1 00010000 		.4byte	.LASF35
 806 01b5 06       		.byte	0x6
 807 01b6 82       		.byte	0x82
 808 01b7 CE000000 		.4byte	0xce
 809 01bb 02       		.byte	0x2
 810 01bc 23       		.byte	0x23
 811 01bd 1E       		.uleb128 0x1e
 812 01be 06       		.uleb128 0x6
 813 01bf E8030000 		.4byte	.LASF36
 814 01c3 06       		.byte	0x6
 815 01c4 88       		.byte	0x88
 816 01c5 D9000000 		.4byte	0xd9
 817 01c9 02       		.byte	0x2
 818 01ca 23       		.byte	0x23
 819 01cb 1F       		.uleb128 0x1f
 820 01cc 06       		.uleb128 0x6
 821 01cd 18010000 		.4byte	.LASF37
 822 01d1 06       		.byte	0x6
 823 01d2 8F       		.byte	0x8f
 824 01d3 6D030000 		.4byte	0x36d
 825 01d7 02       		.byte	0x2
 826 01d8 23       		.byte	0x23
 827 01d9 20       		.uleb128 0x20
 828 01da 07       		.uleb128 0x7
 829 01db 705F7500 		.ascii	"p_u\000"
 830 01df 06       		.byte	0x6
 831 01e0 B4       		.byte	0xb4
 832 01e1 36040000 		.4byte	0x436
 833 01e5 02       		.byte	0x2
 834 01e6 23       		.byte	0x23
 835 01e7 24       		.uleb128 0x24
 836 01e8 06       		.uleb128 0x6
 837 01e9 C3050000 		.4byte	.LASF38
 838 01ed 06       		.byte	0x6
 839 01ee B9       		.byte	0xb9
 840 01ef 98020000 		.4byte	0x298
 841 01f3 02       		.byte	0x2
 842 01f4 23       		.byte	0x23
 843 01f5 28       		.uleb128 0x28
 844 01f6 06       		.uleb128 0x6
 845 01f7 9A010000 		.4byte	.LASF39
 846 01fb 06       		.byte	0x6
ARM GAS  /tmp/ccgFERJb.s 			page 16


 847 01fc BF       		.byte	0xbf
 848 01fd 76020000 		.4byte	0x276
 849 0201 02       		.byte	0x2
 850 0202 23       		.byte	0x23
 851 0203 2C       		.uleb128 0x2c
 852 0204 06       		.uleb128 0x6
 853 0205 56050000 		.4byte	.LASF40
 854 0209 06       		.byte	0x6
 855 020a C3       		.byte	0xc3
 856 020b EF000000 		.4byte	0xef
 857 020f 02       		.byte	0x2
 858 0210 23       		.byte	0x23
 859 0211 34       		.uleb128 0x34
 860 0212 06       		.uleb128 0x6
 861 0213 30040000 		.4byte	.LASF41
 862 0217 06       		.byte	0x6
 863 0218 C9       		.byte	0xc9
 864 0219 FA000000 		.4byte	0xfa
 865 021d 02       		.byte	0x2
 866 021e 23       		.byte	0x23
 867 021f 38       		.uleb128 0x38
 868 0220 06       		.uleb128 0x6
 869 0221 D4030000 		.4byte	.LASF42
 870 0225 06       		.byte	0x6
 871 0226 D0       		.byte	0xd0
 872 0227 7D040000 		.4byte	0x47d
 873 022b 02       		.byte	0x2
 874 022c 23       		.byte	0x23
 875 022d 3C       		.uleb128 0x3c
 876 022e 06       		.uleb128 0x6
 877 022f C5040000 		.4byte	.LASF43
 878 0233 06       		.byte	0x6
 879 0234 D4       		.byte	0xd4
 880 0235 E4000000 		.4byte	0xe4
 881 0239 02       		.byte	0x2
 882 023a 23       		.byte	0x23
 883 023b 40       		.uleb128 0x40
 884 023c 06       		.uleb128 0x6
 885 023d 9E000000 		.4byte	.LASF44
 886 0241 06       		.byte	0x6
 887 0242 DA       		.byte	0xda
 888 0243 AE020000 		.4byte	0x2ae
 889 0247 02       		.byte	0x2
 890 0248 23       		.byte	0x23
 891 0249 44       		.uleb128 0x44
 892 024a 00       		.byte	0
 893 024b 08       		.uleb128 0x8
 894 024c 08       		.byte	0x8
 895 024d 05       		.byte	0x5
 896 024e 61       		.byte	0x61
 897 024f 70020000 		.4byte	0x270
 898 0253 06       		.uleb128 0x6
 899 0254 FD020000 		.4byte	.LASF26
 900 0258 05       		.byte	0x5
 901 0259 62       		.byte	0x62
 902 025a 70020000 		.4byte	0x270
 903 025e 02       		.byte	0x2
ARM GAS  /tmp/ccgFERJb.s 			page 17


 904 025f 23       		.byte	0x23
 905 0260 00       		.uleb128 0
 906 0261 06       		.uleb128 0x6
 907 0262 77030000 		.4byte	.LASF27
 908 0266 05       		.byte	0x5
 909 0267 64       		.byte	0x64
 910 0268 70020000 		.4byte	0x270
 911 026c 02       		.byte	0x2
 912 026d 23       		.byte	0x23
 913 026e 04       		.uleb128 0x4
 914 026f 00       		.byte	0
 915 0270 09       		.uleb128 0x9
 916 0271 04       		.byte	0x4
 917 0272 1B010000 		.4byte	0x11b
 918 0276 03       		.uleb128 0x3
 919 0277 0C030000 		.4byte	.LASF45
 920 027b 05       		.byte	0x5
 921 027c 66       		.byte	0x66
 922 027d 4B020000 		.4byte	0x24b
 923 0281 08       		.uleb128 0x8
 924 0282 04       		.byte	0x4
 925 0283 05       		.byte	0x5
 926 0284 6B       		.byte	0x6b
 927 0285 98020000 		.4byte	0x298
 928 0289 06       		.uleb128 0x6
 929 028a FD020000 		.4byte	.LASF26
 930 028e 05       		.byte	0x5
 931 028f 6D       		.byte	0x6d
 932 0290 70020000 		.4byte	0x270
 933 0294 02       		.byte	0x2
 934 0295 23       		.byte	0x23
 935 0296 00       		.uleb128 0
 936 0297 00       		.byte	0
 937 0298 03       		.uleb128 0x3
 938 0299 90020000 		.4byte	.LASF46
 939 029d 05       		.byte	0x5
 940 029e 70       		.byte	0x70
 941 029f 81020000 		.4byte	0x281
 942 02a3 03       		.uleb128 0x3
 943 02a4 3C010000 		.4byte	.LASF47
 944 02a8 07       		.byte	0x7
 945 02a9 E5       		.byte	0xe5
 946 02aa AE020000 		.4byte	0x2ae
 947 02ae 0A       		.uleb128 0xa
 948 02af 04       		.byte	0x4
 949 02b0 0B       		.uleb128 0xb
 950 02b1 17050000 		.4byte	.LASF48
 951 02b5 24       		.byte	0x24
 952 02b6 07       		.byte	0x7
 953 02b7 0C01     		.2byte	0x10c
 954 02b9 3E030000 		.4byte	0x33e
 955 02bd 0C       		.uleb128 0xc
 956 02be 723400   		.ascii	"r4\000"
 957 02c1 07       		.byte	0x7
 958 02c2 1F01     		.2byte	0x11f
 959 02c4 A3020000 		.4byte	0x2a3
 960 02c8 02       		.byte	0x2
ARM GAS  /tmp/ccgFERJb.s 			page 18


 961 02c9 23       		.byte	0x23
 962 02ca 00       		.uleb128 0
 963 02cb 0C       		.uleb128 0xc
 964 02cc 723500   		.ascii	"r5\000"
 965 02cf 07       		.byte	0x7
 966 02d0 2001     		.2byte	0x120
 967 02d2 A3020000 		.4byte	0x2a3
 968 02d6 02       		.byte	0x2
 969 02d7 23       		.byte	0x23
 970 02d8 04       		.uleb128 0x4
 971 02d9 0C       		.uleb128 0xc
 972 02da 723600   		.ascii	"r6\000"
 973 02dd 07       		.byte	0x7
 974 02de 2101     		.2byte	0x121
 975 02e0 A3020000 		.4byte	0x2a3
 976 02e4 02       		.byte	0x2
 977 02e5 23       		.byte	0x23
 978 02e6 08       		.uleb128 0x8
 979 02e7 0C       		.uleb128 0xc
 980 02e8 723700   		.ascii	"r7\000"
 981 02eb 07       		.byte	0x7
 982 02ec 2201     		.2byte	0x122
 983 02ee A3020000 		.4byte	0x2a3
 984 02f2 02       		.byte	0x2
 985 02f3 23       		.byte	0x23
 986 02f4 0C       		.uleb128 0xc
 987 02f5 0C       		.uleb128 0xc
 988 02f6 723800   		.ascii	"r8\000"
 989 02f9 07       		.byte	0x7
 990 02fa 2301     		.2byte	0x123
 991 02fc A3020000 		.4byte	0x2a3
 992 0300 02       		.byte	0x2
 993 0301 23       		.byte	0x23
 994 0302 10       		.uleb128 0x10
 995 0303 0C       		.uleb128 0xc
 996 0304 723900   		.ascii	"r9\000"
 997 0307 07       		.byte	0x7
 998 0308 2401     		.2byte	0x124
 999 030a A3020000 		.4byte	0x2a3
 1000 030e 02       		.byte	0x2
 1001 030f 23       		.byte	0x23
 1002 0310 14       		.uleb128 0x14
 1003 0311 0C       		.uleb128 0xc
 1004 0312 72313000 		.ascii	"r10\000"
 1005 0316 07       		.byte	0x7
 1006 0317 2501     		.2byte	0x125
 1007 0319 A3020000 		.4byte	0x2a3
 1008 031d 02       		.byte	0x2
 1009 031e 23       		.byte	0x23
 1010 031f 18       		.uleb128 0x18
 1011 0320 0C       		.uleb128 0xc
 1012 0321 72313100 		.ascii	"r11\000"
 1013 0325 07       		.byte	0x7
 1014 0326 2601     		.2byte	0x126
 1015 0328 A3020000 		.4byte	0x2a3
 1016 032c 02       		.byte	0x2
 1017 032d 23       		.byte	0x23
ARM GAS  /tmp/ccgFERJb.s 			page 19


 1018 032e 1C       		.uleb128 0x1c
 1019 032f 0C       		.uleb128 0xc
 1020 0330 6C7200   		.ascii	"lr\000"
 1021 0333 07       		.byte	0x7
 1022 0334 2701     		.2byte	0x127
 1023 0336 A3020000 		.4byte	0x2a3
 1024 033a 02       		.byte	0x2
 1025 033b 23       		.byte	0x23
 1026 033c 20       		.uleb128 0x20
 1027 033d 00       		.byte	0
 1028 033e 0B       		.uleb128 0xb
 1029 033f 0F050000 		.4byte	.LASF49
 1030 0343 04       		.byte	0x4
 1031 0344 07       		.byte	0x7
 1032 0345 3101     		.2byte	0x131
 1033 0347 5B030000 		.4byte	0x35b
 1034 034b 0C       		.uleb128 0xc
 1035 034c 72313300 		.ascii	"r13\000"
 1036 0350 07       		.byte	0x7
 1037 0351 3201     		.2byte	0x132
 1038 0353 5B030000 		.4byte	0x35b
 1039 0357 02       		.byte	0x2
 1040 0358 23       		.byte	0x23
 1041 0359 00       		.uleb128 0
 1042 035a 00       		.byte	0
 1043 035b 09       		.uleb128 0x9
 1044 035c 04       		.byte	0x4
 1045 035d B0020000 		.4byte	0x2b0
 1046 0361 0D       		.uleb128 0xd
 1047 0362 86000000 		.4byte	0x86
 1048 0366 04       		.uleb128 0x4
 1049 0367 04       		.byte	0x4
 1050 0368 07       		.byte	0x7
 1051 0369 E4020000 		.4byte	.LASF50
 1052 036d 0D       		.uleb128 0xd
 1053 036e 10010000 		.4byte	0x110
 1054 0372 05       		.uleb128 0x5
 1055 0373 F7020000 		.4byte	.LASF51
 1056 0377 10       		.byte	0x10
 1057 0378 08       		.byte	0x8
 1058 0379 2C       		.byte	0x2c
 1059 037a A9030000 		.4byte	0x3a9
 1060 037e 06       		.uleb128 0x6
 1061 037f AD000000 		.4byte	.LASF52
 1062 0383 08       		.byte	0x8
 1063 0384 2D       		.byte	0x2d
 1064 0385 76020000 		.4byte	0x276
 1065 0389 02       		.byte	0x2
 1066 038a 23       		.byte	0x23
 1067 038b 00       		.uleb128 0
 1068 038c 06       		.uleb128 0x6
 1069 038d B5050000 		.4byte	.LASF53
 1070 0391 08       		.byte	0x8
 1071 0392 2F       		.byte	0x2f
 1072 0393 70020000 		.4byte	0x270
 1073 0397 02       		.byte	0x2
 1074 0398 23       		.byte	0x23
ARM GAS  /tmp/ccgFERJb.s 			page 20


 1075 0399 08       		.uleb128 0x8
 1076 039a 06       		.uleb128 0x6
 1077 039b B4040000 		.4byte	.LASF54
 1078 039f 08       		.byte	0x8
 1079 03a0 31       		.byte	0x31
 1080 03a1 A9030000 		.4byte	0x3a9
 1081 03a5 02       		.byte	0x2
 1082 03a6 23       		.byte	0x23
 1083 03a7 0C       		.uleb128 0xc
 1084 03a8 00       		.byte	0
 1085 03a9 09       		.uleb128 0x9
 1086 03aa 04       		.byte	0x4
 1087 03ab 72030000 		.4byte	0x372
 1088 03af 03       		.uleb128 0x3
 1089 03b0 F7020000 		.4byte	.LASF51
 1090 03b4 08       		.byte	0x8
 1091 03b5 33       		.byte	0x33
 1092 03b6 72030000 		.4byte	0x372
 1093 03ba 03       		.uleb128 0x3
 1094 03bb 82050000 		.4byte	.LASF55
 1095 03bf 09       		.byte	0x9
 1096 03c0 2C       		.byte	0x2c
 1097 03c1 C5030000 		.4byte	0x3c5
 1098 03c5 05       		.uleb128 0x5
 1099 03c6 82050000 		.4byte	.LASF55
 1100 03ca 10       		.byte	0x10
 1101 03cb 09       		.byte	0x9
 1102 03cc 31       		.byte	0x31
 1103 03cd 0A040000 		.4byte	0x40a
 1104 03d1 06       		.uleb128 0x6
 1105 03d2 01040000 		.4byte	.LASF56
 1106 03d6 09       		.byte	0x9
 1107 03d7 32       		.byte	0x32
 1108 03d8 0A040000 		.4byte	0x40a
 1109 03dc 02       		.byte	0x2
 1110 03dd 23       		.byte	0x23
 1111 03de 00       		.uleb128 0
 1112 03df 06       		.uleb128 0x6
 1113 03e0 B7030000 		.4byte	.LASF57
 1114 03e4 09       		.byte	0x9
 1115 03e5 35       		.byte	0x35
 1116 03e6 70020000 		.4byte	0x270
 1117 03ea 02       		.byte	0x2
 1118 03eb 23       		.byte	0x23
 1119 03ec 04       		.uleb128 0x4
 1120 03ed 06       		.uleb128 0x6
 1121 03ee 2A030000 		.4byte	.LASF58
 1122 03f2 09       		.byte	0x9
 1123 03f3 37       		.byte	0x37
 1124 03f4 FA000000 		.4byte	0xfa
 1125 03f8 02       		.byte	0x2
 1126 03f9 23       		.byte	0x23
 1127 03fa 08       		.uleb128 0x8
 1128 03fb 06       		.uleb128 0x6
 1129 03fc C3030000 		.4byte	.LASF59
 1130 0400 09       		.byte	0x9
 1131 0401 3A       		.byte	0x3a
ARM GAS  /tmp/ccgFERJb.s 			page 21


 1132 0402 05010000 		.4byte	0x105
 1133 0406 02       		.byte	0x2
 1134 0407 23       		.byte	0x23
 1135 0408 0C       		.uleb128 0xc
 1136 0409 00       		.byte	0
 1137 040a 09       		.uleb128 0x9
 1138 040b 04       		.byte	0x4
 1139 040c BA030000 		.4byte	0x3ba
 1140 0410 05       		.uleb128 0x5
 1141 0411 5B010000 		.4byte	.LASF60
 1142 0415 04       		.byte	0x4
 1143 0416 09       		.byte	0x9
 1144 0417 41       		.byte	0x41
 1145 0418 2B040000 		.4byte	0x42b
 1146 041c 06       		.uleb128 0x6
 1147 041d 40050000 		.4byte	.LASF61
 1148 0421 09       		.byte	0x9
 1149 0422 42       		.byte	0x42
 1150 0423 0A040000 		.4byte	0x40a
 1151 0427 02       		.byte	0x2
 1152 0428 23       		.byte	0x23
 1153 0429 00       		.uleb128 0
 1154 042a 00       		.byte	0
 1155 042b 03       		.uleb128 0x3
 1156 042c 5B010000 		.4byte	.LASF60
 1157 0430 09       		.byte	0x9
 1158 0431 45       		.byte	0x45
 1159 0432 10040000 		.4byte	0x410
 1160 0436 0E       		.uleb128 0xe
 1161 0437 04       		.byte	0x4
 1162 0438 06       		.byte	0x6
 1163 0439 96       		.byte	0x96
 1164 043a 6B040000 		.4byte	0x46b
 1165 043e 0F       		.uleb128 0xf
 1166 043f 07000000 		.4byte	.LASF62
 1167 0443 06       		.byte	0x6
 1168 0444 9D       		.byte	0x9d
 1169 0445 EF000000 		.4byte	0xef
 1170 0449 0F       		.uleb128 0xf
 1171 044a 4C000000 		.4byte	.LASF63
 1172 044e 06       		.byte	0x6
 1173 044f A4       		.byte	0xa4
 1174 0450 EF000000 		.4byte	0xef
 1175 0454 0F       		.uleb128 0xf
 1176 0455 90050000 		.4byte	.LASF64
 1177 0459 06       		.byte	0x6
 1178 045a AB       		.byte	0xab
 1179 045b AE020000 		.4byte	0x2ae
 1180 045f 0F       		.uleb128 0xf
 1181 0460 F2030000 		.4byte	.LASF65
 1182 0464 06       		.byte	0x6
 1183 0465 B2       		.byte	0xb2
 1184 0466 FA000000 		.4byte	0xfa
 1185 046a 00       		.byte	0
 1186 046b 09       		.uleb128 0x9
 1187 046c 04       		.byte	0x4
 1188 046d 71040000 		.4byte	0x471
ARM GAS  /tmp/ccgFERJb.s 			page 22


 1189 0471 10       		.uleb128 0x10
 1190 0472 76040000 		.4byte	0x476
 1191 0476 04       		.uleb128 0x4
 1192 0477 01       		.byte	0x1
 1193 0478 08       		.byte	0x8
 1194 0479 98040000 		.4byte	.LASF66
 1195 047d 09       		.uleb128 0x9
 1196 047e 04       		.byte	0x4
 1197 047f AF030000 		.4byte	0x3af
 1198 0483 09       		.uleb128 0x9
 1199 0484 04       		.byte	0x4
 1200 0485 89040000 		.4byte	0x489
 1201 0489 11       		.uleb128 0x11
 1202 048a 01       		.byte	0x1
 1203 048b EF000000 		.4byte	0xef
 1204 048f 99040000 		.4byte	0x499
 1205 0493 12       		.uleb128 0x12
 1206 0494 AE020000 		.4byte	0x2ae
 1207 0498 00       		.byte	0
 1208 0499 03       		.uleb128 0x3
 1209 049a C1020000 		.4byte	.LASF67
 1210 049e 0A       		.byte	0xa
 1211 049f 37       		.byte	0x37
 1212 04a0 A4040000 		.4byte	0x4a4
 1213 04a4 05       		.uleb128 0x5
 1214 04a5 C1020000 		.4byte	.LASF67
 1215 04a9 24       		.byte	0x24
 1216 04aa 0A       		.byte	0xa
 1217 04ab 45       		.byte	0x45
 1218 04ac 21050000 		.4byte	0x521
 1219 04b0 06       		.uleb128 0x6
 1220 04b1 75000000 		.4byte	.LASF68
 1221 04b5 0A       		.byte	0xa
 1222 04b6 46       		.byte	0x46
 1223 04b7 76020000 		.4byte	0x276
 1224 04bb 02       		.byte	0x2
 1225 04bc 23       		.byte	0x23
 1226 04bd 00       		.uleb128 0
 1227 04be 06       		.uleb128 0x6
 1228 04bf ED020000 		.4byte	.LASF69
 1229 04c3 0A       		.byte	0xa
 1230 04c4 47       		.byte	0x47
 1231 04c5 30000000 		.4byte	0x30
 1232 04c9 02       		.byte	0x2
 1233 04ca 23       		.byte	0x23
 1234 04cb 08       		.uleb128 0x8
 1235 04cc 06       		.uleb128 0x6
 1236 04cd 07010000 		.4byte	.LASF70
 1237 04d1 0A       		.byte	0xa
 1238 04d2 48       		.byte	0x48
 1239 04d3 44050000 		.4byte	0x544
 1240 04d7 02       		.byte	0x2
 1241 04d8 23       		.byte	0x23
 1242 04d9 0C       		.uleb128 0xc
 1243 04da 06       		.uleb128 0x6
 1244 04db 33050000 		.4byte	.LASF71
 1245 04df 0A       		.byte	0xa
ARM GAS  /tmp/ccgFERJb.s 			page 23


 1246 04e0 49       		.byte	0x49
 1247 04e1 44050000 		.4byte	0x544
 1248 04e5 02       		.byte	0x2
 1249 04e6 23       		.byte	0x23
 1250 04e7 10       		.uleb128 0x10
 1251 04e8 06       		.uleb128 0x6
 1252 04e9 10010000 		.4byte	.LASF72
 1253 04ed 0A       		.byte	0xa
 1254 04ee 4B       		.byte	0x4b
 1255 04ef 44050000 		.4byte	0x544
 1256 04f3 02       		.byte	0x2
 1257 04f4 23       		.byte	0x23
 1258 04f5 14       		.uleb128 0x14
 1259 04f6 06       		.uleb128 0x6
 1260 04f7 86030000 		.4byte	.LASF73
 1261 04fb 0A       		.byte	0xa
 1262 04fc 4C       		.byte	0x4c
 1263 04fd 44050000 		.4byte	0x544
 1264 0501 02       		.byte	0x2
 1265 0502 23       		.byte	0x23
 1266 0503 18       		.uleb128 0x18
 1267 0504 06       		.uleb128 0x6
 1268 0505 4D050000 		.4byte	.LASF74
 1269 0509 0A       		.byte	0xa
 1270 050a 4D       		.byte	0x4d
 1271 050b 21050000 		.4byte	0x521
 1272 050f 02       		.byte	0x2
 1273 0510 23       		.byte	0x23
 1274 0511 1C       		.uleb128 0x1c
 1275 0512 06       		.uleb128 0x6
 1276 0513 AE050000 		.4byte	.LASF75
 1277 0517 0A       		.byte	0xa
 1278 0518 4E       		.byte	0x4e
 1279 0519 AE020000 		.4byte	0x2ae
 1280 051d 02       		.byte	0x2
 1281 051e 23       		.byte	0x23
 1282 051f 20       		.uleb128 0x20
 1283 0520 00       		.byte	0
 1284 0521 03       		.uleb128 0x3
 1285 0522 B7020000 		.4byte	.LASF76
 1286 0526 0A       		.byte	0xa
 1287 0527 3A       		.byte	0x3a
 1288 0528 2C050000 		.4byte	0x52c
 1289 052c 09       		.uleb128 0x9
 1290 052d 04       		.byte	0x4
 1291 052e 32050000 		.4byte	0x532
 1292 0532 13       		.uleb128 0x13
 1293 0533 01       		.byte	0x1
 1294 0534 3E050000 		.4byte	0x53e
 1295 0538 12       		.uleb128 0x12
 1296 0539 3E050000 		.4byte	0x53e
 1297 053d 00       		.byte	0
 1298 053e 09       		.uleb128 0x9
 1299 053f 04       		.byte	0x4
 1300 0540 99040000 		.4byte	0x499
 1301 0544 09       		.uleb128 0x9
 1302 0545 04       		.byte	0x4
ARM GAS  /tmp/ccgFERJb.s 			page 24


 1303 0546 49000000 		.4byte	0x49
 1304 054a 03       		.uleb128 0x3
 1305 054b 70050000 		.4byte	.LASF77
 1306 054f 0A       		.byte	0xa
 1307 0550 82       		.byte	0x82
 1308 0551 99040000 		.4byte	0x499
 1309 0555 03       		.uleb128 0x3
 1310 0556 0E000000 		.4byte	.LASF78
 1311 055a 0A       		.byte	0xa
 1312 055b F5       		.byte	0xf5
 1313 055c 99040000 		.4byte	0x499
 1314 0560 11       		.uleb128 0x11
 1315 0561 01       		.byte	0x1
 1316 0562 30000000 		.4byte	0x30
 1317 0566 7A050000 		.4byte	0x57a
 1318 056a 12       		.uleb128 0x12
 1319 056b AE020000 		.4byte	0x2ae
 1320 056f 12       		.uleb128 0x12
 1321 0570 7A050000 		.4byte	0x57a
 1322 0574 12       		.uleb128 0x12
 1323 0575 30000000 		.4byte	0x30
 1324 0579 00       		.byte	0
 1325 057a 09       		.uleb128 0x9
 1326 057b 04       		.byte	0x4
 1327 057c 80050000 		.4byte	0x580
 1328 0580 10       		.uleb128 0x10
 1329 0581 49000000 		.4byte	0x49
 1330 0585 09       		.uleb128 0x9
 1331 0586 04       		.byte	0x4
 1332 0587 60050000 		.4byte	0x560
 1333 058b 11       		.uleb128 0x11
 1334 058c 01       		.byte	0x1
 1335 058d 30000000 		.4byte	0x30
 1336 0591 A5050000 		.4byte	0x5a5
 1337 0595 12       		.uleb128 0x12
 1338 0596 AE020000 		.4byte	0x2ae
 1339 059a 12       		.uleb128 0x12
 1340 059b 44050000 		.4byte	0x544
 1341 059f 12       		.uleb128 0x12
 1342 05a0 30000000 		.4byte	0x30
 1343 05a4 00       		.byte	0
 1344 05a5 09       		.uleb128 0x9
 1345 05a6 04       		.byte	0x4
 1346 05a7 8B050000 		.4byte	0x58b
 1347 05ab 11       		.uleb128 0x11
 1348 05ac 01       		.byte	0x1
 1349 05ad EF000000 		.4byte	0xef
 1350 05b1 C0050000 		.4byte	0x5c0
 1351 05b5 12       		.uleb128 0x12
 1352 05b6 AE020000 		.4byte	0x2ae
 1353 05ba 12       		.uleb128 0x12
 1354 05bb 49000000 		.4byte	0x49
 1355 05bf 00       		.byte	0
 1356 05c0 09       		.uleb128 0x9
 1357 05c1 04       		.byte	0x4
 1358 05c2 AB050000 		.4byte	0x5ab
 1359 05c6 0D       		.uleb128 0xd
ARM GAS  /tmp/ccgFERJb.s 			page 25


 1360 05c7 62000000 		.4byte	0x62
 1361 05cb 0D       		.uleb128 0xd
 1362 05cc 74000000 		.4byte	0x74
 1363 05d0 14       		.uleb128 0x14
 1364 05d1 34       		.byte	0x34
 1365 05d2 0B       		.byte	0xb
 1366 05d3 8502     		.2byte	0x285
 1367 05d5 9C060000 		.4byte	0x69c
 1368 05d9 0C       		.uleb128 0xc
 1369 05da 435200   		.ascii	"CR\000"
 1370 05dd 0B       		.byte	0xb
 1371 05de 8702     		.2byte	0x287
 1372 05e0 61030000 		.4byte	0x361
 1373 05e4 02       		.byte	0x2
 1374 05e5 23       		.byte	0x23
 1375 05e6 00       		.uleb128 0
 1376 05e7 15       		.uleb128 0x15
 1377 05e8 97050000 		.4byte	.LASF79
 1378 05ec 0B       		.byte	0xb
 1379 05ed 8802     		.2byte	0x288
 1380 05ef 61030000 		.4byte	0x361
 1381 05f3 02       		.byte	0x2
 1382 05f4 23       		.byte	0x23
 1383 05f5 04       		.uleb128 0x4
 1384 05f6 0C       		.uleb128 0xc
 1385 05f7 43495200 		.ascii	"CIR\000"
 1386 05fb 0B       		.byte	0xb
 1387 05fc 8902     		.2byte	0x289
 1388 05fe 61030000 		.4byte	0x361
 1389 0602 02       		.byte	0x2
 1390 0603 23       		.byte	0x23
 1391 0604 08       		.uleb128 0x8
 1392 0605 15       		.uleb128 0x15
 1393 0606 45010000 		.4byte	.LASF80
 1394 060a 0B       		.byte	0xb
 1395 060b 8A02     		.2byte	0x28a
 1396 060d 61030000 		.4byte	0x361
 1397 0611 02       		.byte	0x2
 1398 0612 23       		.byte	0x23
 1399 0613 0C       		.uleb128 0xc
 1400 0614 15       		.uleb128 0x15
 1401 0615 21030000 		.4byte	.LASF81
 1402 0619 0B       		.byte	0xb
 1403 061a 8B02     		.2byte	0x28b
 1404 061c 61030000 		.4byte	0x361
 1405 0620 02       		.byte	0x2
 1406 0621 23       		.byte	0x23
 1407 0622 10       		.uleb128 0x10
 1408 0623 15       		.uleb128 0x15
 1409 0624 CD050000 		.4byte	.LASF82
 1410 0628 0B       		.byte	0xb
 1411 0629 8C02     		.2byte	0x28c
 1412 062b 61030000 		.4byte	0x361
 1413 062f 02       		.byte	0x2
 1414 0630 23       		.byte	0x23
 1415 0631 14       		.uleb128 0x14
 1416 0632 15       		.uleb128 0x15
ARM GAS  /tmp/ccgFERJb.s 			page 26


 1417 0633 11040000 		.4byte	.LASF83
 1418 0637 0B       		.byte	0xb
 1419 0638 8D02     		.2byte	0x28d
 1420 063a 61030000 		.4byte	0x361
 1421 063e 02       		.byte	0x2
 1422 063f 23       		.byte	0x23
 1423 0640 18       		.uleb128 0x18
 1424 0641 15       		.uleb128 0x15
 1425 0642 07050000 		.4byte	.LASF84
 1426 0646 0B       		.byte	0xb
 1427 0647 8E02     		.2byte	0x28e
 1428 0649 61030000 		.4byte	0x361
 1429 064d 02       		.byte	0x2
 1430 064e 23       		.byte	0x23
 1431 064f 1C       		.uleb128 0x1c
 1432 0650 15       		.uleb128 0x15
 1433 0651 48050000 		.4byte	.LASF85
 1434 0655 0B       		.byte	0xb
 1435 0656 8F02     		.2byte	0x28f
 1436 0658 61030000 		.4byte	0x361
 1437 065c 02       		.byte	0x2
 1438 065d 23       		.byte	0x23
 1439 065e 20       		.uleb128 0x20
 1440 065f 0C       		.uleb128 0xc
 1441 0660 43535200 		.ascii	"CSR\000"
 1442 0664 0B       		.byte	0xb
 1443 0665 9002     		.2byte	0x290
 1444 0667 61030000 		.4byte	0x361
 1445 066b 02       		.byte	0x2
 1446 066c 23       		.byte	0x23
 1447 066d 24       		.uleb128 0x24
 1448 066e 15       		.uleb128 0x15
 1449 066f 19030000 		.4byte	.LASF86
 1450 0673 0B       		.byte	0xb
 1451 0674 9102     		.2byte	0x291
 1452 0676 61030000 		.4byte	0x361
 1453 067a 02       		.byte	0x2
 1454 067b 23       		.byte	0x23
 1455 067c 28       		.uleb128 0x28
 1456 067d 15       		.uleb128 0x15
 1457 067e 5C050000 		.4byte	.LASF87
 1458 0682 0B       		.byte	0xb
 1459 0683 9202     		.2byte	0x292
 1460 0685 61030000 		.4byte	0x361
 1461 0689 02       		.byte	0x2
 1462 068a 23       		.byte	0x23
 1463 068b 2C       		.uleb128 0x2c
 1464 068c 15       		.uleb128 0x15
 1465 068d 62050000 		.4byte	.LASF88
 1466 0691 0B       		.byte	0xb
 1467 0692 9302     		.2byte	0x293
 1468 0694 61030000 		.4byte	0x361
 1469 0698 02       		.byte	0x2
 1470 0699 23       		.byte	0x23
 1471 069a 30       		.uleb128 0x30
 1472 069b 00       		.byte	0
 1473 069c 16       		.uleb128 0x16
ARM GAS  /tmp/ccgFERJb.s 			page 27


 1474 069d BF000000 		.4byte	.LASF89
 1475 06a1 0B       		.byte	0xb
 1476 06a2 9402     		.2byte	0x294
 1477 06a4 D0050000 		.4byte	0x5d0
 1478 06a8 14       		.uleb128 0x14
 1479 06a9 2C       		.byte	0x2c
 1480 06aa 0B       		.byte	0xb
 1481 06ab 1B03     		.2byte	0x31b
 1482 06ad A2070000 		.4byte	0x7a2
 1483 06b1 0C       		.uleb128 0xc
 1484 06b2 43523100 		.ascii	"CR1\000"
 1485 06b6 0B       		.byte	0xb
 1486 06b7 1D03     		.2byte	0x31d
 1487 06b9 61030000 		.4byte	0x361
 1488 06bd 02       		.byte	0x2
 1489 06be 23       		.byte	0x23
 1490 06bf 00       		.uleb128 0
 1491 06c0 0C       		.uleb128 0xc
 1492 06c1 43523200 		.ascii	"CR2\000"
 1493 06c5 0B       		.byte	0xb
 1494 06c6 1E03     		.2byte	0x31e
 1495 06c8 61030000 		.4byte	0x361
 1496 06cc 02       		.byte	0x2
 1497 06cd 23       		.byte	0x23
 1498 06ce 04       		.uleb128 0x4
 1499 06cf 0C       		.uleb128 0xc
 1500 06d0 43523300 		.ascii	"CR3\000"
 1501 06d4 0B       		.byte	0xb
 1502 06d5 1F03     		.2byte	0x31f
 1503 06d7 61030000 		.4byte	0x361
 1504 06db 02       		.byte	0x2
 1505 06dc 23       		.byte	0x23
 1506 06dd 08       		.uleb128 0x8
 1507 06de 0C       		.uleb128 0xc
 1508 06df 42525200 		.ascii	"BRR\000"
 1509 06e3 0B       		.byte	0xb
 1510 06e4 2003     		.2byte	0x320
 1511 06e6 C6050000 		.4byte	0x5c6
 1512 06ea 02       		.byte	0x2
 1513 06eb 23       		.byte	0x23
 1514 06ec 0C       		.uleb128 0xc
 1515 06ed 15       		.uleb128 0x15
 1516 06ee 4F030000 		.4byte	.LASF90
 1517 06f2 0B       		.byte	0xb
 1518 06f3 2103     		.2byte	0x321
 1519 06f5 62000000 		.4byte	0x62
 1520 06f9 02       		.byte	0x2
 1521 06fa 23       		.byte	0x23
 1522 06fb 0E       		.uleb128 0xe
 1523 06fc 15       		.uleb128 0x15
 1524 06fd 99000000 		.4byte	.LASF91
 1525 0701 0B       		.byte	0xb
 1526 0702 2203     		.2byte	0x322
 1527 0704 C6050000 		.4byte	0x5c6
 1528 0708 02       		.byte	0x2
 1529 0709 23       		.byte	0x23
 1530 070a 10       		.uleb128 0x10
ARM GAS  /tmp/ccgFERJb.s 			page 28


 1531 070b 15       		.uleb128 0x15
 1532 070c 59030000 		.4byte	.LASF92
 1533 0710 0B       		.byte	0xb
 1534 0711 2303     		.2byte	0x323
 1535 0713 62000000 		.4byte	0x62
 1536 0717 02       		.byte	0x2
 1537 0718 23       		.byte	0x23
 1538 0719 12       		.uleb128 0x12
 1539 071a 15       		.uleb128 0x15
 1540 071b 02050000 		.4byte	.LASF93
 1541 071f 0B       		.byte	0xb
 1542 0720 2403     		.2byte	0x324
 1543 0722 61030000 		.4byte	0x361
 1544 0726 02       		.byte	0x2
 1545 0727 23       		.byte	0x23
 1546 0728 14       		.uleb128 0x14
 1547 0729 0C       		.uleb128 0xc
 1548 072a 52515200 		.ascii	"RQR\000"
 1549 072e 0B       		.byte	0xb
 1550 072f 2503     		.2byte	0x325
 1551 0731 C6050000 		.4byte	0x5c6
 1552 0735 02       		.byte	0x2
 1553 0736 23       		.byte	0x23
 1554 0737 18       		.uleb128 0x18
 1555 0738 15       		.uleb128 0x15
 1556 0739 63030000 		.4byte	.LASF94
 1557 073d 0B       		.byte	0xb
 1558 073e 2603     		.2byte	0x326
 1559 0740 62000000 		.4byte	0x62
 1560 0744 02       		.byte	0x2
 1561 0745 23       		.byte	0x23
 1562 0746 1A       		.uleb128 0x1a
 1563 0747 0C       		.uleb128 0xc
 1564 0748 49535200 		.ascii	"ISR\000"
 1565 074c 0B       		.byte	0xb
 1566 074d 2703     		.2byte	0x327
 1567 074f 61030000 		.4byte	0x361
 1568 0753 02       		.byte	0x2
 1569 0754 23       		.byte	0x23
 1570 0755 1C       		.uleb128 0x1c
 1571 0756 0C       		.uleb128 0xc
 1572 0757 49435200 		.ascii	"ICR\000"
 1573 075b 0B       		.byte	0xb
 1574 075c 2803     		.2byte	0x328
 1575 075e 61030000 		.4byte	0x361
 1576 0762 02       		.byte	0x2
 1577 0763 23       		.byte	0x23
 1578 0764 20       		.uleb128 0x20
 1579 0765 0C       		.uleb128 0xc
 1580 0766 52445200 		.ascii	"RDR\000"
 1581 076a 0B       		.byte	0xb
 1582 076b 2903     		.2byte	0x329
 1583 076d C6050000 		.4byte	0x5c6
 1584 0771 02       		.byte	0x2
 1585 0772 23       		.byte	0x23
 1586 0773 24       		.uleb128 0x24
 1587 0774 15       		.uleb128 0x15
ARM GAS  /tmp/ccgFERJb.s 			page 29


 1588 0775 6D030000 		.4byte	.LASF95
 1589 0779 0B       		.byte	0xb
 1590 077a 2A03     		.2byte	0x32a
 1591 077c 62000000 		.4byte	0x62
 1592 0780 02       		.byte	0x2
 1593 0781 23       		.byte	0x23
 1594 0782 26       		.uleb128 0x26
 1595 0783 0C       		.uleb128 0xc
 1596 0784 54445200 		.ascii	"TDR\000"
 1597 0788 0B       		.byte	0xb
 1598 0789 2B03     		.2byte	0x32b
 1599 078b C6050000 		.4byte	0x5c6
 1600 078f 02       		.byte	0x2
 1601 0790 23       		.byte	0x23
 1602 0791 28       		.uleb128 0x28
 1603 0792 15       		.uleb128 0x15
 1604 0793 45040000 		.4byte	.LASF96
 1605 0797 0B       		.byte	0xb
 1606 0798 2C03     		.2byte	0x32c
 1607 079a 62000000 		.4byte	0x62
 1608 079e 02       		.byte	0x2
 1609 079f 23       		.byte	0x23
 1610 07a0 2A       		.uleb128 0x2a
 1611 07a1 00       		.byte	0
 1612 07a2 16       		.uleb128 0x16
 1613 07a3 2A020000 		.4byte	.LASF97
 1614 07a7 0B       		.byte	0xb
 1615 07a8 2D03     		.2byte	0x32d
 1616 07aa A8060000 		.4byte	0x6a8
 1617 07ae 11       		.uleb128 0x11
 1618 07af 01       		.byte	0x1
 1619 07b0 EF000000 		.4byte	0xef
 1620 07b4 C8070000 		.4byte	0x7c8
 1621 07b8 12       		.uleb128 0x12
 1622 07b9 AE020000 		.4byte	0x2ae
 1623 07bd 12       		.uleb128 0x12
 1624 07be 49000000 		.4byte	0x49
 1625 07c2 12       		.uleb128 0x12
 1626 07c3 10010000 		.4byte	0x110
 1627 07c7 00       		.byte	0
 1628 07c8 09       		.uleb128 0x9
 1629 07c9 04       		.byte	0x4
 1630 07ca AE070000 		.4byte	0x7ae
 1631 07ce 11       		.uleb128 0x11
 1632 07cf 01       		.byte	0x1
 1633 07d0 EF000000 		.4byte	0xef
 1634 07d4 E3070000 		.4byte	0x7e3
 1635 07d8 12       		.uleb128 0x12
 1636 07d9 AE020000 		.4byte	0x2ae
 1637 07dd 12       		.uleb128 0x12
 1638 07de 10010000 		.4byte	0x110
 1639 07e2 00       		.byte	0
 1640 07e3 09       		.uleb128 0x9
 1641 07e4 04       		.byte	0x4
 1642 07e5 CE070000 		.4byte	0x7ce
 1643 07e9 11       		.uleb128 0x11
 1644 07ea 01       		.byte	0x1
ARM GAS  /tmp/ccgFERJb.s 			page 30


 1645 07eb 30000000 		.4byte	0x30
 1646 07ef 08080000 		.4byte	0x808
 1647 07f3 12       		.uleb128 0x12
 1648 07f4 AE020000 		.4byte	0x2ae
 1649 07f8 12       		.uleb128 0x12
 1650 07f9 7A050000 		.4byte	0x57a
 1651 07fd 12       		.uleb128 0x12
 1652 07fe 30000000 		.4byte	0x30
 1653 0802 12       		.uleb128 0x12
 1654 0803 10010000 		.4byte	0x110
 1655 0807 00       		.byte	0
 1656 0808 09       		.uleb128 0x9
 1657 0809 04       		.byte	0x4
 1658 080a E9070000 		.4byte	0x7e9
 1659 080e 11       		.uleb128 0x11
 1660 080f 01       		.byte	0x1
 1661 0810 30000000 		.4byte	0x30
 1662 0814 2D080000 		.4byte	0x82d
 1663 0818 12       		.uleb128 0x12
 1664 0819 AE020000 		.4byte	0x2ae
 1665 081d 12       		.uleb128 0x12
 1666 081e 44050000 		.4byte	0x544
 1667 0822 12       		.uleb128 0x12
 1668 0823 30000000 		.4byte	0x30
 1669 0827 12       		.uleb128 0x12
 1670 0828 10010000 		.4byte	0x110
 1671 082c 00       		.byte	0
 1672 082d 09       		.uleb128 0x9
 1673 082e 04       		.byte	0x4
 1674 082f 0E080000 		.4byte	0x80e
 1675 0833 17       		.uleb128 0x17
 1676 0834 01       		.byte	0x1
 1677 0835 0C       		.byte	0xc
 1678 0836 64       		.byte	0x64
 1679 0837 4E080000 		.4byte	0x84e
 1680 083b 18       		.uleb128 0x18
 1681 083c 3B040000 		.4byte	.LASF98
 1682 0840 00       		.sleb128 0
 1683 0841 18       		.uleb128 0x18
 1684 0842 09040000 		.4byte	.LASF99
 1685 0846 01       		.sleb128 1
 1686 0847 18       		.uleb128 0x18
 1687 0848 1E050000 		.4byte	.LASF100
 1688 084c 02       		.sleb128 2
 1689 084d 00       		.byte	0
 1690 084e 03       		.uleb128 0x3
 1691 084f 58040000 		.4byte	.LASF101
 1692 0853 0C       		.byte	0xc
 1693 0854 68       		.byte	0x68
 1694 0855 33080000 		.4byte	0x833
 1695 0859 03       		.uleb128 0x3
 1696 085a 62040000 		.4byte	.LASF102
 1697 085e 0C       		.byte	0xc
 1698 085f 6D       		.byte	0x6d
 1699 0860 64080000 		.4byte	0x864
 1700 0864 05       		.uleb128 0x5
 1701 0865 62040000 		.4byte	.LASF102
ARM GAS  /tmp/ccgFERJb.s 			page 31


 1702 0869 7C       		.byte	0x7c
 1703 086a 0C       		.byte	0xc
 1704 086b 87       		.byte	0x87
 1705 086c ED080000 		.4byte	0x8ed
 1706 0870 07       		.uleb128 0x7
 1707 0871 766D7400 		.ascii	"vmt\000"
 1708 0875 0C       		.byte	0xc
 1709 0876 89       		.byte	0x89
 1710 0877 B6090000 		.4byte	0x9b6
 1711 087b 02       		.byte	0x2
 1712 087c 23       		.byte	0x23
 1713 087d 00       		.uleb128 0
 1714 087e 06       		.uleb128 0x6
 1715 087f F1010000 		.4byte	.LASF103
 1716 0883 0C       		.byte	0xc
 1717 0884 8A       		.byte	0x8a
 1718 0885 2B040000 		.4byte	0x42b
 1719 0889 02       		.byte	0x2
 1720 088a 23       		.byte	0x23
 1721 088b 04       		.uleb128 0x4
 1722 088c 06       		.uleb128 0x6
 1723 088d DA000000 		.4byte	.LASF104
 1724 0891 0C       		.byte	0xc
 1725 0892 8A       		.byte	0x8a
 1726 0893 4E080000 		.4byte	0x84e
 1727 0897 02       		.byte	0x2
 1728 0898 23       		.byte	0x23
 1729 0899 08       		.uleb128 0x8
 1730 089a 06       		.uleb128 0x6
 1731 089b 93010000 		.4byte	.LASF105
 1732 089f 0C       		.byte	0xc
 1733 08a0 8A       		.byte	0x8a
 1734 08a1 4A050000 		.4byte	0x54a
 1735 08a5 02       		.byte	0x2
 1736 08a6 23       		.byte	0x23
 1737 08a7 0C       		.uleb128 0xc
 1738 08a8 06       		.uleb128 0x6
 1739 08a9 10020000 		.4byte	.LASF106
 1740 08ad 0C       		.byte	0xc
 1741 08ae 8A       		.byte	0x8a
 1742 08af 55050000 		.4byte	0x555
 1743 08b3 02       		.byte	0x2
 1744 08b4 23       		.byte	0x23
 1745 08b5 30       		.uleb128 0x30
 1746 08b6 07       		.uleb128 0x7
 1747 08b7 696200   		.ascii	"ib\000"
 1748 08ba 0C       		.byte	0xc
 1749 08bb 8A       		.byte	0x8a
 1750 08bc C1090000 		.4byte	0x9c1
 1751 08c0 02       		.byte	0x2
 1752 08c1 23       		.byte	0x23
 1753 08c2 54       		.uleb128 0x54
 1754 08c3 07       		.uleb128 0x7
 1755 08c4 6F6200   		.ascii	"ob\000"
 1756 08c7 0C       		.byte	0xc
 1757 08c8 8A       		.byte	0x8a
 1758 08c9 C1090000 		.4byte	0x9c1
ARM GAS  /tmp/ccgFERJb.s 			page 32


 1759 08cd 02       		.byte	0x2
 1760 08ce 23       		.byte	0x23
 1761 08cf 64       		.uleb128 0x64
 1762 08d0 06       		.uleb128 0x6
 1763 08d1 67010000 		.4byte	.LASF107
 1764 08d5 0C       		.byte	0xc
 1765 08d6 8A       		.byte	0x8a
 1766 08d7 D1090000 		.4byte	0x9d1
 1767 08db 02       		.byte	0x2
 1768 08dc 23       		.byte	0x23
 1769 08dd 74       		.uleb128 0x74
 1770 08de 06       		.uleb128 0x6
 1771 08df 9C050000 		.4byte	.LASF108
 1772 08e3 0C       		.byte	0xc
 1773 08e4 8A       		.byte	0x8a
 1774 08e5 86000000 		.4byte	0x86
 1775 08e9 02       		.byte	0x2
 1776 08ea 23       		.byte	0x23
 1777 08eb 78       		.uleb128 0x78
 1778 08ec 00       		.byte	0
 1779 08ed 08       		.uleb128 0x8
 1780 08ee 10       		.byte	0x10
 1781 08ef 0D       		.byte	0xd
 1782 08f0 D7       		.byte	0xd7
 1783 08f1 2E090000 		.4byte	0x92e
 1784 08f5 06       		.uleb128 0x6
 1785 08f6 B1020000 		.4byte	.LASF109
 1786 08fa 0D       		.byte	0xd
 1787 08fb DB       		.byte	0xdb
 1788 08fc 86000000 		.4byte	0x86
 1789 0900 02       		.byte	0x2
 1790 0901 23       		.byte	0x23
 1791 0902 00       		.uleb128 0
 1792 0903 07       		.uleb128 0x7
 1793 0904 63723100 		.ascii	"cr1\000"
 1794 0908 0D       		.byte	0xd
 1795 0909 E0       		.byte	0xe0
 1796 090a 86000000 		.4byte	0x86
 1797 090e 02       		.byte	0x2
 1798 090f 23       		.byte	0x23
 1799 0910 04       		.uleb128 0x4
 1800 0911 07       		.uleb128 0x7
 1801 0912 63723200 		.ascii	"cr2\000"
 1802 0916 0D       		.byte	0xd
 1803 0917 E4       		.byte	0xe4
 1804 0918 86000000 		.4byte	0x86
 1805 091c 02       		.byte	0x2
 1806 091d 23       		.byte	0x23
 1807 091e 08       		.uleb128 0x8
 1808 091f 07       		.uleb128 0x7
 1809 0920 63723300 		.ascii	"cr3\000"
 1810 0924 0D       		.byte	0xd
 1811 0925 E8       		.byte	0xe8
 1812 0926 86000000 		.4byte	0x86
 1813 092a 02       		.byte	0x2
 1814 092b 23       		.byte	0x23
 1815 092c 0C       		.uleb128 0xc
ARM GAS  /tmp/ccgFERJb.s 			page 33


 1816 092d 00       		.byte	0
 1817 092e 03       		.uleb128 0x3
 1818 092f 32030000 		.4byte	.LASF110
 1819 0933 0D       		.byte	0xd
 1820 0934 E9       		.byte	0xe9
 1821 0935 ED080000 		.4byte	0x8ed
 1822 0939 05       		.uleb128 0x5
 1823 093a 83010000 		.4byte	.LASF111
 1824 093e 20       		.byte	0x20
 1825 093f 0C       		.byte	0xc
 1826 0940 7C       		.byte	0x7c
 1827 0941 B6090000 		.4byte	0x9b6
 1828 0945 06       		.uleb128 0x6
 1829 0946 CE020000 		.4byte	.LASF112
 1830 094a 0C       		.byte	0xc
 1831 094b 7D       		.byte	0x7d
 1832 094c 85050000 		.4byte	0x585
 1833 0950 02       		.byte	0x2
 1834 0951 23       		.byte	0x23
 1835 0952 00       		.uleb128 0
 1836 0953 06       		.uleb128 0x6
 1837 0954 93040000 		.4byte	.LASF113
 1838 0958 0C       		.byte	0xc
 1839 0959 7D       		.byte	0x7d
 1840 095a A5050000 		.4byte	0x5a5
 1841 095e 02       		.byte	0x2
 1842 095f 23       		.byte	0x23
 1843 0960 04       		.uleb128 0x4
 1844 0961 07       		.uleb128 0x7
 1845 0962 70757400 		.ascii	"put\000"
 1846 0966 0C       		.byte	0xc
 1847 0967 7D       		.byte	0x7d
 1848 0968 C0050000 		.4byte	0x5c0
 1849 096c 02       		.byte	0x2
 1850 096d 23       		.byte	0x23
 1851 096e 08       		.uleb128 0x8
 1852 096f 07       		.uleb128 0x7
 1853 0970 67657400 		.ascii	"get\000"
 1854 0974 0C       		.byte	0xc
 1855 0975 7D       		.byte	0x7d
 1856 0976 83040000 		.4byte	0x483
 1857 097a 02       		.byte	0x2
 1858 097b 23       		.byte	0x23
 1859 097c 0C       		.uleb128 0xc
 1860 097d 06       		.uleb128 0x6
 1861 097e D4020000 		.4byte	.LASF114
 1862 0982 0C       		.byte	0xc
 1863 0983 7D       		.byte	0x7d
 1864 0984 C8070000 		.4byte	0x7c8
 1865 0988 02       		.byte	0x2
 1866 0989 23       		.byte	0x23
 1867 098a 10       		.uleb128 0x10
 1868 098b 06       		.uleb128 0x6
 1869 098c E9000000 		.4byte	.LASF115
 1870 0990 0C       		.byte	0xc
 1871 0991 7D       		.byte	0x7d
 1872 0992 E3070000 		.4byte	0x7e3
ARM GAS  /tmp/ccgFERJb.s 			page 34


 1873 0996 02       		.byte	0x2
 1874 0997 23       		.byte	0x23
 1875 0998 14       		.uleb128 0x14
 1876 0999 06       		.uleb128 0x6
 1877 099a 38020000 		.4byte	.LASF116
 1878 099e 0C       		.byte	0xc
 1879 099f 7D       		.byte	0x7d
 1880 09a0 08080000 		.4byte	0x808
 1881 09a4 02       		.byte	0x2
 1882 09a5 23       		.byte	0x23
 1883 09a6 18       		.uleb128 0x18
 1884 09a7 06       		.uleb128 0x6
 1885 09a8 6F000000 		.4byte	.LASF117
 1886 09ac 0C       		.byte	0xc
 1887 09ad 7D       		.byte	0x7d
 1888 09ae 2D080000 		.4byte	0x82d
 1889 09b2 02       		.byte	0x2
 1890 09b3 23       		.byte	0x23
 1891 09b4 1C       		.uleb128 0x1c
 1892 09b5 00       		.byte	0
 1893 09b6 09       		.uleb128 0x9
 1894 09b7 04       		.byte	0x4
 1895 09b8 BC090000 		.4byte	0x9bc
 1896 09bc 10       		.uleb128 0x10
 1897 09bd 39090000 		.4byte	0x939
 1898 09c1 19       		.uleb128 0x19
 1899 09c2 49000000 		.4byte	0x49
 1900 09c6 D1090000 		.4byte	0x9d1
 1901 09ca 1A       		.uleb128 0x1a
 1902 09cb 66030000 		.4byte	0x366
 1903 09cf 0F       		.byte	0xf
 1904 09d0 00       		.byte	0
 1905 09d1 09       		.uleb128 0x9
 1906 09d2 04       		.byte	0x4
 1907 09d3 A2070000 		.4byte	0x7a2
 1908 09d7 1B       		.uleb128 0x1b
 1909 09d8 D9020000 		.4byte	.LASF119
 1910 09dc 01       		.byte	0x1
 1911 09dd 5C       		.byte	0x5c
 1912 09de 01       		.byte	0x1
 1913 09df 01       		.byte	0x1
 1914 09e0 040A0000 		.4byte	0xa04
 1915 09e4 1C       		.uleb128 0x1c
 1916 09e5 73647000 		.ascii	"sdp\000"
 1917 09e9 01       		.byte	0x1
 1918 09ea 5C       		.byte	0x5c
 1919 09eb 040A0000 		.4byte	0xa04
 1920 09ef 1D       		.uleb128 0x1d
 1921 09f0 AD040000 		.4byte	.LASF118
 1922 09f4 01       		.byte	0x1
 1923 09f5 5C       		.byte	0x5c
 1924 09f6 0A0A0000 		.4byte	0xa0a
 1925 09fa 1E       		.uleb128 0x1e
 1926 09fb 7500     		.ascii	"u\000"
 1927 09fd 01       		.byte	0x1
 1928 09fe 5D       		.byte	0x5d
 1929 09ff D1090000 		.4byte	0x9d1
ARM GAS  /tmp/ccgFERJb.s 			page 35


 1930 0a03 00       		.byte	0
 1931 0a04 09       		.uleb128 0x9
 1932 0a05 04       		.byte	0x4
 1933 0a06 59080000 		.4byte	0x859
 1934 0a0a 09       		.uleb128 0x9
 1935 0a0b 04       		.byte	0x4
 1936 0a0c 100A0000 		.4byte	0xa10
 1937 0a10 10       		.uleb128 0x10
 1938 0a11 2E090000 		.4byte	0x92e
 1939 0a15 1B       		.uleb128 0x1b
 1940 0a16 4E010000 		.4byte	.LASF120
 1941 0a1a 01       		.byte	0x1
 1942 0a1b 71       		.byte	0x71
 1943 0a1c 01       		.byte	0x1
 1944 0a1d 01       		.byte	0x1
 1945 0a1e 2C0A0000 		.4byte	0xa2c
 1946 0a22 1C       		.uleb128 0x1c
 1947 0a23 7500     		.ascii	"u\000"
 1948 0a25 01       		.byte	0x1
 1949 0a26 71       		.byte	0x71
 1950 0a27 D1090000 		.4byte	0x9d1
 1951 0a2b 00       		.byte	0
 1952 0a2c 1B       		.uleb128 0x1b
 1953 0a2d 1A000000 		.4byte	.LASF121
 1954 0a31 01       		.byte	0x1
 1955 0a32 7E       		.byte	0x7e
 1956 0a33 01       		.byte	0x1
 1957 0a34 01       		.byte	0x1
 1958 0a35 790A0000 		.4byte	0xa79
 1959 0a39 1C       		.uleb128 0x1c
 1960 0a3a 73647000 		.ascii	"sdp\000"
 1961 0a3e 01       		.byte	0x1
 1962 0a3f 7E       		.byte	0x7e
 1963 0a40 040A0000 		.4byte	0xa04
 1964 0a44 1C       		.uleb128 0x1c
 1965 0a45 69737200 		.ascii	"isr\000"
 1966 0a49 01       		.byte	0x1
 1967 0a4a 7E       		.byte	0x7e
 1968 0a4b 86000000 		.4byte	0x86
 1969 0a4f 1E       		.uleb128 0x1e
 1970 0a50 73747300 		.ascii	"sts\000"
 1971 0a54 01       		.byte	0x1
 1972 0a55 7F       		.byte	0x7f
 1973 0a56 05010000 		.4byte	0x105
 1974 0a5a 1F       		.uleb128 0x1f
 1975 0a5b 6B0A0000 		.4byte	0xa6b
 1976 0a5f 1E       		.uleb128 0x1e
 1977 0a60 746D7000 		.ascii	"tmp\000"
 1978 0a64 01       		.byte	0x1
 1979 0a65 89       		.byte	0x89
 1980 0a66 86000000 		.4byte	0x86
 1981 0a6a 00       		.byte	0
 1982 0a6b 20       		.uleb128 0x20
 1983 0a6c 1E       		.uleb128 0x1e
 1984 0a6d 746D7000 		.ascii	"tmp\000"
 1985 0a71 01       		.byte	0x1
 1986 0a72 8B       		.byte	0x8b
ARM GAS  /tmp/ccgFERJb.s 			page 36


 1987 0a73 86000000 		.4byte	0x86
 1988 0a77 00       		.byte	0
 1989 0a78 00       		.byte	0
 1990 0a79 1B       		.uleb128 0x1b
 1991 0a7a 20040000 		.4byte	.LASF122
 1992 0a7e 01       		.byte	0x1
 1993 0a7f 93       		.byte	0x93
 1994 0a80 01       		.byte	0x1
 1995 0a81 01       		.byte	0x1
 1996 0a82 400B0000 		.4byte	0xb40
 1997 0a86 1C       		.uleb128 0x1c
 1998 0a87 73647000 		.ascii	"sdp\000"
 1999 0a8b 01       		.byte	0x1
 2000 0a8c 93       		.byte	0x93
 2001 0a8d 040A0000 		.4byte	0xa04
 2002 0a91 1E       		.uleb128 0x1e
 2003 0a92 7500     		.ascii	"u\000"
 2004 0a94 01       		.byte	0x1
 2005 0a95 94       		.byte	0x94
 2006 0a96 D1090000 		.4byte	0x9d1
 2007 0a9a 1E       		.uleb128 0x1e
 2008 0a9b 63723100 		.ascii	"cr1\000"
 2009 0a9f 01       		.byte	0x1
 2010 0aa0 95       		.byte	0x95
 2011 0aa1 86000000 		.4byte	0x86
 2012 0aa5 1E       		.uleb128 0x1e
 2013 0aa6 69737200 		.ascii	"isr\000"
 2014 0aaa 01       		.byte	0x1
 2015 0aab 96       		.byte	0x96
 2016 0aac 86000000 		.4byte	0x86
 2017 0ab0 1F       		.uleb128 0x1f
 2018 0ab1 C10A0000 		.4byte	0xac1
 2019 0ab5 1E       		.uleb128 0x1e
 2020 0ab6 746D7000 		.ascii	"tmp\000"
 2021 0aba 01       		.byte	0x1
 2022 0abb A2       		.byte	0xa2
 2023 0abc 86000000 		.4byte	0x86
 2024 0ac0 00       		.byte	0
 2025 0ac1 1F       		.uleb128 0x1f
 2026 0ac2 D20A0000 		.4byte	0xad2
 2027 0ac6 1E       		.uleb128 0x1e
 2028 0ac7 746D7000 		.ascii	"tmp\000"
 2029 0acb 01       		.byte	0x1
 2030 0acc A4       		.byte	0xa4
 2031 0acd 86000000 		.4byte	0x86
 2032 0ad1 00       		.byte	0
 2033 0ad2 1F       		.uleb128 0x1f
 2034 0ad3 E30A0000 		.4byte	0xae3
 2035 0ad7 1E       		.uleb128 0x1e
 2036 0ad8 746D7000 		.ascii	"tmp\000"
 2037 0adc 01       		.byte	0x1
 2038 0add A9       		.byte	0xa9
 2039 0ade 86000000 		.4byte	0x86
 2040 0ae2 00       		.byte	0
 2041 0ae3 1F       		.uleb128 0x1f
 2042 0ae4 F40A0000 		.4byte	0xaf4
 2043 0ae8 1E       		.uleb128 0x1e
ARM GAS  /tmp/ccgFERJb.s 			page 37


 2044 0ae9 746D7000 		.ascii	"tmp\000"
 2045 0aed 01       		.byte	0x1
 2046 0aee AB       		.byte	0xab
 2047 0aef 86000000 		.4byte	0x86
 2048 0af3 00       		.byte	0
 2049 0af4 1F       		.uleb128 0x1f
 2050 0af5 210B0000 		.4byte	0xb21
 2051 0af9 1E       		.uleb128 0x1e
 2052 0afa 6200     		.ascii	"b\000"
 2053 0afc 01       		.byte	0x1
 2054 0afd B0       		.byte	0xb0
 2055 0afe EF000000 		.4byte	0xef
 2056 0b02 1F       		.uleb128 0x1f
 2057 0b03 130B0000 		.4byte	0xb13
 2058 0b07 1E       		.uleb128 0x1e
 2059 0b08 746D7000 		.ascii	"tmp\000"
 2060 0b0c 01       		.byte	0x1
 2061 0b0d B1       		.byte	0xb1
 2062 0b0e 86000000 		.4byte	0x86
 2063 0b12 00       		.byte	0
 2064 0b13 20       		.uleb128 0x20
 2065 0b14 1E       		.uleb128 0x1e
 2066 0b15 746D7000 		.ascii	"tmp\000"
 2067 0b19 01       		.byte	0x1
 2068 0b1a B9       		.byte	0xb9
 2069 0b1b 86000000 		.4byte	0x86
 2070 0b1f 00       		.byte	0
 2071 0b20 00       		.byte	0
 2072 0b21 1F       		.uleb128 0x1f
 2073 0b22 320B0000 		.4byte	0xb32
 2074 0b26 1E       		.uleb128 0x1e
 2075 0b27 746D7000 		.ascii	"tmp\000"
 2076 0b2b 01       		.byte	0x1
 2077 0b2c BE       		.byte	0xbe
 2078 0b2d 86000000 		.4byte	0x86
 2079 0b31 00       		.byte	0
 2080 0b32 20       		.uleb128 0x20
 2081 0b33 1E       		.uleb128 0x1e
 2082 0b34 746D7000 		.ascii	"tmp\000"
 2083 0b38 01       		.byte	0x1
 2084 0b39 C2       		.byte	0xc2
 2085 0b3a 86000000 		.4byte	0x86
 2086 0b3e 00       		.byte	0
 2087 0b3f 00       		.byte	0
 2088 0b40 21       		.uleb128 0x21
 2089 0b41 3F030000 		.4byte	.LASF135
 2090 0b45 01       		.byte	0x1
 2091 0b46 C7       		.byte	0xc7
 2092 0b47 01       		.byte	0x1
 2093 0b48 00000000 		.4byte	.LFB122
 2094 0b4c 12000000 		.4byte	.LFE122
 2095 0b50 02       		.byte	0x2
 2096 0b51 7D       		.byte	0x7d
 2097 0b52 00       		.sleb128 0
 2098 0b53 01       		.byte	0x1
 2099 0b54 670B0000 		.4byte	0xb67
 2100 0b58 22       		.uleb128 0x22
ARM GAS  /tmp/ccgFERJb.s 			page 38


 2101 0b59 717000   		.ascii	"qp\000"
 2102 0b5c 01       		.byte	0x1
 2103 0b5d C7       		.byte	0xc7
 2104 0b5e 3E050000 		.4byte	0x53e
 2105 0b62 00000000 		.4byte	.LLST0
 2106 0b66 00       		.byte	0
 2107 0b67 23       		.uleb128 0x23
 2108 0b68 01       		.byte	0x1
 2109 0b69 A8020000 		.4byte	.LASF123
 2110 0b6d 01       		.byte	0x1
 2111 0b6e 0301     		.2byte	0x103
 2112 0b70 01       		.byte	0x1
 2113 0b71 00000000 		.4byte	.LFB123
 2114 0b75 FC000000 		.4byte	.LFE123
 2115 0b79 21000000 		.4byte	.LLST1
 2116 0b7d 01       		.byte	0x1
 2117 0b7e 5D0E0000 		.4byte	0xe5d
 2118 0b82 24       		.uleb128 0x24
 2119 0b83 790A0000 		.4byte	0xa79
 2120 0b87 02000000 		.4byte	.LBB32
 2121 0b8b 00000000 		.4byte	.Ldebug_ranges0+0
 2122 0b8f 01       		.byte	0x1
 2123 0b90 0701     		.2byte	0x107
 2124 0b92 520E0000 		.4byte	0xe52
 2125 0b96 25       		.uleb128 0x25
 2126 0b97 18000000 		.4byte	.Ldebug_ranges0+0x18
 2127 0b9b 26       		.uleb128 0x26
 2128 0b9c 910A0000 		.4byte	0xa91
 2129 0ba0 01       		.byte	0x1
 2130 0ba1 55       		.byte	0x55
 2131 0ba2 27       		.uleb128 0x27
 2132 0ba3 9A0A0000 		.4byte	0xa9a
 2133 0ba7 41000000 		.4byte	.LLST2
 2134 0bab 26       		.uleb128 0x26
 2135 0bac A50A0000 		.4byte	0xaa5
 2136 0bb0 01       		.byte	0x1
 2137 0bb1 54       		.byte	0x54
 2138 0bb2 28       		.uleb128 0x28
 2139 0bb3 860A0000 		.4byte	0xa86
 2140 0bb7 06       		.byte	0x6
 2141 0bb8 03       		.byte	0x3
 2142 0bb9 00000000 		.4byte	SD1
 2143 0bbd 9F       		.byte	0x9f
 2144 0bbe 29       		.uleb128 0x29
 2145 0bbf 24000000 		.4byte	.LBB34
 2146 0bc3 2A000000 		.4byte	.LBE34
 2147 0bc7 D50B0000 		.4byte	0xbd5
 2148 0bcb 27       		.uleb128 0x27
 2149 0bcc 260B0000 		.4byte	0xb26
 2150 0bd0 5F000000 		.4byte	.LLST3
 2151 0bd4 00       		.byte	0
 2152 0bd5 29       		.uleb128 0x29
 2153 0bd6 3A000000 		.4byte	.LBB35
 2154 0bda 40000000 		.4byte	.LBE35
 2155 0bde EC0B0000 		.4byte	0xbec
 2156 0be2 27       		.uleb128 0x27
 2157 0be3 330B0000 		.4byte	0xb33
ARM GAS  /tmp/ccgFERJb.s 			page 39


 2158 0be7 72000000 		.4byte	.LLST4
 2159 0beb 00       		.byte	0
 2160 0bec 29       		.uleb128 0x29
 2161 0bed 48000000 		.4byte	.LBB36
 2162 0bf1 4E000000 		.4byte	.LBE36
 2163 0bf5 030C0000 		.4byte	0xc03
 2164 0bf9 27       		.uleb128 0x27
 2165 0bfa D70A0000 		.4byte	0xad7
 2166 0bfe 85000000 		.4byte	.LLST5
 2167 0c02 00       		.byte	0
 2168 0c03 29       		.uleb128 0x29
 2169 0c04 58000000 		.4byte	.LBB37
 2170 0c08 60000000 		.4byte	.LBE37
 2171 0c0c 1A0C0000 		.4byte	0xc1a
 2172 0c10 27       		.uleb128 0x27
 2173 0c11 E80A0000 		.4byte	0xae8
 2174 0c15 98000000 		.4byte	.LLST6
 2175 0c19 00       		.byte	0
 2176 0c1a 29       		.uleb128 0x29
 2177 0c1b 60000000 		.4byte	.LBB38
 2178 0c1f 66000000 		.4byte	.LBE38
 2179 0c23 310C0000 		.4byte	0xc31
 2180 0c27 27       		.uleb128 0x27
 2181 0c28 B50A0000 		.4byte	0xab5
 2182 0c2c C1000000 		.4byte	.LLST7
 2183 0c30 00       		.byte	0
 2184 0c31 29       		.uleb128 0x29
 2185 0c32 70000000 		.4byte	.LBB39
 2186 0c36 78000000 		.4byte	.LBE39
 2187 0c3a 480C0000 		.4byte	0xc48
 2188 0c3e 27       		.uleb128 0x27
 2189 0c3f C60A0000 		.4byte	0xac6
 2190 0c43 D4000000 		.4byte	.LLST8
 2191 0c47 00       		.byte	0
 2192 0c48 2A       		.uleb128 0x2a
 2193 0c49 2C0A0000 		.4byte	0xa2c
 2194 0c4d 78000000 		.4byte	.LBB40
 2195 0c51 AE000000 		.4byte	.LBE40
 2196 0c55 01       		.byte	0x1
 2197 0c56 9E       		.byte	0x9e
 2198 0c57 990D0000 		.4byte	0xd99
 2199 0c5b 2B       		.uleb128 0x2b
 2200 0c5c 440A0000 		.4byte	0xa44
 2201 0c60 08010000 		.4byte	.LLST9
 2202 0c64 2C       		.uleb128 0x2c
 2203 0c65 78000000 		.4byte	.LBB41
 2204 0c69 AE000000 		.4byte	.LBE41
 2205 0c6d 27       		.uleb128 0x27
 2206 0c6e 4F0A0000 		.4byte	0xa4f
 2207 0c72 1B010000 		.4byte	.LLST10
 2208 0c76 2B       		.uleb128 0x2b
 2209 0c77 390A0000 		.4byte	0xa39
 2210 0c7b 18020000 		.4byte	.LLST11
 2211 0c7f 29       		.uleb128 0x29
 2212 0c80 9A000000 		.4byte	.LBB42
 2213 0c84 A0000000 		.4byte	.LBE42
 2214 0c88 960C0000 		.4byte	0xc96
ARM GAS  /tmp/ccgFERJb.s 			page 40


 2215 0c8c 27       		.uleb128 0x27
 2216 0c8d 5F0A0000 		.4byte	0xa5f
 2217 0c91 30020000 		.4byte	.LLST12
 2218 0c95 00       		.byte	0
 2219 0c96 29       		.uleb128 0x29
 2220 0c97 A6000000 		.4byte	.LBB43
 2221 0c9b AE000000 		.4byte	.LBE43
 2222 0c9f AD0C0000 		.4byte	0xcad
 2223 0ca3 27       		.uleb128 0x27
 2224 0ca4 6C0A0000 		.4byte	0xa6c
 2225 0ca8 43020000 		.4byte	.LLST13
 2226 0cac 00       		.byte	0
 2227 0cad 2D       		.uleb128 0x2d
 2228 0cae A6000000 		.4byte	.LVL35
 2229 0cb2 AA0F0000 		.4byte	0xfaa
 2230 0cb6 2E       		.uleb128 0x2e
 2231 0cb7 01       		.byte	0x1
 2232 0cb8 51       		.byte	0x51
 2233 0cb9 D3       		.byte	0xd3
 2234 0cba 30       		.byte	0x30
 2235 0cbb 08       		.byte	0x8
 2236 0cbc 80       		.byte	0x80
 2237 0cbd 74       		.byte	0x74
 2238 0cbe 00       		.sleb128 0
 2239 0cbf 33       		.byte	0x33
 2240 0cc0 25       		.byte	0x25
 2241 0cc1 30       		.byte	0x30
 2242 0cc2 29       		.byte	0x29
 2243 0cc3 28       		.byte	0x28
 2244 0cc4 0100     		.2byte	0x1
 2245 0cc6 16       		.byte	0x16
 2246 0cc7 13       		.byte	0x13
 2247 0cc8 08       		.byte	0x8
 2248 0cc9 20       		.byte	0x20
 2249 0cca 21       		.byte	0x21
 2250 0ccb 30       		.byte	0x30
 2251 0ccc 08       		.byte	0x8
 2252 0ccd 80       		.byte	0x80
 2253 0cce 74       		.byte	0x74
 2254 0ccf 00       		.sleb128 0
 2255 0cd0 33       		.byte	0x33
 2256 0cd1 25       		.byte	0x25
 2257 0cd2 30       		.byte	0x30
 2258 0cd3 29       		.byte	0x29
 2259 0cd4 28       		.byte	0x28
 2260 0cd5 0100     		.2byte	0x1
 2261 0cd7 16       		.byte	0x16
 2262 0cd8 13       		.byte	0x13
 2263 0cd9 74       		.byte	0x74
 2264 0cda 00       		.sleb128 0
 2265 0cdb 4F       		.byte	0x4f
 2266 0cdc 24       		.byte	0x24
 2267 0cdd 30       		.byte	0x30
 2268 0cde 2D       		.byte	0x2d
 2269 0cdf 28       		.byte	0x28
 2270 0ce0 0100     		.2byte	0x1
 2271 0ce2 16       		.byte	0x16
ARM GAS  /tmp/ccgFERJb.s 			page 41


 2272 0ce3 13       		.byte	0x13
 2273 0ce4 08       		.byte	0x8
 2274 0ce5 40       		.byte	0x40
 2275 0ce6 21       		.byte	0x21
 2276 0ce7 30       		.byte	0x30
 2277 0ce8 08       		.byte	0x8
 2278 0ce9 80       		.byte	0x80
 2279 0cea 74       		.byte	0x74
 2280 0ceb 00       		.sleb128 0
 2281 0cec 33       		.byte	0x33
 2282 0ced 25       		.byte	0x25
 2283 0cee 30       		.byte	0x30
 2284 0cef 29       		.byte	0x29
 2285 0cf0 28       		.byte	0x28
 2286 0cf1 0100     		.2byte	0x1
 2287 0cf3 16       		.byte	0x16
 2288 0cf4 13       		.byte	0x13
 2289 0cf5 08       		.byte	0x8
 2290 0cf6 20       		.byte	0x20
 2291 0cf7 21       		.byte	0x21
 2292 0cf8 30       		.byte	0x30
 2293 0cf9 08       		.byte	0x8
 2294 0cfa 80       		.byte	0x80
 2295 0cfb 74       		.byte	0x74
 2296 0cfc 00       		.sleb128 0
 2297 0cfd 33       		.byte	0x33
 2298 0cfe 25       		.byte	0x25
 2299 0cff 30       		.byte	0x30
 2300 0d00 29       		.byte	0x29
 2301 0d01 28       		.byte	0x28
 2302 0d02 0100     		.2byte	0x1
 2303 0d04 16       		.byte	0x16
 2304 0d05 13       		.byte	0x13
 2305 0d06 74       		.byte	0x74
 2306 0d07 00       		.sleb128 0
 2307 0d08 4F       		.byte	0x4f
 2308 0d09 24       		.byte	0x24
 2309 0d0a 30       		.byte	0x30
 2310 0d0b 2D       		.byte	0x2d
 2311 0d0c 28       		.byte	0x28
 2312 0d0d 0100     		.2byte	0x1
 2313 0d0f 16       		.byte	0x16
 2314 0d10 13       		.byte	0x13
 2315 0d11 74       		.byte	0x74
 2316 0d12 00       		.sleb128 0
 2317 0d13 4E       		.byte	0x4e
 2318 0d14 24       		.byte	0x24
 2319 0d15 30       		.byte	0x30
 2320 0d16 2D       		.byte	0x2d
 2321 0d17 28       		.byte	0x28
 2322 0d18 0100     		.2byte	0x1
 2323 0d1a 16       		.byte	0x16
 2324 0d1b 13       		.byte	0x13
 2325 0d1c 0A       		.byte	0xa
 2326 0d1d 0001     		.2byte	0x100
 2327 0d1f 21       		.byte	0x21
 2328 0d20 30       		.byte	0x30
ARM GAS  /tmp/ccgFERJb.s 			page 42


 2329 0d21 08       		.byte	0x8
 2330 0d22 80       		.byte	0x80
 2331 0d23 74       		.byte	0x74
 2332 0d24 00       		.sleb128 0
 2333 0d25 33       		.byte	0x33
 2334 0d26 25       		.byte	0x25
 2335 0d27 30       		.byte	0x30
 2336 0d28 29       		.byte	0x29
 2337 0d29 28       		.byte	0x28
 2338 0d2a 0100     		.2byte	0x1
 2339 0d2c 16       		.byte	0x16
 2340 0d2d 13       		.byte	0x13
 2341 0d2e 08       		.byte	0x8
 2342 0d2f 20       		.byte	0x20
 2343 0d30 21       		.byte	0x21
 2344 0d31 30       		.byte	0x30
 2345 0d32 08       		.byte	0x8
 2346 0d33 80       		.byte	0x80
 2347 0d34 74       		.byte	0x74
 2348 0d35 00       		.sleb128 0
 2349 0d36 33       		.byte	0x33
 2350 0d37 25       		.byte	0x25
 2351 0d38 30       		.byte	0x30
 2352 0d39 29       		.byte	0x29
 2353 0d3a 28       		.byte	0x28
 2354 0d3b 0100     		.2byte	0x1
 2355 0d3d 16       		.byte	0x16
 2356 0d3e 13       		.byte	0x13
 2357 0d3f 74       		.byte	0x74
 2358 0d40 00       		.sleb128 0
 2359 0d41 4F       		.byte	0x4f
 2360 0d42 24       		.byte	0x24
 2361 0d43 30       		.byte	0x30
 2362 0d44 2D       		.byte	0x2d
 2363 0d45 28       		.byte	0x28
 2364 0d46 0100     		.2byte	0x1
 2365 0d48 16       		.byte	0x16
 2366 0d49 13       		.byte	0x13
 2367 0d4a 08       		.byte	0x8
 2368 0d4b 40       		.byte	0x40
 2369 0d4c 21       		.byte	0x21
 2370 0d4d 30       		.byte	0x30
 2371 0d4e 08       		.byte	0x8
 2372 0d4f 80       		.byte	0x80
 2373 0d50 74       		.byte	0x74
 2374 0d51 00       		.sleb128 0
 2375 0d52 33       		.byte	0x33
 2376 0d53 25       		.byte	0x25
 2377 0d54 30       		.byte	0x30
 2378 0d55 29       		.byte	0x29
 2379 0d56 28       		.byte	0x28
 2380 0d57 0100     		.2byte	0x1
 2381 0d59 16       		.byte	0x16
 2382 0d5a 13       		.byte	0x13
 2383 0d5b 08       		.byte	0x8
 2384 0d5c 20       		.byte	0x20
 2385 0d5d 21       		.byte	0x21
ARM GAS  /tmp/ccgFERJb.s 			page 43


 2386 0d5e 30       		.byte	0x30
 2387 0d5f 08       		.byte	0x8
 2388 0d60 80       		.byte	0x80
 2389 0d61 74       		.byte	0x74
 2390 0d62 00       		.sleb128 0
 2391 0d63 33       		.byte	0x33
 2392 0d64 25       		.byte	0x25
 2393 0d65 30       		.byte	0x30
 2394 0d66 29       		.byte	0x29
 2395 0d67 28       		.byte	0x28
 2396 0d68 0100     		.2byte	0x1
 2397 0d6a 16       		.byte	0x16
 2398 0d6b 13       		.byte	0x13
 2399 0d6c 74       		.byte	0x74
 2400 0d6d 00       		.sleb128 0
 2401 0d6e 4F       		.byte	0x4f
 2402 0d6f 24       		.byte	0x24
 2403 0d70 30       		.byte	0x30
 2404 0d71 2D       		.byte	0x2d
 2405 0d72 28       		.byte	0x28
 2406 0d73 0100     		.2byte	0x1
 2407 0d75 16       		.byte	0x16
 2408 0d76 13       		.byte	0x13
 2409 0d77 74       		.byte	0x74
 2410 0d78 00       		.sleb128 0
 2411 0d79 4E       		.byte	0x4e
 2412 0d7a 24       		.byte	0x24
 2413 0d7b 30       		.byte	0x30
 2414 0d7c 2D       		.byte	0x2d
 2415 0d7d 28       		.byte	0x28
 2416 0d7e 0100     		.2byte	0x1
 2417 0d80 16       		.byte	0x16
 2418 0d81 13       		.byte	0x13
 2419 0d82 74       		.byte	0x74
 2420 0d83 00       		.sleb128 0
 2421 0d84 4D       		.byte	0x4d
 2422 0d85 24       		.byte	0x24
 2423 0d86 30       		.byte	0x30
 2424 0d87 2D       		.byte	0x2d
 2425 0d88 28       		.byte	0x28
 2426 0d89 0100     		.2byte	0x1
 2427 0d8b 16       		.byte	0x16
 2428 0d8c 13       		.byte	0x13
 2429 0d8d 2E       		.uleb128 0x2e
 2430 0d8e 01       		.byte	0x1
 2431 0d8f 50       		.byte	0x50
 2432 0d90 05       		.byte	0x5
 2433 0d91 03       		.byte	0x3
 2434 0d92 04000000 		.4byte	.LANCHOR0+4
 2435 0d96 00       		.byte	0
 2436 0d97 00       		.byte	0
 2437 0d98 00       		.byte	0
 2438 0d99 2F       		.uleb128 0x2f
 2439 0d9a 30000000 		.4byte	.Ldebug_ranges0+0x30
 2440 0d9e 090E0000 		.4byte	0xe09
 2441 0da2 27       		.uleb128 0x27
 2442 0da3 F90A0000 		.4byte	0xaf9
ARM GAS  /tmp/ccgFERJb.s 			page 44


 2443 0da7 61020000 		.4byte	.LLST14
 2444 0dab 29       		.uleb128 0x29
 2445 0dac AE000000 		.4byte	.LBB45
 2446 0db0 B4000000 		.4byte	.LBE45
 2447 0db4 C20D0000 		.4byte	0xdc2
 2448 0db8 27       		.uleb128 0x27
 2449 0db9 070B0000 		.4byte	0xb07
 2450 0dbd 7F020000 		.4byte	.LLST15
 2451 0dc1 00       		.byte	0
 2452 0dc2 29       		.uleb128 0x29
 2453 0dc3 C2000000 		.4byte	.LBB46
 2454 0dc7 CA000000 		.4byte	.LBE46
 2455 0dcb D90D0000 		.4byte	0xdd9
 2456 0dcf 27       		.uleb128 0x27
 2457 0dd0 140B0000 		.4byte	0xb14
 2458 0dd4 92020000 		.4byte	.LLST16
 2459 0dd8 00       		.byte	0
 2460 0dd9 30       		.uleb128 0x30
 2461 0dda BA000000 		.4byte	.LVL40
 2462 0dde C90F0000 		.4byte	0xfc9
 2463 0de2 F00D0000 		.4byte	0xdf0
 2464 0de6 2E       		.uleb128 0x2e
 2465 0de7 01       		.byte	0x1
 2466 0de8 50       		.byte	0x50
 2467 0de9 05       		.byte	0x5
 2468 0dea 03       		.byte	0x3
 2469 0deb 30000000 		.4byte	.LANCHOR0+48
 2470 0def 00       		.byte	0
 2471 0df0 2D       		.uleb128 0x2d
 2472 0df1 E2000000 		.4byte	.LVL47
 2473 0df5 AA0F0000 		.4byte	0xfaa
 2474 0df9 2E       		.uleb128 0x2e
 2475 0dfa 01       		.byte	0x1
 2476 0dfb 51       		.byte	0x51
 2477 0dfc 01       		.byte	0x1
 2478 0dfd 38       		.byte	0x38
 2479 0dfe 2E       		.uleb128 0x2e
 2480 0dff 01       		.byte	0x1
 2481 0e00 50       		.byte	0x50
 2482 0e01 05       		.byte	0x5
 2483 0e02 03       		.byte	0x3
 2484 0e03 04000000 		.4byte	.LANCHOR0+4
 2485 0e07 00       		.byte	0
 2486 0e08 00       		.byte	0
 2487 0e09 30       		.uleb128 0x30
 2488 0e0a 58000000 		.4byte	.LVL21
 2489 0e0e E80F0000 		.4byte	0xfe8
 2490 0e12 1D0E0000 		.4byte	0xe1d
 2491 0e16 2E       		.uleb128 0x2e
 2492 0e17 01       		.byte	0x1
 2493 0e18 50       		.byte	0x50
 2494 0e19 02       		.byte	0x2
 2495 0e1a 76       		.byte	0x76
 2496 0e1b 00       		.sleb128 0
 2497 0e1c 00       		.byte	0
 2498 0e1d 30       		.uleb128 0x30
 2499 0e1e 70000000 		.4byte	.LVL26
ARM GAS  /tmp/ccgFERJb.s 			page 45


 2500 0e22 AA0F0000 		.4byte	0xfaa
 2501 0e26 3B0E0000 		.4byte	0xe3b
 2502 0e2a 2E       		.uleb128 0x2e
 2503 0e2b 01       		.byte	0x1
 2504 0e2c 51       		.byte	0x51
 2505 0e2d 03       		.byte	0x3
 2506 0e2e 0A       		.byte	0xa
 2507 0e2f 0002     		.2byte	0x200
 2508 0e31 2E       		.uleb128 0x2e
 2509 0e32 01       		.byte	0x1
 2510 0e33 50       		.byte	0x50
 2511 0e34 05       		.byte	0x5
 2512 0e35 03       		.byte	0x3
 2513 0e36 04000000 		.4byte	.LANCHOR0+4
 2514 0e3a 00       		.byte	0
 2515 0e3b 2D       		.uleb128 0x2d
 2516 0e3c D8000000 		.4byte	.LVL44
 2517 0e40 AA0F0000 		.4byte	0xfaa
 2518 0e44 2E       		.uleb128 0x2e
 2519 0e45 01       		.byte	0x1
 2520 0e46 51       		.byte	0x51
 2521 0e47 01       		.byte	0x1
 2522 0e48 40       		.byte	0x40
 2523 0e49 2E       		.uleb128 0x2e
 2524 0e4a 01       		.byte	0x1
 2525 0e4b 50       		.byte	0x50
 2526 0e4c 02       		.byte	0x2
 2527 0e4d 76       		.byte	0x76
 2528 0e4e 04       		.sleb128 4
 2529 0e4f 00       		.byte	0
 2530 0e50 00       		.byte	0
 2531 0e51 00       		.byte	0
 2532 0e52 31       		.uleb128 0x31
 2533 0e53 48000000 		.4byte	.LVL18
 2534 0e57 01       		.byte	0x1
 2535 0e58 02100000 		.4byte	0x1002
 2536 0e5c 00       		.byte	0
 2537 0e5d 23       		.uleb128 0x23
 2538 0e5e 01       		.byte	0x1
 2539 0e5f A5010000 		.4byte	.LASF124
 2540 0e63 01       		.byte	0x1
 2541 0e64 7501     		.2byte	0x175
 2542 0e66 01       		.byte	0x1
 2543 0e67 00000000 		.4byte	.LFB124
 2544 0e6b 30000000 		.4byte	.LFE124
 2545 0e6f B0020000 		.4byte	.LLST17
 2546 0e73 01       		.byte	0x1
 2547 0e74 970E0000 		.4byte	0xe97
 2548 0e78 2D       		.uleb128 0x2d
 2549 0e79 1A000000 		.4byte	.LVL48
 2550 0e7d 0D100000 		.4byte	0x100d
 2551 0e81 2E       		.uleb128 0x2e
 2552 0e82 01       		.byte	0x1
 2553 0e83 52       		.byte	0x52
 2554 0e84 05       		.byte	0x5
 2555 0e85 03       		.byte	0x3
 2556 0e86 00000000 		.4byte	notify1
ARM GAS  /tmp/ccgFERJb.s 			page 46


 2557 0e8a 2E       		.uleb128 0x2e
 2558 0e8b 01       		.byte	0x1
 2559 0e8c 51       		.byte	0x51
 2560 0e8d 01       		.byte	0x1
 2561 0e8e 30       		.byte	0x30
 2562 0e8f 2E       		.uleb128 0x2e
 2563 0e90 01       		.byte	0x1
 2564 0e91 50       		.byte	0x50
 2565 0e92 02       		.byte	0x2
 2566 0e93 74       		.byte	0x74
 2567 0e94 00       		.sleb128 0
 2568 0e95 00       		.byte	0
 2569 0e96 00       		.byte	0
 2570 0e97 23       		.uleb128 0x23
 2571 0e98 01       		.byte	0x1
 2572 0e99 AA030000 		.4byte	.LASF125
 2573 0e9d 01       		.byte	0x1
 2574 0e9e A601     		.2byte	0x1a6
 2575 0ea0 01       		.byte	0x1
 2576 0ea1 00000000 		.4byte	.LFB125
 2577 0ea5 6C000000 		.4byte	.LFE125
 2578 0ea9 D0020000 		.4byte	.LLST18
 2579 0ead 01       		.byte	0x1
 2580 0eae 1F0F0000 		.4byte	0xf1f
 2581 0eb2 32       		.uleb128 0x32
 2582 0eb3 73647000 		.ascii	"sdp\000"
 2583 0eb7 01       		.byte	0x1
 2584 0eb8 A601     		.2byte	0x1a6
 2585 0eba 040A0000 		.4byte	0xa04
 2586 0ebe F0020000 		.4byte	.LLST19
 2587 0ec2 33       		.uleb128 0x33
 2588 0ec3 AD040000 		.4byte	.LASF118
 2589 0ec7 01       		.byte	0x1
 2590 0ec8 A601     		.2byte	0x1a6
 2591 0eca 0A0A0000 		.4byte	0xa0a
 2592 0ece 24030000 		.4byte	.LLST20
 2593 0ed2 34       		.uleb128 0x34
 2594 0ed3 D7090000 		.4byte	0x9d7
 2595 0ed7 12000000 		.4byte	.LBB50
 2596 0edb 44000000 		.4byte	.LBE50
 2597 0edf 01       		.byte	0x1
 2598 0ee0 D701     		.2byte	0x1d7
 2599 0ee2 080F0000 		.4byte	0xf08
 2600 0ee6 35       		.uleb128 0x35
 2601 0ee7 EF090000 		.4byte	0x9ef
 2602 0eeb 2B       		.uleb128 0x2b
 2603 0eec E4090000 		.4byte	0x9e4
 2604 0ef0 5E030000 		.4byte	.LLST21
 2605 0ef4 2C       		.uleb128 0x2c
 2606 0ef5 12000000 		.4byte	.LBB51
 2607 0ef9 44000000 		.4byte	.LBE51
 2608 0efd 27       		.uleb128 0x27
 2609 0efe FA090000 		.4byte	0x9fa
 2610 0f02 71030000 		.4byte	.LLST22
 2611 0f06 00       		.byte	0
 2612 0f07 00       		.byte	0
 2613 0f08 2D       		.uleb128 0x2d
ARM GAS  /tmp/ccgFERJb.s 			page 47


 2614 0f09 62000000 		.4byte	.LVL55
 2615 0f0d 2C100000 		.4byte	0x102c
 2616 0f11 2E       		.uleb128 0x2e
 2617 0f12 01       		.byte	0x1
 2618 0f13 51       		.byte	0x51
 2619 0f14 02       		.byte	0x2
 2620 0f15 08       		.byte	0x8
 2621 0f16 C0       		.byte	0xc0
 2622 0f17 2E       		.uleb128 0x2e
 2623 0f18 01       		.byte	0x1
 2624 0f19 50       		.byte	0x50
 2625 0f1a 02       		.byte	0x2
 2626 0f1b 08       		.byte	0x8
 2627 0f1c 25       		.byte	0x25
 2628 0f1d 00       		.byte	0
 2629 0f1e 00       		.byte	0
 2630 0f1f 36       		.uleb128 0x36
 2631 0f20 01       		.byte	0x1
 2632 0f21 A2050000 		.4byte	.LASF126
 2633 0f25 01       		.byte	0x1
 2634 0f26 E301     		.2byte	0x1e3
 2635 0f28 01       		.byte	0x1
 2636 0f29 00000000 		.4byte	.LFB126
 2637 0f2d 34000000 		.4byte	.LFE126
 2638 0f31 02       		.byte	0x2
 2639 0f32 7D       		.byte	0x7d
 2640 0f33 00       		.sleb128 0
 2641 0f34 01       		.byte	0x1
 2642 0f35 790F0000 		.4byte	0xf79
 2643 0f39 32       		.uleb128 0x32
 2644 0f3a 73647000 		.ascii	"sdp\000"
 2645 0f3e 01       		.byte	0x1
 2646 0f3f E301     		.2byte	0x1e3
 2647 0f41 040A0000 		.4byte	0xa04
 2648 0f45 84030000 		.4byte	.LLST23
 2649 0f49 24       		.uleb128 0x24
 2650 0f4a 150A0000 		.4byte	0xa15
 2651 0f4e 0C000000 		.4byte	.LBB52
 2652 0f52 48000000 		.4byte	.Ldebug_ranges0+0x48
 2653 0f56 01       		.byte	0x1
 2654 0f57 E601     		.2byte	0x1e6
 2655 0f59 670F0000 		.4byte	0xf67
 2656 0f5d 2B       		.uleb128 0x2b
 2657 0f5e 220A0000 		.4byte	0xa22
 2658 0f62 A5030000 		.4byte	.LLST24
 2659 0f66 00       		.byte	0
 2660 0f67 37       		.uleb128 0x37
 2661 0f68 2E000000 		.4byte	.LVL60
 2662 0f6c 01       		.byte	0x1
 2663 0f6d 46100000 		.4byte	0x1046
 2664 0f71 2E       		.uleb128 0x2e
 2665 0f72 01       		.byte	0x1
 2666 0f73 50       		.byte	0x50
 2667 0f74 02       		.byte	0x2
 2668 0f75 08       		.byte	0x8
 2669 0f76 25       		.byte	0x25
 2670 0f77 00       		.byte	0
ARM GAS  /tmp/ccgFERJb.s 			page 48


 2671 0f78 00       		.byte	0
 2672 0f79 38       		.uleb128 0x38
 2673 0f7a CB000000 		.4byte	.LASF136
 2674 0f7e 01       		.byte	0x1
 2675 0f7f 49       		.byte	0x49
 2676 0f80 100A0000 		.4byte	0xa10
 2677 0f84 05       		.byte	0x5
 2678 0f85 03       		.byte	0x3
 2679 0f86 00000000 		.4byte	default_config
 2680 0f8a 39       		.uleb128 0x39
 2681 0f8b 55000000 		.4byte	.LASF127
 2682 0f8f 0F       		.byte	0xf
 2683 0f90 9806     		.2byte	0x698
 2684 0f92 CB050000 		.4byte	0x5cb
 2685 0f96 01       		.byte	0x1
 2686 0f97 01       		.byte	0x1
 2687 0f98 3A       		.uleb128 0x3a
 2688 0f99 53443100 		.ascii	"SD1\000"
 2689 0f9d 01       		.byte	0x1
 2690 0f9e 28       		.byte	0x28
 2691 0f9f 59080000 		.4byte	0x859
 2692 0fa3 01       		.byte	0x1
 2693 0fa4 05       		.byte	0x5
 2694 0fa5 03       		.byte	0x3
 2695 0fa6 00000000 		.4byte	SD1
 2696 0faa 3B       		.uleb128 0x3b
 2697 0fab 01       		.byte	0x1
 2698 0fac 1F010000 		.4byte	.LASF128
 2699 0fb0 09       		.byte	0x9
 2700 0fb1 BA       		.byte	0xba
 2701 0fb2 01       		.byte	0x1
 2702 0fb3 01       		.byte	0x1
 2703 0fb4 C30F0000 		.4byte	0xfc3
 2704 0fb8 12       		.uleb128 0x12
 2705 0fb9 C30F0000 		.4byte	0xfc3
 2706 0fbd 12       		.uleb128 0x12
 2707 0fbe 05010000 		.4byte	0x105
 2708 0fc2 00       		.byte	0
 2709 0fc3 09       		.uleb128 0x9
 2710 0fc4 04       		.byte	0x4
 2711 0fc5 2B040000 		.4byte	0x42b
 2712 0fc9 3C       		.uleb128 0x3c
 2713 0fca 01       		.byte	0x1
 2714 0fcb F7000000 		.4byte	.LASF137
 2715 0fcf 0A       		.byte	0xa
 2716 0fd0 6E01     		.2byte	0x16e
 2717 0fd2 01       		.byte	0x1
 2718 0fd3 EF000000 		.4byte	0xef
 2719 0fd7 01       		.byte	0x1
 2720 0fd8 E20F0000 		.4byte	0xfe2
 2721 0fdc 12       		.uleb128 0x12
 2722 0fdd E20F0000 		.4byte	0xfe2
 2723 0fe1 00       		.byte	0
 2724 0fe2 09       		.uleb128 0x9
 2725 0fe3 04       		.byte	0x4
 2726 0fe4 55050000 		.4byte	0x555
 2727 0fe8 3D       		.uleb128 0x3d
ARM GAS  /tmp/ccgFERJb.s 			page 49


 2728 0fe9 01       		.byte	0x1
 2729 0fea 9D040000 		.4byte	.LASF129
 2730 0fee 0C       		.byte	0xc
 2731 0fef 3901     		.2byte	0x139
 2732 0ff1 01       		.byte	0x1
 2733 0ff2 01       		.byte	0x1
 2734 0ff3 02100000 		.4byte	0x1002
 2735 0ff7 12       		.uleb128 0x12
 2736 0ff8 040A0000 		.4byte	0xa04
 2737 0ffc 12       		.uleb128 0x12
 2738 0ffd 49000000 		.4byte	0x49
 2739 1001 00       		.byte	0
 2740 1002 3E       		.uleb128 0x3e
 2741 1003 01       		.byte	0x1
 2742 1004 17020000 		.4byte	.LASF138
 2743 1008 07       		.byte	0x7
 2744 1009 0302     		.2byte	0x203
 2745 100b 01       		.byte	0x1
 2746 100c 01       		.byte	0x1
 2747 100d 3D       		.uleb128 0x3d
 2748 100e 01       		.byte	0x1
 2749 100f 62000000 		.4byte	.LASF130
 2750 1013 0C       		.byte	0xc
 2751 1014 3601     		.2byte	0x136
 2752 1016 01       		.byte	0x1
 2753 1017 01       		.byte	0x1
 2754 1018 2C100000 		.4byte	0x102c
 2755 101c 12       		.uleb128 0x12
 2756 101d 040A0000 		.4byte	0xa04
 2757 1021 12       		.uleb128 0x12
 2758 1022 21050000 		.4byte	0x521
 2759 1026 12       		.uleb128 0x12
 2760 1027 21050000 		.4byte	0x521
 2761 102b 00       		.byte	0
 2762 102c 3D       		.uleb128 0x3d
 2763 102d 01       		.byte	0x1
 2764 102e 24000000 		.4byte	.LASF131
 2765 1032 0E       		.byte	0xe
 2766 1033 2301     		.2byte	0x123
 2767 1035 01       		.byte	0x1
 2768 1036 01       		.byte	0x1
 2769 1037 46100000 		.4byte	0x1046
 2770 103b 12       		.uleb128 0x12
 2771 103c 86000000 		.4byte	0x86
 2772 1040 12       		.uleb128 0x12
 2773 1041 86000000 		.4byte	0x86
 2774 1045 00       		.byte	0
 2775 1046 3F       		.uleb128 0x3f
 2776 1047 01       		.byte	0x1
 2777 1048 6F040000 		.4byte	.LASF139
 2778 104c 0E       		.byte	0xe
 2779 104d 2401     		.2byte	0x124
 2780 104f 01       		.byte	0x1
 2781 1050 01       		.byte	0x1
 2782 1051 12       		.uleb128 0x12
 2783 1052 86000000 		.4byte	0x86
 2784 1056 00       		.byte	0
ARM GAS  /tmp/ccgFERJb.s 			page 50


 2785 1057 00       		.byte	0
 2786              		.section	.debug_abbrev,"",%progbits
 2787              	.Ldebug_abbrev0:
 2788 0000 01       		.uleb128 0x1
 2789 0001 11       		.uleb128 0x11
 2790 0002 01       		.byte	0x1
 2791 0003 25       		.uleb128 0x25
 2792 0004 0E       		.uleb128 0xe
 2793 0005 13       		.uleb128 0x13
 2794 0006 0B       		.uleb128 0xb
 2795 0007 03       		.uleb128 0x3
 2796 0008 0E       		.uleb128 0xe
 2797 0009 1B       		.uleb128 0x1b
 2798 000a 0E       		.uleb128 0xe
 2799 000b 55       		.uleb128 0x55
 2800 000c 06       		.uleb128 0x6
 2801 000d 11       		.uleb128 0x11
 2802 000e 01       		.uleb128 0x1
 2803 000f 52       		.uleb128 0x52
 2804 0010 01       		.uleb128 0x1
 2805 0011 10       		.uleb128 0x10
 2806 0012 06       		.uleb128 0x6
 2807 0013 00       		.byte	0
 2808 0014 00       		.byte	0
 2809 0015 02       		.uleb128 0x2
 2810 0016 24       		.uleb128 0x24
 2811 0017 00       		.byte	0
 2812 0018 0B       		.uleb128 0xb
 2813 0019 0B       		.uleb128 0xb
 2814 001a 3E       		.uleb128 0x3e
 2815 001b 0B       		.uleb128 0xb
 2816 001c 03       		.uleb128 0x3
 2817 001d 08       		.uleb128 0x8
 2818 001e 00       		.byte	0
 2819 001f 00       		.byte	0
 2820 0020 03       		.uleb128 0x3
 2821 0021 16       		.uleb128 0x16
 2822 0022 00       		.byte	0
 2823 0023 03       		.uleb128 0x3
 2824 0024 0E       		.uleb128 0xe
 2825 0025 3A       		.uleb128 0x3a
 2826 0026 0B       		.uleb128 0xb
 2827 0027 3B       		.uleb128 0x3b
 2828 0028 0B       		.uleb128 0xb
 2829 0029 49       		.uleb128 0x49
 2830 002a 13       		.uleb128 0x13
 2831 002b 00       		.byte	0
 2832 002c 00       		.byte	0
 2833 002d 04       		.uleb128 0x4
 2834 002e 24       		.uleb128 0x24
 2835 002f 00       		.byte	0
 2836 0030 0B       		.uleb128 0xb
 2837 0031 0B       		.uleb128 0xb
 2838 0032 3E       		.uleb128 0x3e
 2839 0033 0B       		.uleb128 0xb
 2840 0034 03       		.uleb128 0x3
 2841 0035 0E       		.uleb128 0xe
ARM GAS  /tmp/ccgFERJb.s 			page 51


 2842 0036 00       		.byte	0
 2843 0037 00       		.byte	0
 2844 0038 05       		.uleb128 0x5
 2845 0039 13       		.uleb128 0x13
 2846 003a 01       		.byte	0x1
 2847 003b 03       		.uleb128 0x3
 2848 003c 0E       		.uleb128 0xe
 2849 003d 0B       		.uleb128 0xb
 2850 003e 0B       		.uleb128 0xb
 2851 003f 3A       		.uleb128 0x3a
 2852 0040 0B       		.uleb128 0xb
 2853 0041 3B       		.uleb128 0x3b
 2854 0042 0B       		.uleb128 0xb
 2855 0043 01       		.uleb128 0x1
 2856 0044 13       		.uleb128 0x13
 2857 0045 00       		.byte	0
 2858 0046 00       		.byte	0
 2859 0047 06       		.uleb128 0x6
 2860 0048 0D       		.uleb128 0xd
 2861 0049 00       		.byte	0
 2862 004a 03       		.uleb128 0x3
 2863 004b 0E       		.uleb128 0xe
 2864 004c 3A       		.uleb128 0x3a
 2865 004d 0B       		.uleb128 0xb
 2866 004e 3B       		.uleb128 0x3b
 2867 004f 0B       		.uleb128 0xb
 2868 0050 49       		.uleb128 0x49
 2869 0051 13       		.uleb128 0x13
 2870 0052 38       		.uleb128 0x38
 2871 0053 0A       		.uleb128 0xa
 2872 0054 00       		.byte	0
 2873 0055 00       		.byte	0
 2874 0056 07       		.uleb128 0x7
 2875 0057 0D       		.uleb128 0xd
 2876 0058 00       		.byte	0
 2877 0059 03       		.uleb128 0x3
 2878 005a 08       		.uleb128 0x8
 2879 005b 3A       		.uleb128 0x3a
 2880 005c 0B       		.uleb128 0xb
 2881 005d 3B       		.uleb128 0x3b
 2882 005e 0B       		.uleb128 0xb
 2883 005f 49       		.uleb128 0x49
 2884 0060 13       		.uleb128 0x13
 2885 0061 38       		.uleb128 0x38
 2886 0062 0A       		.uleb128 0xa
 2887 0063 00       		.byte	0
 2888 0064 00       		.byte	0
 2889 0065 08       		.uleb128 0x8
 2890 0066 13       		.uleb128 0x13
 2891 0067 01       		.byte	0x1
 2892 0068 0B       		.uleb128 0xb
 2893 0069 0B       		.uleb128 0xb
 2894 006a 3A       		.uleb128 0x3a
 2895 006b 0B       		.uleb128 0xb
 2896 006c 3B       		.uleb128 0x3b
 2897 006d 0B       		.uleb128 0xb
 2898 006e 01       		.uleb128 0x1
ARM GAS  /tmp/ccgFERJb.s 			page 52


 2899 006f 13       		.uleb128 0x13
 2900 0070 00       		.byte	0
 2901 0071 00       		.byte	0
 2902 0072 09       		.uleb128 0x9
 2903 0073 0F       		.uleb128 0xf
 2904 0074 00       		.byte	0
 2905 0075 0B       		.uleb128 0xb
 2906 0076 0B       		.uleb128 0xb
 2907 0077 49       		.uleb128 0x49
 2908 0078 13       		.uleb128 0x13
 2909 0079 00       		.byte	0
 2910 007a 00       		.byte	0
 2911 007b 0A       		.uleb128 0xa
 2912 007c 0F       		.uleb128 0xf
 2913 007d 00       		.byte	0
 2914 007e 0B       		.uleb128 0xb
 2915 007f 0B       		.uleb128 0xb
 2916 0080 00       		.byte	0
 2917 0081 00       		.byte	0
 2918 0082 0B       		.uleb128 0xb
 2919 0083 13       		.uleb128 0x13
 2920 0084 01       		.byte	0x1
 2921 0085 03       		.uleb128 0x3
 2922 0086 0E       		.uleb128 0xe
 2923 0087 0B       		.uleb128 0xb
 2924 0088 0B       		.uleb128 0xb
 2925 0089 3A       		.uleb128 0x3a
 2926 008a 0B       		.uleb128 0xb
 2927 008b 3B       		.uleb128 0x3b
 2928 008c 05       		.uleb128 0x5
 2929 008d 01       		.uleb128 0x1
 2930 008e 13       		.uleb128 0x13
 2931 008f 00       		.byte	0
 2932 0090 00       		.byte	0
 2933 0091 0C       		.uleb128 0xc
 2934 0092 0D       		.uleb128 0xd
 2935 0093 00       		.byte	0
 2936 0094 03       		.uleb128 0x3
 2937 0095 08       		.uleb128 0x8
 2938 0096 3A       		.uleb128 0x3a
 2939 0097 0B       		.uleb128 0xb
 2940 0098 3B       		.uleb128 0x3b
 2941 0099 05       		.uleb128 0x5
 2942 009a 49       		.uleb128 0x49
 2943 009b 13       		.uleb128 0x13
 2944 009c 38       		.uleb128 0x38
 2945 009d 0A       		.uleb128 0xa
 2946 009e 00       		.byte	0
 2947 009f 00       		.byte	0
 2948 00a0 0D       		.uleb128 0xd
 2949 00a1 35       		.uleb128 0x35
 2950 00a2 00       		.byte	0
 2951 00a3 49       		.uleb128 0x49
 2952 00a4 13       		.uleb128 0x13
 2953 00a5 00       		.byte	0
 2954 00a6 00       		.byte	0
 2955 00a7 0E       		.uleb128 0xe
ARM GAS  /tmp/ccgFERJb.s 			page 53


 2956 00a8 17       		.uleb128 0x17
 2957 00a9 01       		.byte	0x1
 2958 00aa 0B       		.uleb128 0xb
 2959 00ab 0B       		.uleb128 0xb
 2960 00ac 3A       		.uleb128 0x3a
 2961 00ad 0B       		.uleb128 0xb
 2962 00ae 3B       		.uleb128 0x3b
 2963 00af 0B       		.uleb128 0xb
 2964 00b0 01       		.uleb128 0x1
 2965 00b1 13       		.uleb128 0x13
 2966 00b2 00       		.byte	0
 2967 00b3 00       		.byte	0
 2968 00b4 0F       		.uleb128 0xf
 2969 00b5 0D       		.uleb128 0xd
 2970 00b6 00       		.byte	0
 2971 00b7 03       		.uleb128 0x3
 2972 00b8 0E       		.uleb128 0xe
 2973 00b9 3A       		.uleb128 0x3a
 2974 00ba 0B       		.uleb128 0xb
 2975 00bb 3B       		.uleb128 0x3b
 2976 00bc 0B       		.uleb128 0xb
 2977 00bd 49       		.uleb128 0x49
 2978 00be 13       		.uleb128 0x13
 2979 00bf 00       		.byte	0
 2980 00c0 00       		.byte	0
 2981 00c1 10       		.uleb128 0x10
 2982 00c2 26       		.uleb128 0x26
 2983 00c3 00       		.byte	0
 2984 00c4 49       		.uleb128 0x49
 2985 00c5 13       		.uleb128 0x13
 2986 00c6 00       		.byte	0
 2987 00c7 00       		.byte	0
 2988 00c8 11       		.uleb128 0x11
 2989 00c9 15       		.uleb128 0x15
 2990 00ca 01       		.byte	0x1
 2991 00cb 27       		.uleb128 0x27
 2992 00cc 0C       		.uleb128 0xc
 2993 00cd 49       		.uleb128 0x49
 2994 00ce 13       		.uleb128 0x13
 2995 00cf 01       		.uleb128 0x1
 2996 00d0 13       		.uleb128 0x13
 2997 00d1 00       		.byte	0
 2998 00d2 00       		.byte	0
 2999 00d3 12       		.uleb128 0x12
 3000 00d4 05       		.uleb128 0x5
 3001 00d5 00       		.byte	0
 3002 00d6 49       		.uleb128 0x49
 3003 00d7 13       		.uleb128 0x13
 3004 00d8 00       		.byte	0
 3005 00d9 00       		.byte	0
 3006 00da 13       		.uleb128 0x13
 3007 00db 15       		.uleb128 0x15
 3008 00dc 01       		.byte	0x1
 3009 00dd 27       		.uleb128 0x27
 3010 00de 0C       		.uleb128 0xc
 3011 00df 01       		.uleb128 0x1
 3012 00e0 13       		.uleb128 0x13
ARM GAS  /tmp/ccgFERJb.s 			page 54


 3013 00e1 00       		.byte	0
 3014 00e2 00       		.byte	0
 3015 00e3 14       		.uleb128 0x14
 3016 00e4 13       		.uleb128 0x13
 3017 00e5 01       		.byte	0x1
 3018 00e6 0B       		.uleb128 0xb
 3019 00e7 0B       		.uleb128 0xb
 3020 00e8 3A       		.uleb128 0x3a
 3021 00e9 0B       		.uleb128 0xb
 3022 00ea 3B       		.uleb128 0x3b
 3023 00eb 05       		.uleb128 0x5
 3024 00ec 01       		.uleb128 0x1
 3025 00ed 13       		.uleb128 0x13
 3026 00ee 00       		.byte	0
 3027 00ef 00       		.byte	0
 3028 00f0 15       		.uleb128 0x15
 3029 00f1 0D       		.uleb128 0xd
 3030 00f2 00       		.byte	0
 3031 00f3 03       		.uleb128 0x3
 3032 00f4 0E       		.uleb128 0xe
 3033 00f5 3A       		.uleb128 0x3a
 3034 00f6 0B       		.uleb128 0xb
 3035 00f7 3B       		.uleb128 0x3b
 3036 00f8 05       		.uleb128 0x5
 3037 00f9 49       		.uleb128 0x49
 3038 00fa 13       		.uleb128 0x13
 3039 00fb 38       		.uleb128 0x38
 3040 00fc 0A       		.uleb128 0xa
 3041 00fd 00       		.byte	0
 3042 00fe 00       		.byte	0
 3043 00ff 16       		.uleb128 0x16
 3044 0100 16       		.uleb128 0x16
 3045 0101 00       		.byte	0
 3046 0102 03       		.uleb128 0x3
 3047 0103 0E       		.uleb128 0xe
 3048 0104 3A       		.uleb128 0x3a
 3049 0105 0B       		.uleb128 0xb
 3050 0106 3B       		.uleb128 0x3b
 3051 0107 05       		.uleb128 0x5
 3052 0108 49       		.uleb128 0x49
 3053 0109 13       		.uleb128 0x13
 3054 010a 00       		.byte	0
 3055 010b 00       		.byte	0
 3056 010c 17       		.uleb128 0x17
 3057 010d 04       		.uleb128 0x4
 3058 010e 01       		.byte	0x1
 3059 010f 0B       		.uleb128 0xb
 3060 0110 0B       		.uleb128 0xb
 3061 0111 3A       		.uleb128 0x3a
 3062 0112 0B       		.uleb128 0xb
 3063 0113 3B       		.uleb128 0x3b
 3064 0114 0B       		.uleb128 0xb
 3065 0115 01       		.uleb128 0x1
 3066 0116 13       		.uleb128 0x13
 3067 0117 00       		.byte	0
 3068 0118 00       		.byte	0
 3069 0119 18       		.uleb128 0x18
ARM GAS  /tmp/ccgFERJb.s 			page 55


 3070 011a 28       		.uleb128 0x28
 3071 011b 00       		.byte	0
 3072 011c 03       		.uleb128 0x3
 3073 011d 0E       		.uleb128 0xe
 3074 011e 1C       		.uleb128 0x1c
 3075 011f 0D       		.uleb128 0xd
 3076 0120 00       		.byte	0
 3077 0121 00       		.byte	0
 3078 0122 19       		.uleb128 0x19
 3079 0123 01       		.uleb128 0x1
 3080 0124 01       		.byte	0x1
 3081 0125 49       		.uleb128 0x49
 3082 0126 13       		.uleb128 0x13
 3083 0127 01       		.uleb128 0x1
 3084 0128 13       		.uleb128 0x13
 3085 0129 00       		.byte	0
 3086 012a 00       		.byte	0
 3087 012b 1A       		.uleb128 0x1a
 3088 012c 21       		.uleb128 0x21
 3089 012d 00       		.byte	0
 3090 012e 49       		.uleb128 0x49
 3091 012f 13       		.uleb128 0x13
 3092 0130 2F       		.uleb128 0x2f
 3093 0131 0B       		.uleb128 0xb
 3094 0132 00       		.byte	0
 3095 0133 00       		.byte	0
 3096 0134 1B       		.uleb128 0x1b
 3097 0135 2E       		.uleb128 0x2e
 3098 0136 01       		.byte	0x1
 3099 0137 03       		.uleb128 0x3
 3100 0138 0E       		.uleb128 0xe
 3101 0139 3A       		.uleb128 0x3a
 3102 013a 0B       		.uleb128 0xb
 3103 013b 3B       		.uleb128 0x3b
 3104 013c 0B       		.uleb128 0xb
 3105 013d 27       		.uleb128 0x27
 3106 013e 0C       		.uleb128 0xc
 3107 013f 20       		.uleb128 0x20
 3108 0140 0B       		.uleb128 0xb
 3109 0141 01       		.uleb128 0x1
 3110 0142 13       		.uleb128 0x13
 3111 0143 00       		.byte	0
 3112 0144 00       		.byte	0
 3113 0145 1C       		.uleb128 0x1c
 3114 0146 05       		.uleb128 0x5
 3115 0147 00       		.byte	0
 3116 0148 03       		.uleb128 0x3
 3117 0149 08       		.uleb128 0x8
 3118 014a 3A       		.uleb128 0x3a
 3119 014b 0B       		.uleb128 0xb
 3120 014c 3B       		.uleb128 0x3b
 3121 014d 0B       		.uleb128 0xb
 3122 014e 49       		.uleb128 0x49
 3123 014f 13       		.uleb128 0x13
 3124 0150 00       		.byte	0
 3125 0151 00       		.byte	0
 3126 0152 1D       		.uleb128 0x1d
ARM GAS  /tmp/ccgFERJb.s 			page 56


 3127 0153 05       		.uleb128 0x5
 3128 0154 00       		.byte	0
 3129 0155 03       		.uleb128 0x3
 3130 0156 0E       		.uleb128 0xe
 3131 0157 3A       		.uleb128 0x3a
 3132 0158 0B       		.uleb128 0xb
 3133 0159 3B       		.uleb128 0x3b
 3134 015a 0B       		.uleb128 0xb
 3135 015b 49       		.uleb128 0x49
 3136 015c 13       		.uleb128 0x13
 3137 015d 00       		.byte	0
 3138 015e 00       		.byte	0
 3139 015f 1E       		.uleb128 0x1e
 3140 0160 34       		.uleb128 0x34
 3141 0161 00       		.byte	0
 3142 0162 03       		.uleb128 0x3
 3143 0163 08       		.uleb128 0x8
 3144 0164 3A       		.uleb128 0x3a
 3145 0165 0B       		.uleb128 0xb
 3146 0166 3B       		.uleb128 0x3b
 3147 0167 0B       		.uleb128 0xb
 3148 0168 49       		.uleb128 0x49
 3149 0169 13       		.uleb128 0x13
 3150 016a 00       		.byte	0
 3151 016b 00       		.byte	0
 3152 016c 1F       		.uleb128 0x1f
 3153 016d 0B       		.uleb128 0xb
 3154 016e 01       		.byte	0x1
 3155 016f 01       		.uleb128 0x1
 3156 0170 13       		.uleb128 0x13
 3157 0171 00       		.byte	0
 3158 0172 00       		.byte	0
 3159 0173 20       		.uleb128 0x20
 3160 0174 0B       		.uleb128 0xb
 3161 0175 01       		.byte	0x1
 3162 0176 00       		.byte	0
 3163 0177 00       		.byte	0
 3164 0178 21       		.uleb128 0x21
 3165 0179 2E       		.uleb128 0x2e
 3166 017a 01       		.byte	0x1
 3167 017b 03       		.uleb128 0x3
 3168 017c 0E       		.uleb128 0xe
 3169 017d 3A       		.uleb128 0x3a
 3170 017e 0B       		.uleb128 0xb
 3171 017f 3B       		.uleb128 0x3b
 3172 0180 0B       		.uleb128 0xb
 3173 0181 27       		.uleb128 0x27
 3174 0182 0C       		.uleb128 0xc
 3175 0183 11       		.uleb128 0x11
 3176 0184 01       		.uleb128 0x1
 3177 0185 12       		.uleb128 0x12
 3178 0186 01       		.uleb128 0x1
 3179 0187 40       		.uleb128 0x40
 3180 0188 0A       		.uleb128 0xa
 3181 0189 9742     		.uleb128 0x2117
 3182 018b 0C       		.uleb128 0xc
 3183 018c 01       		.uleb128 0x1
ARM GAS  /tmp/ccgFERJb.s 			page 57


 3184 018d 13       		.uleb128 0x13
 3185 018e 00       		.byte	0
 3186 018f 00       		.byte	0
 3187 0190 22       		.uleb128 0x22
 3188 0191 05       		.uleb128 0x5
 3189 0192 00       		.byte	0
 3190 0193 03       		.uleb128 0x3
 3191 0194 08       		.uleb128 0x8
 3192 0195 3A       		.uleb128 0x3a
 3193 0196 0B       		.uleb128 0xb
 3194 0197 3B       		.uleb128 0x3b
 3195 0198 0B       		.uleb128 0xb
 3196 0199 49       		.uleb128 0x49
 3197 019a 13       		.uleb128 0x13
 3198 019b 02       		.uleb128 0x2
 3199 019c 06       		.uleb128 0x6
 3200 019d 00       		.byte	0
 3201 019e 00       		.byte	0
 3202 019f 23       		.uleb128 0x23
 3203 01a0 2E       		.uleb128 0x2e
 3204 01a1 01       		.byte	0x1
 3205 01a2 3F       		.uleb128 0x3f
 3206 01a3 0C       		.uleb128 0xc
 3207 01a4 03       		.uleb128 0x3
 3208 01a5 0E       		.uleb128 0xe
 3209 01a6 3A       		.uleb128 0x3a
 3210 01a7 0B       		.uleb128 0xb
 3211 01a8 3B       		.uleb128 0x3b
 3212 01a9 05       		.uleb128 0x5
 3213 01aa 27       		.uleb128 0x27
 3214 01ab 0C       		.uleb128 0xc
 3215 01ac 11       		.uleb128 0x11
 3216 01ad 01       		.uleb128 0x1
 3217 01ae 12       		.uleb128 0x12
 3218 01af 01       		.uleb128 0x1
 3219 01b0 40       		.uleb128 0x40
 3220 01b1 06       		.uleb128 0x6
 3221 01b2 9742     		.uleb128 0x2117
 3222 01b4 0C       		.uleb128 0xc
 3223 01b5 01       		.uleb128 0x1
 3224 01b6 13       		.uleb128 0x13
 3225 01b7 00       		.byte	0
 3226 01b8 00       		.byte	0
 3227 01b9 24       		.uleb128 0x24
 3228 01ba 1D       		.uleb128 0x1d
 3229 01bb 01       		.byte	0x1
 3230 01bc 31       		.uleb128 0x31
 3231 01bd 13       		.uleb128 0x13
 3232 01be 52       		.uleb128 0x52
 3233 01bf 01       		.uleb128 0x1
 3234 01c0 55       		.uleb128 0x55
 3235 01c1 06       		.uleb128 0x6
 3236 01c2 58       		.uleb128 0x58
 3237 01c3 0B       		.uleb128 0xb
 3238 01c4 59       		.uleb128 0x59
 3239 01c5 05       		.uleb128 0x5
 3240 01c6 01       		.uleb128 0x1
ARM GAS  /tmp/ccgFERJb.s 			page 58


 3241 01c7 13       		.uleb128 0x13
 3242 01c8 00       		.byte	0
 3243 01c9 00       		.byte	0
 3244 01ca 25       		.uleb128 0x25
 3245 01cb 0B       		.uleb128 0xb
 3246 01cc 01       		.byte	0x1
 3247 01cd 55       		.uleb128 0x55
 3248 01ce 06       		.uleb128 0x6
 3249 01cf 00       		.byte	0
 3250 01d0 00       		.byte	0
 3251 01d1 26       		.uleb128 0x26
 3252 01d2 34       		.uleb128 0x34
 3253 01d3 00       		.byte	0
 3254 01d4 31       		.uleb128 0x31
 3255 01d5 13       		.uleb128 0x13
 3256 01d6 02       		.uleb128 0x2
 3257 01d7 0A       		.uleb128 0xa
 3258 01d8 00       		.byte	0
 3259 01d9 00       		.byte	0
 3260 01da 27       		.uleb128 0x27
 3261 01db 34       		.uleb128 0x34
 3262 01dc 00       		.byte	0
 3263 01dd 31       		.uleb128 0x31
 3264 01de 13       		.uleb128 0x13
 3265 01df 02       		.uleb128 0x2
 3266 01e0 06       		.uleb128 0x6
 3267 01e1 00       		.byte	0
 3268 01e2 00       		.byte	0
 3269 01e3 28       		.uleb128 0x28
 3270 01e4 05       		.uleb128 0x5
 3271 01e5 00       		.byte	0
 3272 01e6 31       		.uleb128 0x31
 3273 01e7 13       		.uleb128 0x13
 3274 01e8 02       		.uleb128 0x2
 3275 01e9 0A       		.uleb128 0xa
 3276 01ea 00       		.byte	0
 3277 01eb 00       		.byte	0
 3278 01ec 29       		.uleb128 0x29
 3279 01ed 0B       		.uleb128 0xb
 3280 01ee 01       		.byte	0x1
 3281 01ef 11       		.uleb128 0x11
 3282 01f0 01       		.uleb128 0x1
 3283 01f1 12       		.uleb128 0x12
 3284 01f2 01       		.uleb128 0x1
 3285 01f3 01       		.uleb128 0x1
 3286 01f4 13       		.uleb128 0x13
 3287 01f5 00       		.byte	0
 3288 01f6 00       		.byte	0
 3289 01f7 2A       		.uleb128 0x2a
 3290 01f8 1D       		.uleb128 0x1d
 3291 01f9 01       		.byte	0x1
 3292 01fa 31       		.uleb128 0x31
 3293 01fb 13       		.uleb128 0x13
 3294 01fc 11       		.uleb128 0x11
 3295 01fd 01       		.uleb128 0x1
 3296 01fe 12       		.uleb128 0x12
 3297 01ff 01       		.uleb128 0x1
ARM GAS  /tmp/ccgFERJb.s 			page 59


 3298 0200 58       		.uleb128 0x58
 3299 0201 0B       		.uleb128 0xb
 3300 0202 59       		.uleb128 0x59
 3301 0203 0B       		.uleb128 0xb
 3302 0204 01       		.uleb128 0x1
 3303 0205 13       		.uleb128 0x13
 3304 0206 00       		.byte	0
 3305 0207 00       		.byte	0
 3306 0208 2B       		.uleb128 0x2b
 3307 0209 05       		.uleb128 0x5
 3308 020a 00       		.byte	0
 3309 020b 31       		.uleb128 0x31
 3310 020c 13       		.uleb128 0x13
 3311 020d 02       		.uleb128 0x2
 3312 020e 06       		.uleb128 0x6
 3313 020f 00       		.byte	0
 3314 0210 00       		.byte	0
 3315 0211 2C       		.uleb128 0x2c
 3316 0212 0B       		.uleb128 0xb
 3317 0213 01       		.byte	0x1
 3318 0214 11       		.uleb128 0x11
 3319 0215 01       		.uleb128 0x1
 3320 0216 12       		.uleb128 0x12
 3321 0217 01       		.uleb128 0x1
 3322 0218 00       		.byte	0
 3323 0219 00       		.byte	0
 3324 021a 2D       		.uleb128 0x2d
 3325 021b 898201   		.uleb128 0x4109
 3326 021e 01       		.byte	0x1
 3327 021f 11       		.uleb128 0x11
 3328 0220 01       		.uleb128 0x1
 3329 0221 31       		.uleb128 0x31
 3330 0222 13       		.uleb128 0x13
 3331 0223 00       		.byte	0
 3332 0224 00       		.byte	0
 3333 0225 2E       		.uleb128 0x2e
 3334 0226 8A8201   		.uleb128 0x410a
 3335 0229 00       		.byte	0
 3336 022a 02       		.uleb128 0x2
 3337 022b 0A       		.uleb128 0xa
 3338 022c 9142     		.uleb128 0x2111
 3339 022e 0A       		.uleb128 0xa
 3340 022f 00       		.byte	0
 3341 0230 00       		.byte	0
 3342 0231 2F       		.uleb128 0x2f
 3343 0232 0B       		.uleb128 0xb
 3344 0233 01       		.byte	0x1
 3345 0234 55       		.uleb128 0x55
 3346 0235 06       		.uleb128 0x6
 3347 0236 01       		.uleb128 0x1
 3348 0237 13       		.uleb128 0x13
 3349 0238 00       		.byte	0
 3350 0239 00       		.byte	0
 3351 023a 30       		.uleb128 0x30
 3352 023b 898201   		.uleb128 0x4109
 3353 023e 01       		.byte	0x1
 3354 023f 11       		.uleb128 0x11
ARM GAS  /tmp/ccgFERJb.s 			page 60


 3355 0240 01       		.uleb128 0x1
 3356 0241 31       		.uleb128 0x31
 3357 0242 13       		.uleb128 0x13
 3358 0243 01       		.uleb128 0x1
 3359 0244 13       		.uleb128 0x13
 3360 0245 00       		.byte	0
 3361 0246 00       		.byte	0
 3362 0247 31       		.uleb128 0x31
 3363 0248 898201   		.uleb128 0x4109
 3364 024b 00       		.byte	0
 3365 024c 11       		.uleb128 0x11
 3366 024d 01       		.uleb128 0x1
 3367 024e 9542     		.uleb128 0x2115
 3368 0250 0C       		.uleb128 0xc
 3369 0251 31       		.uleb128 0x31
 3370 0252 13       		.uleb128 0x13
 3371 0253 00       		.byte	0
 3372 0254 00       		.byte	0
 3373 0255 32       		.uleb128 0x32
 3374 0256 05       		.uleb128 0x5
 3375 0257 00       		.byte	0
 3376 0258 03       		.uleb128 0x3
 3377 0259 08       		.uleb128 0x8
 3378 025a 3A       		.uleb128 0x3a
 3379 025b 0B       		.uleb128 0xb
 3380 025c 3B       		.uleb128 0x3b
 3381 025d 05       		.uleb128 0x5
 3382 025e 49       		.uleb128 0x49
 3383 025f 13       		.uleb128 0x13
 3384 0260 02       		.uleb128 0x2
 3385 0261 06       		.uleb128 0x6
 3386 0262 00       		.byte	0
 3387 0263 00       		.byte	0
 3388 0264 33       		.uleb128 0x33
 3389 0265 05       		.uleb128 0x5
 3390 0266 00       		.byte	0
 3391 0267 03       		.uleb128 0x3
 3392 0268 0E       		.uleb128 0xe
 3393 0269 3A       		.uleb128 0x3a
 3394 026a 0B       		.uleb128 0xb
 3395 026b 3B       		.uleb128 0x3b
 3396 026c 05       		.uleb128 0x5
 3397 026d 49       		.uleb128 0x49
 3398 026e 13       		.uleb128 0x13
 3399 026f 02       		.uleb128 0x2
 3400 0270 06       		.uleb128 0x6
 3401 0271 00       		.byte	0
 3402 0272 00       		.byte	0
 3403 0273 34       		.uleb128 0x34
 3404 0274 1D       		.uleb128 0x1d
 3405 0275 01       		.byte	0x1
 3406 0276 31       		.uleb128 0x31
 3407 0277 13       		.uleb128 0x13
 3408 0278 11       		.uleb128 0x11
 3409 0279 01       		.uleb128 0x1
 3410 027a 12       		.uleb128 0x12
 3411 027b 01       		.uleb128 0x1
ARM GAS  /tmp/ccgFERJb.s 			page 61


 3412 027c 58       		.uleb128 0x58
 3413 027d 0B       		.uleb128 0xb
 3414 027e 59       		.uleb128 0x59
 3415 027f 05       		.uleb128 0x5
 3416 0280 01       		.uleb128 0x1
 3417 0281 13       		.uleb128 0x13
 3418 0282 00       		.byte	0
 3419 0283 00       		.byte	0
 3420 0284 35       		.uleb128 0x35
 3421 0285 05       		.uleb128 0x5
 3422 0286 00       		.byte	0
 3423 0287 31       		.uleb128 0x31
 3424 0288 13       		.uleb128 0x13
 3425 0289 00       		.byte	0
 3426 028a 00       		.byte	0
 3427 028b 36       		.uleb128 0x36
 3428 028c 2E       		.uleb128 0x2e
 3429 028d 01       		.byte	0x1
 3430 028e 3F       		.uleb128 0x3f
 3431 028f 0C       		.uleb128 0xc
 3432 0290 03       		.uleb128 0x3
 3433 0291 0E       		.uleb128 0xe
 3434 0292 3A       		.uleb128 0x3a
 3435 0293 0B       		.uleb128 0xb
 3436 0294 3B       		.uleb128 0x3b
 3437 0295 05       		.uleb128 0x5
 3438 0296 27       		.uleb128 0x27
 3439 0297 0C       		.uleb128 0xc
 3440 0298 11       		.uleb128 0x11
 3441 0299 01       		.uleb128 0x1
 3442 029a 12       		.uleb128 0x12
 3443 029b 01       		.uleb128 0x1
 3444 029c 40       		.uleb128 0x40
 3445 029d 0A       		.uleb128 0xa
 3446 029e 9742     		.uleb128 0x2117
 3447 02a0 0C       		.uleb128 0xc
 3448 02a1 01       		.uleb128 0x1
 3449 02a2 13       		.uleb128 0x13
 3450 02a3 00       		.byte	0
 3451 02a4 00       		.byte	0
 3452 02a5 37       		.uleb128 0x37
 3453 02a6 898201   		.uleb128 0x4109
 3454 02a9 01       		.byte	0x1
 3455 02aa 11       		.uleb128 0x11
 3456 02ab 01       		.uleb128 0x1
 3457 02ac 9542     		.uleb128 0x2115
 3458 02ae 0C       		.uleb128 0xc
 3459 02af 31       		.uleb128 0x31
 3460 02b0 13       		.uleb128 0x13
 3461 02b1 00       		.byte	0
 3462 02b2 00       		.byte	0
 3463 02b3 38       		.uleb128 0x38
 3464 02b4 34       		.uleb128 0x34
 3465 02b5 00       		.byte	0
 3466 02b6 03       		.uleb128 0x3
 3467 02b7 0E       		.uleb128 0xe
 3468 02b8 3A       		.uleb128 0x3a
ARM GAS  /tmp/ccgFERJb.s 			page 62


 3469 02b9 0B       		.uleb128 0xb
 3470 02ba 3B       		.uleb128 0x3b
 3471 02bb 0B       		.uleb128 0xb
 3472 02bc 49       		.uleb128 0x49
 3473 02bd 13       		.uleb128 0x13
 3474 02be 02       		.uleb128 0x2
 3475 02bf 0A       		.uleb128 0xa
 3476 02c0 00       		.byte	0
 3477 02c1 00       		.byte	0
 3478 02c2 39       		.uleb128 0x39
 3479 02c3 34       		.uleb128 0x34
 3480 02c4 00       		.byte	0
 3481 02c5 03       		.uleb128 0x3
 3482 02c6 0E       		.uleb128 0xe
 3483 02c7 3A       		.uleb128 0x3a
 3484 02c8 0B       		.uleb128 0xb
 3485 02c9 3B       		.uleb128 0x3b
 3486 02ca 05       		.uleb128 0x5
 3487 02cb 49       		.uleb128 0x49
 3488 02cc 13       		.uleb128 0x13
 3489 02cd 3F       		.uleb128 0x3f
 3490 02ce 0C       		.uleb128 0xc
 3491 02cf 3C       		.uleb128 0x3c
 3492 02d0 0C       		.uleb128 0xc
 3493 02d1 00       		.byte	0
 3494 02d2 00       		.byte	0
 3495 02d3 3A       		.uleb128 0x3a
 3496 02d4 34       		.uleb128 0x34
 3497 02d5 00       		.byte	0
 3498 02d6 03       		.uleb128 0x3
 3499 02d7 08       		.uleb128 0x8
 3500 02d8 3A       		.uleb128 0x3a
 3501 02d9 0B       		.uleb128 0xb
 3502 02da 3B       		.uleb128 0x3b
 3503 02db 0B       		.uleb128 0xb
 3504 02dc 49       		.uleb128 0x49
 3505 02dd 13       		.uleb128 0x13
 3506 02de 3F       		.uleb128 0x3f
 3507 02df 0C       		.uleb128 0xc
 3508 02e0 02       		.uleb128 0x2
 3509 02e1 0A       		.uleb128 0xa
 3510 02e2 00       		.byte	0
 3511 02e3 00       		.byte	0
 3512 02e4 3B       		.uleb128 0x3b
 3513 02e5 2E       		.uleb128 0x2e
 3514 02e6 01       		.byte	0x1
 3515 02e7 3F       		.uleb128 0x3f
 3516 02e8 0C       		.uleb128 0xc
 3517 02e9 03       		.uleb128 0x3
 3518 02ea 0E       		.uleb128 0xe
 3519 02eb 3A       		.uleb128 0x3a
 3520 02ec 0B       		.uleb128 0xb
 3521 02ed 3B       		.uleb128 0x3b
 3522 02ee 0B       		.uleb128 0xb
 3523 02ef 27       		.uleb128 0x27
 3524 02f0 0C       		.uleb128 0xc
 3525 02f1 3C       		.uleb128 0x3c
ARM GAS  /tmp/ccgFERJb.s 			page 63


 3526 02f2 0C       		.uleb128 0xc
 3527 02f3 01       		.uleb128 0x1
 3528 02f4 13       		.uleb128 0x13
 3529 02f5 00       		.byte	0
 3530 02f6 00       		.byte	0
 3531 02f7 3C       		.uleb128 0x3c
 3532 02f8 2E       		.uleb128 0x2e
 3533 02f9 01       		.byte	0x1
 3534 02fa 3F       		.uleb128 0x3f
 3535 02fb 0C       		.uleb128 0xc
 3536 02fc 03       		.uleb128 0x3
 3537 02fd 0E       		.uleb128 0xe
 3538 02fe 3A       		.uleb128 0x3a
 3539 02ff 0B       		.uleb128 0xb
 3540 0300 3B       		.uleb128 0x3b
 3541 0301 05       		.uleb128 0x5
 3542 0302 27       		.uleb128 0x27
 3543 0303 0C       		.uleb128 0xc
 3544 0304 49       		.uleb128 0x49
 3545 0305 13       		.uleb128 0x13
 3546 0306 3C       		.uleb128 0x3c
 3547 0307 0C       		.uleb128 0xc
 3548 0308 01       		.uleb128 0x1
 3549 0309 13       		.uleb128 0x13
 3550 030a 00       		.byte	0
 3551 030b 00       		.byte	0
 3552 030c 3D       		.uleb128 0x3d
 3553 030d 2E       		.uleb128 0x2e
 3554 030e 01       		.byte	0x1
 3555 030f 3F       		.uleb128 0x3f
 3556 0310 0C       		.uleb128 0xc
 3557 0311 03       		.uleb128 0x3
 3558 0312 0E       		.uleb128 0xe
 3559 0313 3A       		.uleb128 0x3a
 3560 0314 0B       		.uleb128 0xb
 3561 0315 3B       		.uleb128 0x3b
 3562 0316 05       		.uleb128 0x5
 3563 0317 27       		.uleb128 0x27
 3564 0318 0C       		.uleb128 0xc
 3565 0319 3C       		.uleb128 0x3c
 3566 031a 0C       		.uleb128 0xc
 3567 031b 01       		.uleb128 0x1
 3568 031c 13       		.uleb128 0x13
 3569 031d 00       		.byte	0
 3570 031e 00       		.byte	0
 3571 031f 3E       		.uleb128 0x3e
 3572 0320 2E       		.uleb128 0x2e
 3573 0321 00       		.byte	0
 3574 0322 3F       		.uleb128 0x3f
 3575 0323 0C       		.uleb128 0xc
 3576 0324 03       		.uleb128 0x3
 3577 0325 0E       		.uleb128 0xe
 3578 0326 3A       		.uleb128 0x3a
 3579 0327 0B       		.uleb128 0xb
 3580 0328 3B       		.uleb128 0x3b
 3581 0329 05       		.uleb128 0x5
 3582 032a 27       		.uleb128 0x27
ARM GAS  /tmp/ccgFERJb.s 			page 64


 3583 032b 0C       		.uleb128 0xc
 3584 032c 3C       		.uleb128 0x3c
 3585 032d 0C       		.uleb128 0xc
 3586 032e 00       		.byte	0
 3587 032f 00       		.byte	0
 3588 0330 3F       		.uleb128 0x3f
 3589 0331 2E       		.uleb128 0x2e
 3590 0332 01       		.byte	0x1
 3591 0333 3F       		.uleb128 0x3f
 3592 0334 0C       		.uleb128 0xc
 3593 0335 03       		.uleb128 0x3
 3594 0336 0E       		.uleb128 0xe
 3595 0337 3A       		.uleb128 0x3a
 3596 0338 0B       		.uleb128 0xb
 3597 0339 3B       		.uleb128 0x3b
 3598 033a 05       		.uleb128 0x5
 3599 033b 27       		.uleb128 0x27
 3600 033c 0C       		.uleb128 0xc
 3601 033d 3C       		.uleb128 0x3c
 3602 033e 0C       		.uleb128 0xc
 3603 033f 00       		.byte	0
 3604 0340 00       		.byte	0
 3605 0341 00       		.byte	0
 3606              		.section	.debug_loc,"",%progbits
 3607              	.Ldebug_loc0:
 3608              	.LLST0:
 3609 0000 00000000 		.4byte	.LVL0
 3610 0004 0E000000 		.4byte	.LVL1
 3611 0008 0100     		.2byte	0x1
 3612 000a 50       		.byte	0x50
 3613 000b 0E000000 		.4byte	.LVL1
 3614 000f 12000000 		.4byte	.LFE122
 3615 0013 0400     		.2byte	0x4
 3616 0015 F3       		.byte	0xf3
 3617 0016 01       		.uleb128 0x1
 3618 0017 50       		.byte	0x50
 3619 0018 9F       		.byte	0x9f
 3620 0019 00000000 		.4byte	0
 3621 001d 00000000 		.4byte	0
 3622              	.LLST1:
 3623 0021 00000000 		.4byte	.LFB123
 3624 0025 02000000 		.4byte	.LCFI0
 3625 0029 0200     		.2byte	0x2
 3626 002b 7D       		.byte	0x7d
 3627 002c 00       		.sleb128 0
 3628 002d 02000000 		.4byte	.LCFI0
 3629 0031 FC000000 		.4byte	.LFE123
 3630 0035 0200     		.2byte	0x2
 3631 0037 7D       		.byte	0x7d
 3632 0038 18       		.sleb128 24
 3633 0039 00000000 		.4byte	0
 3634 003d 00000000 		.4byte	0
 3635              	.LLST2:
 3636 0041 08000000 		.4byte	.LVL4
 3637 0045 38000000 		.4byte	.LVL15
 3638 0049 0100     		.2byte	0x1
 3639 004b 57       		.byte	0x57
ARM GAS  /tmp/ccgFERJb.s 			page 65


 3640 004c 48000000 		.4byte	.LVL18
 3641 0050 FC000000 		.4byte	.LFE123
 3642 0054 0100     		.2byte	0x1
 3643 0056 57       		.byte	0x57
 3644 0057 00000000 		.4byte	0
 3645 005b 00000000 		.4byte	0
 3646              	.LLST3:
 3647 005f 2A000000 		.4byte	.LVL13
 3648 0063 2E000000 		.4byte	.LVL14
 3649 0067 0100     		.2byte	0x1
 3650 0069 53       		.byte	0x53
 3651 006a 00000000 		.4byte	0
 3652 006e 00000000 		.4byte	0
 3653              	.LLST4:
 3654 0072 40000000 		.4byte	.LVL17
 3655 0076 47000000 		.4byte	.LVL18-1
 3656 007a 0100     		.2byte	0x1
 3657 007c 53       		.byte	0x53
 3658 007d 00000000 		.4byte	0
 3659 0081 00000000 		.4byte	0
 3660              	.LLST5:
 3661 0085 4E000000 		.4byte	.LVL20
 3662 0089 57000000 		.4byte	.LVL21-1
 3663 008d 0100     		.2byte	0x1
 3664 008f 53       		.byte	0x53
 3665 0090 00000000 		.4byte	0
 3666 0094 00000000 		.4byte	0
 3667              	.LLST6:
 3668 0098 18000000 		.4byte	.LVL9
 3669 009c 22000000 		.4byte	.LVL11
 3670 00a0 0100     		.2byte	0x1
 3671 00a2 53       		.byte	0x53
 3672 00a3 5E000000 		.4byte	.LVL22
 3673 00a7 60000000 		.4byte	.LVL23
 3674 00ab 0100     		.2byte	0x1
 3675 00ad 53       		.byte	0x53
 3676 00ae AE000000 		.4byte	.LVL37
 3677 00b2 B0000000 		.4byte	.LVL38
 3678 00b6 0100     		.2byte	0x1
 3679 00b8 53       		.byte	0x53
 3680 00b9 00000000 		.4byte	0
 3681 00bd 00000000 		.4byte	0
 3682              	.LLST7:
 3683 00c1 66000000 		.4byte	.LVL25
 3684 00c5 6F000000 		.4byte	.LVL26-1
 3685 00c9 0100     		.2byte	0x1
 3686 00cb 53       		.byte	0x53
 3687 00cc 00000000 		.4byte	0
 3688 00d0 00000000 		.4byte	0
 3689              	.LLST8:
 3690 00d4 14000000 		.4byte	.LVL8
 3691 00d8 22000000 		.4byte	.LVL11
 3692 00dc 0100     		.2byte	0x1
 3693 00de 53       		.byte	0x53
 3694 00df 48000000 		.4byte	.LVL18
 3695 00e3 4A000000 		.4byte	.LVL19
 3696 00e7 0100     		.2byte	0x1
ARM GAS  /tmp/ccgFERJb.s 			page 66


 3697 00e9 53       		.byte	0x53
 3698 00ea 76000000 		.4byte	.LVL27
 3699 00ee 78000000 		.4byte	.LVL28
 3700 00f2 0100     		.2byte	0x1
 3701 00f4 53       		.byte	0x53
 3702 00f5 AE000000 		.4byte	.LVL37
 3703 00f9 B0000000 		.4byte	.LVL38
 3704 00fd 0100     		.2byte	0x1
 3705 00ff 53       		.byte	0x53
 3706 0100 00000000 		.4byte	0
 3707 0104 00000000 		.4byte	0
 3708              	.LLST9:
 3709 0108 78000000 		.4byte	.LVL28
 3710 010c AE000000 		.4byte	.LVL37
 3711 0110 0100     		.2byte	0x1
 3712 0112 54       		.byte	0x54
 3713 0113 00000000 		.4byte	0
 3714 0117 00000000 		.4byte	0
 3715              	.LLST10:
 3716 011b 78000000 		.4byte	.LVL28
 3717 011f 82000000 		.4byte	.LVL29
 3718 0123 0200     		.2byte	0x2
 3719 0125 30       		.byte	0x30
 3720 0126 9F       		.byte	0x9f
 3721 0127 82000000 		.4byte	.LVL29
 3722 012b A5000000 		.4byte	.LVL35-1
 3723 012f 0100     		.2byte	0x1
 3724 0131 51       		.byte	0x51
 3725 0132 A5000000 		.4byte	.LVL35-1
 3726 0136 AE000000 		.4byte	.LVL37
 3727 013a D400     		.2byte	0xd4
 3728 013c 30       		.byte	0x30
 3729 013d 08       		.byte	0x8
 3730 013e 80       		.byte	0x80
 3731 013f 74       		.byte	0x74
 3732 0140 00       		.sleb128 0
 3733 0141 33       		.byte	0x33
 3734 0142 25       		.byte	0x25
 3735 0143 30       		.byte	0x30
 3736 0144 29       		.byte	0x29
 3737 0145 28       		.byte	0x28
 3738 0146 0100     		.2byte	0x1
 3739 0148 16       		.byte	0x16
 3740 0149 13       		.byte	0x13
 3741 014a 08       		.byte	0x8
 3742 014b 20       		.byte	0x20
 3743 014c 21       		.byte	0x21
 3744 014d 30       		.byte	0x30
 3745 014e 08       		.byte	0x8
 3746 014f 80       		.byte	0x80
 3747 0150 74       		.byte	0x74
 3748 0151 00       		.sleb128 0
 3749 0152 33       		.byte	0x33
 3750 0153 25       		.byte	0x25
 3751 0154 30       		.byte	0x30
 3752 0155 29       		.byte	0x29
 3753 0156 28       		.byte	0x28
ARM GAS  /tmp/ccgFERJb.s 			page 67


 3754 0157 0100     		.2byte	0x1
 3755 0159 16       		.byte	0x16
 3756 015a 13       		.byte	0x13
 3757 015b 74       		.byte	0x74
 3758 015c 00       		.sleb128 0
 3759 015d 4F       		.byte	0x4f
 3760 015e 24       		.byte	0x24
 3761 015f 30       		.byte	0x30
 3762 0160 2D       		.byte	0x2d
 3763 0161 28       		.byte	0x28
 3764 0162 0100     		.2byte	0x1
 3765 0164 16       		.byte	0x16
 3766 0165 13       		.byte	0x13
 3767 0166 08       		.byte	0x8
 3768 0167 40       		.byte	0x40
 3769 0168 21       		.byte	0x21
 3770 0169 30       		.byte	0x30
 3771 016a 08       		.byte	0x8
 3772 016b 80       		.byte	0x80
 3773 016c 74       		.byte	0x74
 3774 016d 00       		.sleb128 0
 3775 016e 33       		.byte	0x33
 3776 016f 25       		.byte	0x25
 3777 0170 30       		.byte	0x30
 3778 0171 29       		.byte	0x29
 3779 0172 28       		.byte	0x28
 3780 0173 0100     		.2byte	0x1
 3781 0175 16       		.byte	0x16
 3782 0176 13       		.byte	0x13
 3783 0177 08       		.byte	0x8
 3784 0178 20       		.byte	0x20
 3785 0179 21       		.byte	0x21
 3786 017a 30       		.byte	0x30
 3787 017b 08       		.byte	0x8
 3788 017c 80       		.byte	0x80
 3789 017d 74       		.byte	0x74
 3790 017e 00       		.sleb128 0
 3791 017f 33       		.byte	0x33
 3792 0180 25       		.byte	0x25
 3793 0181 30       		.byte	0x30
 3794 0182 29       		.byte	0x29
 3795 0183 28       		.byte	0x28
 3796 0184 0100     		.2byte	0x1
 3797 0186 16       		.byte	0x16
 3798 0187 13       		.byte	0x13
 3799 0188 74       		.byte	0x74
 3800 0189 00       		.sleb128 0
 3801 018a 4F       		.byte	0x4f
 3802 018b 24       		.byte	0x24
 3803 018c 30       		.byte	0x30
 3804 018d 2D       		.byte	0x2d
 3805 018e 28       		.byte	0x28
 3806 018f 0100     		.2byte	0x1
 3807 0191 16       		.byte	0x16
 3808 0192 13       		.byte	0x13
 3809 0193 74       		.byte	0x74
 3810 0194 00       		.sleb128 0
ARM GAS  /tmp/ccgFERJb.s 			page 68


 3811 0195 4E       		.byte	0x4e
 3812 0196 24       		.byte	0x24
 3813 0197 30       		.byte	0x30
 3814 0198 2D       		.byte	0x2d
 3815 0199 28       		.byte	0x28
 3816 019a 0100     		.2byte	0x1
 3817 019c 16       		.byte	0x16
 3818 019d 13       		.byte	0x13
 3819 019e 0A       		.byte	0xa
 3820 019f 0001     		.2byte	0x100
 3821 01a1 21       		.byte	0x21
 3822 01a2 30       		.byte	0x30
 3823 01a3 08       		.byte	0x8
 3824 01a4 80       		.byte	0x80
 3825 01a5 74       		.byte	0x74
 3826 01a6 00       		.sleb128 0
 3827 01a7 33       		.byte	0x33
 3828 01a8 25       		.byte	0x25
 3829 01a9 30       		.byte	0x30
 3830 01aa 29       		.byte	0x29
 3831 01ab 28       		.byte	0x28
 3832 01ac 0100     		.2byte	0x1
 3833 01ae 16       		.byte	0x16
 3834 01af 13       		.byte	0x13
 3835 01b0 08       		.byte	0x8
 3836 01b1 20       		.byte	0x20
 3837 01b2 21       		.byte	0x21
 3838 01b3 30       		.byte	0x30
 3839 01b4 08       		.byte	0x8
 3840 01b5 80       		.byte	0x80
 3841 01b6 74       		.byte	0x74
 3842 01b7 00       		.sleb128 0
 3843 01b8 33       		.byte	0x33
 3844 01b9 25       		.byte	0x25
 3845 01ba 30       		.byte	0x30
 3846 01bb 29       		.byte	0x29
 3847 01bc 28       		.byte	0x28
 3848 01bd 0100     		.2byte	0x1
 3849 01bf 16       		.byte	0x16
 3850 01c0 13       		.byte	0x13
 3851 01c1 74       		.byte	0x74
 3852 01c2 00       		.sleb128 0
 3853 01c3 4F       		.byte	0x4f
 3854 01c4 24       		.byte	0x24
 3855 01c5 30       		.byte	0x30
 3856 01c6 2D       		.byte	0x2d
 3857 01c7 28       		.byte	0x28
 3858 01c8 0100     		.2byte	0x1
 3859 01ca 16       		.byte	0x16
 3860 01cb 13       		.byte	0x13
 3861 01cc 08       		.byte	0x8
 3862 01cd 40       		.byte	0x40
 3863 01ce 21       		.byte	0x21
 3864 01cf 30       		.byte	0x30
 3865 01d0 08       		.byte	0x8
 3866 01d1 80       		.byte	0x80
 3867 01d2 74       		.byte	0x74
ARM GAS  /tmp/ccgFERJb.s 			page 69


 3868 01d3 00       		.sleb128 0
 3869 01d4 33       		.byte	0x33
 3870 01d5 25       		.byte	0x25
 3871 01d6 30       		.byte	0x30
 3872 01d7 29       		.byte	0x29
 3873 01d8 28       		.byte	0x28
 3874 01d9 0100     		.2byte	0x1
 3875 01db 16       		.byte	0x16
 3876 01dc 13       		.byte	0x13
 3877 01dd 08       		.byte	0x8
 3878 01de 20       		.byte	0x20
 3879 01df 21       		.byte	0x21
 3880 01e0 30       		.byte	0x30
 3881 01e1 08       		.byte	0x8
 3882 01e2 80       		.byte	0x80
 3883 01e3 74       		.byte	0x74
 3884 01e4 00       		.sleb128 0
 3885 01e5 33       		.byte	0x33
 3886 01e6 25       		.byte	0x25
 3887 01e7 30       		.byte	0x30
 3888 01e8 29       		.byte	0x29
 3889 01e9 28       		.byte	0x28
 3890 01ea 0100     		.2byte	0x1
 3891 01ec 16       		.byte	0x16
 3892 01ed 13       		.byte	0x13
 3893 01ee 74       		.byte	0x74
 3894 01ef 00       		.sleb128 0
 3895 01f0 4F       		.byte	0x4f
 3896 01f1 24       		.byte	0x24
 3897 01f2 30       		.byte	0x30
 3898 01f3 2D       		.byte	0x2d
 3899 01f4 28       		.byte	0x28
 3900 01f5 0100     		.2byte	0x1
 3901 01f7 16       		.byte	0x16
 3902 01f8 13       		.byte	0x13
 3903 01f9 74       		.byte	0x74
 3904 01fa 00       		.sleb128 0
 3905 01fb 4E       		.byte	0x4e
 3906 01fc 24       		.byte	0x24
 3907 01fd 30       		.byte	0x30
 3908 01fe 2D       		.byte	0x2d
 3909 01ff 28       		.byte	0x28
 3910 0200 0100     		.2byte	0x1
 3911 0202 16       		.byte	0x16
 3912 0203 13       		.byte	0x13
 3913 0204 74       		.byte	0x74
 3914 0205 00       		.sleb128 0
 3915 0206 4D       		.byte	0x4d
 3916 0207 24       		.byte	0x24
 3917 0208 30       		.byte	0x30
 3918 0209 2D       		.byte	0x2d
 3919 020a 28       		.byte	0x28
 3920 020b 0100     		.2byte	0x1
 3921 020d 16       		.byte	0x16
 3922 020e 13       		.byte	0x13
 3923 020f 9F       		.byte	0x9f
 3924 0210 00000000 		.4byte	0
ARM GAS  /tmp/ccgFERJb.s 			page 70


 3925 0214 00000000 		.4byte	0
 3926              	.LLST11:
 3927 0218 78000000 		.4byte	.LVL28
 3928 021c AE000000 		.4byte	.LVL37
 3929 0220 0600     		.2byte	0x6
 3930 0222 03       		.byte	0x3
 3931 0223 00000000 		.4byte	SD1
 3932 0227 9F       		.byte	0x9f
 3933 0228 00000000 		.4byte	0
 3934 022c 00000000 		.4byte	0
 3935              	.LLST12:
 3936 0230 A0000000 		.4byte	.LVL34
 3937 0234 A5000000 		.4byte	.LVL35-1
 3938 0238 0100     		.2byte	0x1
 3939 023a 53       		.byte	0x53
 3940 023b 00000000 		.4byte	0
 3941 023f 00000000 		.4byte	0
 3942              	.LLST13:
 3943 0243 10000000 		.4byte	.LVL6
 3944 0247 12000000 		.4byte	.LVL7
 3945 024b 0100     		.2byte	0x1
 3946 024d 53       		.byte	0x53
 3947 024e AC000000 		.4byte	.LVL36
 3948 0252 AE000000 		.4byte	.LVL37
 3949 0256 0100     		.2byte	0x1
 3950 0258 53       		.byte	0x53
 3951 0259 00000000 		.4byte	0
 3952 025d 00000000 		.4byte	0
 3953              	.LLST14:
 3954 0261 BA000000 		.4byte	.LVL40
 3955 0265 C0000000 		.4byte	.LVL41
 3956 0269 0100     		.2byte	0x1
 3957 026b 50       		.byte	0x50
 3958 026c DA000000 		.4byte	.LVL45
 3959 0270 DC000000 		.4byte	.LVL46
 3960 0274 0100     		.2byte	0x1
 3961 0276 50       		.byte	0x50
 3962 0277 00000000 		.4byte	0
 3963 027b 00000000 		.4byte	0
 3964              	.LLST15:
 3965 027f B4000000 		.4byte	.LVL39
 3966 0283 B9000000 		.4byte	.LVL40-1
 3967 0287 0100     		.2byte	0x1
 3968 0289 53       		.byte	0x53
 3969 028a 00000000 		.4byte	0
 3970 028e 00000000 		.4byte	0
 3971              	.LLST16:
 3972 0292 20000000 		.4byte	.LVL10
 3973 0296 22000000 		.4byte	.LVL11
 3974 029a 0100     		.2byte	0x1
 3975 029c 53       		.byte	0x53
 3976 029d C8000000 		.4byte	.LVL42
 3977 02a1 CA000000 		.4byte	.LVL43
 3978 02a5 0100     		.2byte	0x1
 3979 02a7 53       		.byte	0x53
 3980 02a8 00000000 		.4byte	0
 3981 02ac 00000000 		.4byte	0
ARM GAS  /tmp/ccgFERJb.s 			page 71


 3982              	.LLST17:
 3983 02b0 00000000 		.4byte	.LFB124
 3984 02b4 02000000 		.4byte	.LCFI1
 3985 02b8 0200     		.2byte	0x2
 3986 02ba 7D       		.byte	0x7d
 3987 02bb 00       		.sleb128 0
 3988 02bc 02000000 		.4byte	.LCFI1
 3989 02c0 30000000 		.4byte	.LFE124
 3990 02c4 0200     		.2byte	0x2
 3991 02c6 7D       		.byte	0x7d
 3992 02c7 08       		.sleb128 8
 3993 02c8 00000000 		.4byte	0
 3994 02cc 00000000 		.4byte	0
 3995              	.LLST18:
 3996 02d0 00000000 		.4byte	.LFB125
 3997 02d4 02000000 		.4byte	.LCFI2
 3998 02d8 0200     		.2byte	0x2
 3999 02da 7D       		.byte	0x7d
 4000 02db 00       		.sleb128 0
 4001 02dc 02000000 		.4byte	.LCFI2
 4002 02e0 6C000000 		.4byte	.LFE125
 4003 02e4 0200     		.2byte	0x2
 4004 02e6 7D       		.byte	0x7d
 4005 02e7 18       		.sleb128 24
 4006 02e8 00000000 		.4byte	0
 4007 02ec 00000000 		.4byte	0
 4008              	.LLST19:
 4009 02f0 00000000 		.4byte	.LVL49
 4010 02f4 12000000 		.4byte	.LVL50
 4011 02f8 0100     		.2byte	0x1
 4012 02fa 50       		.byte	0x50
 4013 02fb 12000000 		.4byte	.LVL50
 4014 02ff 44000000 		.4byte	.LVL52
 4015 0303 0100     		.2byte	0x1
 4016 0305 55       		.byte	0x55
 4017 0306 44000000 		.4byte	.LVL52
 4018 030a 46000000 		.4byte	.LVL53
 4019 030e 0100     		.2byte	0x1
 4020 0310 50       		.byte	0x50
 4021 0311 46000000 		.4byte	.LVL53
 4022 0315 6C000000 		.4byte	.LFE125
 4023 0319 0100     		.2byte	0x1
 4024 031b 55       		.byte	0x55
 4025 031c 00000000 		.4byte	0
 4026 0320 00000000 		.4byte	0
 4027              	.LLST20:
 4028 0324 00000000 		.4byte	.LVL49
 4029 0328 12000000 		.4byte	.LVL50
 4030 032c 0100     		.2byte	0x1
 4031 032e 51       		.byte	0x51
 4032 032f 12000000 		.4byte	.LVL50
 4033 0333 44000000 		.4byte	.LVL52
 4034 0337 0400     		.2byte	0x4
 4035 0339 F3       		.byte	0xf3
 4036 033a 01       		.uleb128 0x1
 4037 033b 51       		.byte	0x51
 4038 033c 9F       		.byte	0x9f
ARM GAS  /tmp/ccgFERJb.s 			page 72


 4039 033d 44000000 		.4byte	.LVL52
 4040 0341 4E000000 		.4byte	.LVL54
 4041 0345 0100     		.2byte	0x1
 4042 0347 51       		.byte	0x51
 4043 0348 4E000000 		.4byte	.LVL54
 4044 034c 6C000000 		.4byte	.LFE125
 4045 0350 0400     		.2byte	0x4
 4046 0352 F3       		.byte	0xf3
 4047 0353 01       		.uleb128 0x1
 4048 0354 51       		.byte	0x51
 4049 0355 9F       		.byte	0x9f
 4050 0356 00000000 		.4byte	0
 4051 035a 00000000 		.4byte	0
 4052              	.LLST21:
 4053 035e 12000000 		.4byte	.LVL50
 4054 0362 44000000 		.4byte	.LVL52
 4055 0366 0100     		.2byte	0x1
 4056 0368 55       		.byte	0x55
 4057 0369 00000000 		.4byte	0
 4058 036d 00000000 		.4byte	0
 4059              	.LLST22:
 4060 0371 1E000000 		.4byte	.LVL51
 4061 0375 44000000 		.4byte	.LVL52
 4062 0379 0100     		.2byte	0x1
 4063 037b 53       		.byte	0x53
 4064 037c 00000000 		.4byte	0
 4065 0380 00000000 		.4byte	0
 4066              	.LLST23:
 4067 0384 00000000 		.4byte	.LVL56
 4068 0388 22000000 		.4byte	.LVL59
 4069 038c 0100     		.2byte	0x1
 4070 038e 50       		.byte	0x50
 4071 038f 22000000 		.4byte	.LVL59
 4072 0393 34000000 		.4byte	.LFE126
 4073 0397 0400     		.2byte	0x4
 4074 0399 F3       		.byte	0xf3
 4075 039a 01       		.uleb128 0x1
 4076 039b 50       		.byte	0x50
 4077 039c 9F       		.byte	0x9f
 4078 039d 00000000 		.4byte	0
 4079 03a1 00000000 		.4byte	0
 4080              	.LLST24:
 4081 03a5 0C000000 		.4byte	.LVL57
 4082 03a9 1C000000 		.4byte	.LVL58
 4083 03ad 0100     		.2byte	0x1
 4084 03af 51       		.byte	0x51
 4085 03b0 1C000000 		.4byte	.LVL58
 4086 03b4 22000000 		.4byte	.LVL59
 4087 03b8 0300     		.2byte	0x3
 4088 03ba 70       		.byte	0x70
 4089 03bb F400     		.sleb128 116
 4090 03bd 22000000 		.4byte	.LVL59
 4091 03c1 2D000000 		.4byte	.LVL60-1
 4092 03c5 0500     		.2byte	0x5
 4093 03c7 F3       		.byte	0xf3
 4094 03c8 01       		.uleb128 0x1
 4095 03c9 50       		.byte	0x50
ARM GAS  /tmp/ccgFERJb.s 			page 73


 4096 03ca 23       		.byte	0x23
 4097 03cb 74       		.uleb128 0x74
 4098 03cc 00000000 		.4byte	0
 4099 03d0 00000000 		.4byte	0
 4100              		.section	.debug_aranges,"",%progbits
 4101 0000 3C000000 		.4byte	0x3c
 4102 0004 0200     		.2byte	0x2
 4103 0006 00000000 		.4byte	.Ldebug_info0
 4104 000a 04       		.byte	0x4
 4105 000b 00       		.byte	0
 4106 000c 0000     		.2byte	0
 4107 000e 0000     		.2byte	0
 4108 0010 00000000 		.4byte	.LFB122
 4109 0014 12000000 		.4byte	.LFE122-.LFB122
 4110 0018 00000000 		.4byte	.LFB123
 4111 001c FC000000 		.4byte	.LFE123-.LFB123
 4112 0020 00000000 		.4byte	.LFB124
 4113 0024 30000000 		.4byte	.LFE124-.LFB124
 4114 0028 00000000 		.4byte	.LFB125
 4115 002c 6C000000 		.4byte	.LFE125-.LFB125
 4116 0030 00000000 		.4byte	.LFB126
 4117 0034 34000000 		.4byte	.LFE126-.LFB126
 4118 0038 00000000 		.4byte	0
 4119 003c 00000000 		.4byte	0
 4120              		.section	.debug_ranges,"",%progbits
 4121              	.Ldebug_ranges0:
 4122 0000 02000000 		.4byte	.LBB32
 4123 0004 40000000 		.4byte	.LBE32
 4124 0008 48000000 		.4byte	.LBB49
 4125 000c FC000000 		.4byte	.LBE49
 4126 0010 00000000 		.4byte	0
 4127 0014 00000000 		.4byte	0
 4128 0018 02000000 		.4byte	.LBB33
 4129 001c 40000000 		.4byte	.LBE33
 4130 0020 48000000 		.4byte	.LBB48
 4131 0024 FC000000 		.4byte	.LBE48
 4132 0028 00000000 		.4byte	0
 4133 002c 00000000 		.4byte	0
 4134 0030 AE000000 		.4byte	.LBB44
 4135 0034 CA000000 		.4byte	.LBE44
 4136 0038 DA000000 		.4byte	.LBB47
 4137 003c FC000000 		.4byte	.LBE47
 4138 0040 00000000 		.4byte	0
 4139 0044 00000000 		.4byte	0
 4140 0048 0C000000 		.4byte	.LBB52
 4141 004c 0E000000 		.4byte	.LBE52
 4142 0050 10000000 		.4byte	.LBB55
 4143 0054 16000000 		.4byte	.LBE55
 4144 0058 00000000 		.4byte	0
 4145 005c 00000000 		.4byte	0
 4146 0060 00000000 		.4byte	.LFB122
 4147 0064 12000000 		.4byte	.LFE122
 4148 0068 00000000 		.4byte	.LFB123
 4149 006c FC000000 		.4byte	.LFE123
 4150 0070 00000000 		.4byte	.LFB124
 4151 0074 30000000 		.4byte	.LFE124
 4152 0078 00000000 		.4byte	.LFB125
ARM GAS  /tmp/ccgFERJb.s 			page 74


 4153 007c 6C000000 		.4byte	.LFE125
 4154 0080 00000000 		.4byte	.LFB126
 4155 0084 34000000 		.4byte	.LFE126
 4156 0088 00000000 		.4byte	0
 4157 008c 00000000 		.4byte	0
 4158              		.section	.debug_line,"",%progbits
 4159              	.Ldebug_line0:
 4160 0000 67030000 		.section	.debug_str,"MS",%progbits,1
 4160      02008B02 
 4160      00000201 
 4160      FB0E0D00 
 4160      01010101 
 4161              	.LASF2:
 4162 0000 73697A65 		.ascii	"size_t\000"
 4162      5F7400
 4163              	.LASF62:
 4164 0007 7264796D 		.ascii	"rdymsg\000"
 4164      736700
 4165              	.LASF78:
 4166 000e 4F757470 		.ascii	"OutputQueue\000"
 4166      75745175 
 4166      65756500 
 4167              	.LASF121:
 4168 001a 7365745F 		.ascii	"set_error\000"
 4168      6572726F 
 4168      7200
 4169              	.LASF131:
 4170 0024 6E766963 		.ascii	"nvicEnableVector\000"
 4170      456E6162 
 4170      6C655665 
 4170      63746F72 
 4170      00
 4171              	.LASF13:
 4172 0035 6C6F6E67 		.ascii	"long long unsigned int\000"
 4172      206C6F6E 
 4172      6720756E 
 4172      7369676E 
 4172      65642069 
 4173              	.LASF63:
 4174 004c 65786974 		.ascii	"exitcode\000"
 4174      636F6465 
 4174      00
 4175              	.LASF127:
 4176 0055 49544D5F 		.ascii	"ITM_RxBuffer\000"
 4176      52784275 
 4176      66666572 
 4176      00
 4177              	.LASF130:
 4178 0062 73644F62 		.ascii	"sdObjectInit\000"
 4178      6A656374 
 4178      496E6974 
 4178      00
 4179              	.LASF117:
 4180 006f 72656164 		.ascii	"readt\000"
 4180      7400
 4181              	.LASF68:
 4182 0075 715F7761 		.ascii	"q_waiting\000"
ARM GAS  /tmp/ccgFERJb.s 			page 75


 4182      6974696E 
 4182      6700
 4183              	.LASF12:
 4184 007f 6C6F6E67 		.ascii	"long long int\000"
 4184      206C6F6E 
 4184      6720696E 
 4184      7400
 4185              	.LASF1:
 4186 008d 7369676E 		.ascii	"signed char\000"
 4186      65642063 
 4186      68617200 
 4187              	.LASF91:
 4188 0099 47545052 		.ascii	"GTPR\000"
 4188      00
 4189              	.LASF44:
 4190 009e 705F6D70 		.ascii	"p_mpool\000"
 4190      6F6F6C00 
 4191              	.LASF14:
 4192 00a6 626F6F6C 		.ascii	"bool_t\000"
 4192      5F7400
 4193              	.LASF52:
 4194 00ad 6D5F7175 		.ascii	"m_queue\000"
 4194      65756500 
 4195              	.LASF19:
 4196 00b5 74736C69 		.ascii	"tslices_t\000"
 4196      6365735F 
 4196      7400
 4197              	.LASF89:
 4198 00bf 5243435F 		.ascii	"RCC_TypeDef\000"
 4198      54797065 
 4198      44656600 
 4199              	.LASF136:
 4200 00cb 64656661 		.ascii	"default_config\000"
 4200      756C745F 
 4200      636F6E66 
 4200      696700
 4201              	.LASF104:
 4202 00da 73746174 		.ascii	"state\000"
 4202      6500
 4203              	.LASF9:
 4204 00e0 6C6F6E67 		.ascii	"long int\000"
 4204      20696E74 
 4204      00
 4205              	.LASF115:
 4206 00e9 67657474 		.ascii	"gett\000"
 4206      00
 4207              	.LASF17:
 4208 00ee 74737461 		.ascii	"tstate_t\000"
 4208      74655F74 
 4208      00
 4209              	.LASF137:
 4210 00f7 63684F51 		.ascii	"chOQGetI\000"
 4210      47657449 
 4210      00
 4211              	.LASF35:
 4212 0100 705F7265 		.ascii	"p_refs\000"
 4212      667300
ARM GAS  /tmp/ccgFERJb.s 			page 76


 4213              	.LASF70:
 4214 0107 715F6275 		.ascii	"q_buffer\000"
 4214      66666572 
 4214      00
 4215              	.LASF72:
 4216 0110 715F7772 		.ascii	"q_wrptr\000"
 4216      70747200 
 4217              	.LASF37:
 4218 0118 705F7469 		.ascii	"p_time\000"
 4218      6D6500
 4219              	.LASF128:
 4220 011f 63684576 		.ascii	"chEvtBroadcastFlagsI\000"
 4220      7442726F 
 4220      61646361 
 4220      7374466C 
 4220      61677349 
 4221              	.LASF30:
 4222 0134 705F6E65 		.ascii	"p_newer\000"
 4222      77657200 
 4223              	.LASF47:
 4224 013c 72656761 		.ascii	"regarm_t\000"
 4224      726D5F74 
 4224      00
 4225              	.LASF80:
 4226 0145 41504232 		.ascii	"APB2RSTR\000"
 4226      52535452 
 4226      00
 4227              	.LASF120:
 4228 014e 75736172 		.ascii	"usart_deinit\000"
 4228      745F6465 
 4228      696E6974 
 4228      00
 4229              	.LASF60:
 4230 015b 4576656E 		.ascii	"EventSource\000"
 4230      74536F75 
 4230      72636500 
 4231              	.LASF107:
 4232 0167 75736172 		.ascii	"usart\000"
 4232      7400
 4233              	.LASF0:
 4234 016d 756E7369 		.ascii	"unsigned int\000"
 4234      676E6564 
 4234      20696E74 
 4234      00
 4235              	.LASF6:
 4236 017a 75696E74 		.ascii	"uint16_t\000"
 4236      31365F74 
 4236      00
 4237              	.LASF111:
 4238 0183 53657269 		.ascii	"SerialDriverVMT\000"
 4238      616C4472 
 4238      69766572 
 4238      564D5400 
 4239              	.LASF105:
 4240 0193 69717565 		.ascii	"iqueue\000"
 4240      756500
 4241              	.LASF39:
ARM GAS  /tmp/ccgFERJb.s 			page 77


 4242 019a 705F6D73 		.ascii	"p_msgqueue\000"
 4242      67717565 
 4242      756500
 4243              	.LASF124:
 4244 01a5 73645F6C 		.ascii	"sd_lld_init\000"
 4244      6C645F69 
 4244      6E697400 
 4245              	.LASF134:
 4246 01b1 2F6F7074 		.ascii	"/opt/ChibiStudio/ChibiOS_2.6.5/demos/ARMCM4-STM32F3"
 4246      2F436869 
 4246      62695374 
 4246      7564696F 
 4246      2F436869 
 4247 01e4 30332D44 		.ascii	"03-DISCOVERY\000"
 4247      4953434F 
 4247      56455259 
 4247      00
 4248              	.LASF103:
 4249 01f1 6576656E 		.ascii	"event\000"
 4249      7400
 4250              	.LASF7:
 4251 01f7 73686F72 		.ascii	"short unsigned int\000"
 4251      7420756E 
 4251      7369676E 
 4251      65642069 
 4251      6E7400
 4252              	.LASF21:
 4253 020a 6D73675F 		.ascii	"msg_t\000"
 4253      7400
 4254              	.LASF106:
 4255 0210 6F717565 		.ascii	"oqueue\000"
 4255      756500
 4256              	.LASF138:
 4257 0217 5F706F72 		.ascii	"_port_irq_epilogue\000"
 4257      745F6972 
 4257      715F6570 
 4257      696C6F67 
 4257      756500
 4258              	.LASF97:
 4259 022a 55534152 		.ascii	"USART_TypeDef\000"
 4259      545F5479 
 4259      70654465 
 4259      6600
 4260              	.LASF116:
 4261 0238 77726974 		.ascii	"writet\000"
 4261      657400
 4262              	.LASF16:
 4263 023f 746D6F64 		.ascii	"tmode_t\000"
 4263      655F7400 
 4264              	.LASF132:
 4265 0247 474E5520 		.ascii	"GNU C 4.7.3 20130312 (release) [ARM/embedded-4_7-br"
 4265      4320342E 
 4265      372E3320 
 4265      32303133 
 4265      30333132 
 4266 027a 616E6368 		.ascii	"anch revision 196615]\000"
 4266      20726576 
ARM GAS  /tmp/ccgFERJb.s 			page 78


 4266      6973696F 
 4266      6E203139 
 4266      36363135 
 4267              	.LASF46:
 4268 0290 54687265 		.ascii	"ThreadsList\000"
 4268      6164734C 
 4268      69737400 
 4269              	.LASF22:
 4270 029c 6576656E 		.ascii	"eventmask_t\000"
 4270      746D6173 
 4270      6B5F7400 
 4271              	.LASF123:
 4272 02a8 56656374 		.ascii	"VectorD4\000"
 4272      6F724434 
 4272      00
 4273              	.LASF109:
 4274 02b1 73706565 		.ascii	"speed\000"
 4274      6400
 4275              	.LASF76:
 4276 02b7 716E6F74 		.ascii	"qnotify_t\000"
 4276      6966795F 
 4276      7400
 4277              	.LASF67:
 4278 02c1 47656E65 		.ascii	"GenericQueue\000"
 4278      72696351 
 4278      75657565 
 4278      00
 4279              	.LASF112:
 4280 02ce 77726974 		.ascii	"write\000"
 4280      6500
 4281              	.LASF114:
 4282 02d4 70757474 		.ascii	"putt\000"
 4282      00
 4283              	.LASF119:
 4284 02d9 75736172 		.ascii	"usart_init\000"
 4284      745F696E 
 4284      697400
 4285              	.LASF50:
 4286 02e4 73697A65 		.ascii	"sizetype\000"
 4286      74797065 
 4286      00
 4287              	.LASF69:
 4288 02ed 715F636F 		.ascii	"q_counter\000"
 4288      756E7465 
 4288      7200
 4289              	.LASF51:
 4290 02f7 4D757465 		.ascii	"Mutex\000"
 4290      7800
 4291              	.LASF26:
 4292 02fd 705F6E65 		.ascii	"p_next\000"
 4292      787400
 4293              	.LASF31:
 4294 0304 705F6F6C 		.ascii	"p_older\000"
 4294      64657200 
 4295              	.LASF45:
 4296 030c 54687265 		.ascii	"ThreadsQueue\000"
 4296      61647351 
ARM GAS  /tmp/ccgFERJb.s 			page 79


 4296      75657565 
 4296      00
 4297              	.LASF86:
 4298 0319 41484252 		.ascii	"AHBRSTR\000"
 4298      53545200 
 4299              	.LASF81:
 4300 0321 41504231 		.ascii	"APB1RSTR\000"
 4300      52535452 
 4300      00
 4301              	.LASF58:
 4302 032a 656C5F6D 		.ascii	"el_mask\000"
 4302      61736B00 
 4303              	.LASF110:
 4304 0332 53657269 		.ascii	"SerialConfig\000"
 4304      616C436F 
 4304      6E666967 
 4304      00
 4305              	.LASF135:
 4306 033f 6E6F7469 		.ascii	"notify1\000"
 4306      66793100 
 4307              	.LASF18:
 4308 0347 74726566 		.ascii	"trefs_t\000"
 4308      735F7400 
 4309              	.LASF90:
 4310 034f 52455345 		.ascii	"RESERVED1\000"
 4310      52564544 
 4310      3100
 4311              	.LASF92:
 4312 0359 52455345 		.ascii	"RESERVED2\000"
 4312      52564544 
 4312      3200
 4313              	.LASF94:
 4314 0363 52455345 		.ascii	"RESERVED3\000"
 4314      52564544 
 4314      3300
 4315              	.LASF95:
 4316 036d 52455345 		.ascii	"RESERVED4\000"
 4316      52564544 
 4316      3400
 4317              	.LASF27:
 4318 0377 705F7072 		.ascii	"p_prev\000"
 4318      657600
 4319              	.LASF20:
 4320 037e 74707269 		.ascii	"tprio_t\000"
 4320      6F5F7400 
 4321              	.LASF73:
 4322 0386 715F7264 		.ascii	"q_rdptr\000"
 4322      70747200 
 4323              	.LASF15:
 4324 038e 5F426F6F 		.ascii	"_Bool\000"
 4324      6C00
 4325              	.LASF8:
 4326 0394 696E7433 		.ascii	"int32_t\000"
 4326      325F7400 
 4327              	.LASF4:
 4328 039c 756E7369 		.ascii	"unsigned char\000"
 4328      676E6564 
ARM GAS  /tmp/ccgFERJb.s 			page 80


 4328      20636861 
 4328      7200
 4329              	.LASF125:
 4330 03aa 73645F6C 		.ascii	"sd_lld_start\000"
 4330      6C645F73 
 4330      74617274 
 4330      00
 4331              	.LASF57:
 4332 03b7 656C5F6C 		.ascii	"el_listener\000"
 4332      69737465 
 4332      6E657200 
 4333              	.LASF59:
 4334 03c3 656C5F66 		.ascii	"el_flags\000"
 4334      6C616773 
 4334      00
 4335              	.LASF33:
 4336 03cc 705F7374 		.ascii	"p_state\000"
 4336      61746500 
 4337              	.LASF42:
 4338 03d4 705F6D74 		.ascii	"p_mtxlist\000"
 4338      786C6973 
 4338      7400
 4339              	.LASF5:
 4340 03de 73686F72 		.ascii	"short int\000"
 4340      7420696E 
 4340      7400
 4341              	.LASF36:
 4342 03e8 705F7072 		.ascii	"p_preempt\000"
 4342      65656D70 
 4342      7400
 4343              	.LASF65:
 4344 03f2 65776D61 		.ascii	"ewmask\000"
 4344      736B00
 4345              	.LASF34:
 4346 03f9 705F666C 		.ascii	"p_flags\000"
 4346      61677300 
 4347              	.LASF56:
 4348 0401 656C5F6E 		.ascii	"el_next\000"
 4348      65787400 
 4349              	.LASF99:
 4350 0409 53445F53 		.ascii	"SD_STOP\000"
 4350      544F5000 
 4351              	.LASF83:
 4352 0411 41504232 		.ascii	"APB2ENR\000"
 4352      454E5200 
 4353              	.LASF25:
 4354 0419 54687265 		.ascii	"Thread\000"
 4354      616400
 4355              	.LASF122:
 4356 0420 73657276 		.ascii	"serve_interrupt\000"
 4356      655F696E 
 4356      74657272 
 4356      75707400 
 4357              	.LASF41:
 4358 0430 705F6570 		.ascii	"p_epending\000"
 4358      656E6469 
 4358      6E6700
ARM GAS  /tmp/ccgFERJb.s 			page 81


 4359              	.LASF98:
 4360 043b 53445F55 		.ascii	"SD_UNINIT\000"
 4360      4E494E49 
 4360      5400
 4361              	.LASF96:
 4362 0445 52455345 		.ascii	"RESERVED5\000"
 4362      52564544 
 4362      3500
 4363              	.LASF10:
 4364 044f 75696E74 		.ascii	"uint32_t\000"
 4364      33325F74 
 4364      00
 4365              	.LASF101:
 4366 0458 73647374 		.ascii	"sdstate_t\000"
 4366      6174655F 
 4366      7400
 4367              	.LASF102:
 4368 0462 53657269 		.ascii	"SerialDriver\000"
 4368      616C4472 
 4368      69766572 
 4368      00
 4369              	.LASF139:
 4370 046f 6E766963 		.ascii	"nvicDisableVector\000"
 4370      44697361 
 4370      626C6556 
 4370      6563746F 
 4370      7200
 4371              	.LASF11:
 4372 0481 6C6F6E67 		.ascii	"long unsigned int\000"
 4372      20756E73 
 4372      69676E65 
 4372      6420696E 
 4372      7400
 4373              	.LASF113:
 4374 0493 72656164 		.ascii	"read\000"
 4374      00
 4375              	.LASF66:
 4376 0498 63686172 		.ascii	"char\000"
 4376      00
 4377              	.LASF129:
 4378 049d 7364496E 		.ascii	"sdIncomingDataI\000"
 4378      636F6D69 
 4378      6E674461 
 4378      74614900 
 4379              	.LASF118:
 4380 04ad 636F6E66 		.ascii	"config\000"
 4380      696700
 4381              	.LASF54:
 4382 04b4 6D5F6E65 		.ascii	"m_next\000"
 4382      787400
 4383              	.LASF24:
 4384 04bb 73797374 		.ascii	"systime_t\000"
 4384      696D655F 
 4384      7400
 4385              	.LASF43:
 4386 04c5 705F7265 		.ascii	"p_realprio\000"
 4386      616C7072 
ARM GAS  /tmp/ccgFERJb.s 			page 82


 4386      696F00
 4387              	.LASF133:
 4388 04d0 2E2E2F2E 		.ascii	"../../os/hal/platforms/STM32/USARTv2/serial_lld.c\000"
 4388      2E2F6F73 
 4388      2F68616C 
 4388      2F706C61 
 4388      74666F72 
 4389              	.LASF93:
 4390 0502 52544F52 		.ascii	"RTOR\000"
 4390      00
 4391              	.LASF84:
 4392 0507 41504231 		.ascii	"APB1ENR\000"
 4392      454E5200 
 4393              	.LASF49:
 4394 050f 636F6E74 		.ascii	"context\000"
 4394      65787400 
 4395              	.LASF48:
 4396 0517 696E7463 		.ascii	"intctx\000"
 4396      747800
 4397              	.LASF100:
 4398 051e 53445F52 		.ascii	"SD_READY\000"
 4398      45414459 
 4398      00
 4399              	.LASF23:
 4400 0527 666C6167 		.ascii	"flagsmask_t\000"
 4400      736D6173 
 4400      6B5F7400 
 4401              	.LASF71:
 4402 0533 715F746F 		.ascii	"q_top\000"
 4402      7000
 4403              	.LASF32:
 4404 0539 705F6E61 		.ascii	"p_name\000"
 4404      6D6500
 4405              	.LASF61:
 4406 0540 65735F6E 		.ascii	"es_next\000"
 4406      65787400 
 4407              	.LASF85:
 4408 0548 42444352 		.ascii	"BDCR\000"
 4408      00
 4409              	.LASF74:
 4410 054d 715F6E6F 		.ascii	"q_notify\000"
 4410      74696679 
 4410      00
 4411              	.LASF40:
 4412 0556 705F6D73 		.ascii	"p_msg\000"
 4412      6700
 4413              	.LASF87:
 4414 055c 43464752 		.ascii	"CFGR2\000"
 4414      3200
 4415              	.LASF88:
 4416 0562 43464752 		.ascii	"CFGR3\000"
 4416      3300
 4417              	.LASF3:
 4418 0568 75696E74 		.ascii	"uint8_t\000"
 4418      385F7400 
 4419              	.LASF77:
 4420 0570 496E7075 		.ascii	"InputQueue\000"
ARM GAS  /tmp/ccgFERJb.s 			page 83


 4420      74517565 
 4420      756500
 4421              	.LASF28:
 4422 057b 705F7072 		.ascii	"p_prio\000"
 4422      696F00
 4423              	.LASF55:
 4424 0582 4576656E 		.ascii	"EventListener\000"
 4424      744C6973 
 4424      74656E65 
 4424      7200
 4425              	.LASF64:
 4426 0590 77746F62 		.ascii	"wtobjp\000"
 4426      6A7000
 4427              	.LASF79:
 4428 0597 43464752 		.ascii	"CFGR\000"
 4428      00
 4429              	.LASF108:
 4430 059c 636C6F63 		.ascii	"clock\000"
 4430      6B00
 4431              	.LASF126:
 4432 05a2 73645F6C 		.ascii	"sd_lld_stop\000"
 4432      6C645F73 
 4432      746F7000 
 4433              	.LASF75:
 4434 05ae 715F6C69 		.ascii	"q_link\000"
 4434      6E6B00
 4435              	.LASF53:
 4436 05b5 6D5F6F77 		.ascii	"m_owner\000"
 4436      6E657200 
 4437              	.LASF29:
 4438 05bd 705F6374 		.ascii	"p_ctx\000"
 4438      7800
 4439              	.LASF38:
 4440 05c3 705F7761 		.ascii	"p_waiting\000"
 4440      6974696E 
 4440      6700
 4441              	.LASF82:
 4442 05cd 41484245 		.ascii	"AHBENR\000"
 4442      4E5200
 4443              		.ident	"GCC: (GNU Tools for ARM Embedded Processors) 4.7.3 20130312 (release) [ARM/embedded-4_7-br
ARM GAS  /tmp/ccgFERJb.s 			page 84


DEFINED SYMBOLS
                            *ABS*:00000000 serial_lld.c
     /tmp/ccgFERJb.s:19     .text.notify1:00000000 $t
     /tmp/ccgFERJb.s:24     .text.notify1:00000000 notify1
     /tmp/ccgFERJb.s:45     .text.VectorD4:00000000 $t
     /tmp/ccgFERJb.s:51     .text.VectorD4:00000000 VectorD4
     /tmp/ccgFERJb.s:324    .text.VectorD4:000000f0 $d
     /tmp/ccgFERJb.s:334    .text.sd_lld_init:00000000 $t
     /tmp/ccgFERJb.s:340    .text.sd_lld_init:00000000 sd_lld_init
     /tmp/ccgFERJb.s:566    .bss.SD1:00000000 .LANCHOR0
     /tmp/ccgFERJb.s:377    .text.sd_lld_start:00000000 $t
     /tmp/ccgFERJb.s:383    .text.sd_lld_start:00000000 sd_lld_start
     /tmp/ccgFERJb.s:479    .text.sd_lld_start:00000064 $d
     /tmp/ccgFERJb.s:485    .text.sd_lld_stop:00000000 $t
     /tmp/ccgFERJb.s:491    .text.sd_lld_stop:00000000 sd_lld_stop
     /tmp/ccgFERJb.s:549    .text.sd_lld_stop:00000030 $d
     /tmp/ccgFERJb.s:569    .bss.SD1:00000000 SD1
     /tmp/ccgFERJb.s:555    .rodata.default_config:00000000 $d
     /tmp/ccgFERJb.s:559    .rodata.default_config:00000000 default_config
     /tmp/ccgFERJb.s:565    .bss.SD1:00000000 $d
                     .debug_frame:00000010 $d
     /tmp/ccgFERJb.s:333    .text.VectorD4:000000fc $t
     /tmp/ccgFERJb.s:484    .text.sd_lld_start:0000006c $t
     /tmp/ccgFERJb.s:554    .text.sd_lld_stop:00000034 $t

UNDEFINED SYMBOLS
_port_irq_epilogue
sdIncomingDataI
chEvtBroadcastFlagsI
chOQGetI
sdObjectInit
nvicEnableVector
nvicDisableVector
