ARM GAS  /tmp/ccgFERJb.s 			page 1


   1              		.syntax unified
   2              		.cpu cortex-m4
   3              		.fpu softvfp
   4              		.eabi_attribute 20, 1
   5              		.eabi_attribute 21, 1
   6              		.eabi_attribute 23, 3
   7              		.eabi_attribute 24, 1
   8              		.eabi_attribute 25, 1
   9              		.eabi_attribute 26, 1
  10              		.eabi_attribute 30, 2
  11              		.eabi_attribute 34, 1
  12              		.eabi_attribute 18, 4
  13              		.thumb
  14              		.file	"serial_lld.c"
  15              		.text
  16              	.Ltext0:
  17              		.cfi_sections	.debug_frame
  18              		.section	.text.notify1,"ax",%progbits
  19              		.align	2
  20              		.p2align 4,,15
  21              		.thumb
  22              		.thumb_func
  23              		.type	notify1, %function
  24              	notify1:
  25              	.LFB122:
  26              		.file 1 "../../os/hal/platforms/STM32/USARTv2/serial_lld.c"
  27              		.loc 1 199 0
  28              		.cfi_startproc
  29              		@ args = 0, pretend = 0, frame = 0
  30              		@ frame_needed = 0, uses_anonymous_args = 0
  31              		@ link register save eliminated.
  32              	.LVL0:
  33              		.loc 1 202 0
  34 0000 4FF46053 		mov	r3, #14336
  35 0004 C4F20103 		movt	r3, 16385
  36 0008 1A68     		ldr	r2, [r3, #0]
  37 000a 42F08000 		orr	r0, r2, #128
  38              	.LVL1:
  39 000e 1860     		str	r0, [r3, #0]
  40 0010 7047     		bx	lr
  41              		.cfi_endproc
  42              	.LFE122:
  43              		.size	notify1, .-notify1
  44 0012 00BFAFF3 		.section	.text.VectorD4,"ax",%progbits
  44      0080AFF3 
  44      0080AFF3 
  44      0080
  45              		.align	2
  46              		.p2align 4,,15
  47              		.global	VectorD4
  48              		.thumb
  49              		.thumb_func
  50              		.type	VectorD4, %function
  51              	VectorD4:
  52              	.LFB123:
  53              		.loc 1 259 0
  54              		.cfi_startproc
ARM GAS  /tmp/ccgFERJb.s 			page 2


  55              		@ args = 0, pretend = 0, frame = 0
  56              		@ frame_needed = 0, uses_anonymous_args = 0
  57              	.LVL2:
  58 0000 F8B5     		push	{r3, r4, r5, r6, r7, lr}
  59              	.LCFI0:
  60              		.cfi_def_cfa_offset 24
  61              		.cfi_offset 3, -24
  62              		.cfi_offset 4, -20
  63              		.cfi_offset 5, -16
  64              		.cfi_offset 6, -12
  65              		.cfi_offset 7, -8
  66              		.cfi_offset 14, -4
  67              	.LBB32:
  68              	.LBB33:
  69              		.loc 1 148 0
  70 0002 3B4E     		ldr	r6, .L51
  71 0004 756F     		ldr	r5, [r6, #116]
  72              	.LVL3:
  73              		.loc 1 149 0
  74 0006 2F68     		ldr	r7, [r5, #0]
  75              	.LVL4:
  76              		.loc 1 153 0
  77 0008 EC69     		ldr	r4, [r5, #28]
  78              	.LVL5:
  79              		.loc 1 157 0
  80 000a 2207     		lsls	r2, r4, #28
  81              		.loc 1 154 0
  82 000c 2C62     		str	r4, [r5, #32]
  83              		.loc 1 157 0
  84 000e 33D1     		bne	.L45
  85              	.LVL6:
  86              	.L3:
  87              		.loc 1 161 0
  88 0010 E305     		lsls	r3, r4, #23
  89              	.LVL7:
  90 0012 25D4     		bmi	.L46
  91              	.LVL8:
  92              	.L8:
  93              		.loc 1 168 0
  94 0014 A006     		lsls	r0, r4, #26
  95 0016 17D4     		bmi	.L47
  96              	.LVL9:
  97              	.L9:
  98              		.loc 1 175 0
  99 0018 3906     		lsls	r1, r7, #24
 100 001a 01D5     		bpl	.L10
 101 001c 2206     		lsls	r2, r4, #24
 102 001e 46D4     		bmi	.L48
 103              	.LVL10:
 104              	.L10:
 105              		.loc 1 189 0
 106 0020 6306     		lsls	r3, r4, #25
 107              	.LVL11:
 108 0022 0DD5     		bpl	.L13
 109              	.LBB34:
 110              		.loc 1 190 0
 111 0024 2023     		movs	r3, #32
ARM GAS  /tmp/ccgFERJb.s 			page 3


 112              	.LVL12:
 113              	@ 190 "../../os/hal/platforms/STM32/USARTv2/serial_lld.c" 1
 114 0026 83F31188 		msr     BASEPRI, r3
 115              	@ 0 "" 2
 116              	.LVL13:
 117              		.thumb
 118              	.LBE34:
 119              		.loc 1 191 0
 120 002a 716C     		ldr	r1, [r6, #68]
 121 002c B36C     		ldr	r3, [r6, #72]
 122              	.LVL14:
 123 002e 3048     		ldr	r0, .L51
 124 0030 9942     		cmp	r1, r3
 125 0032 4AD0     		beq	.L49
 126              	.L14:
 127              		.loc 1 193 0
 128 0034 27F04007 		bic	r7, r7, #64
 129              	.LVL15:
 130 0038 2F60     		str	r7, [r5, #0]
 131              	.LBB35:
 132              		.loc 1 194 0
 133 003a 0023     		movs	r3, #0
 134              	.LVL16:
 135              	@ 194 "../../os/hal/platforms/STM32/USARTv2/serial_lld.c" 1
 136 003c 83F31188 		msr     BASEPRI, r3
 137              	@ 0 "" 2
 138              	.LVL17:
 139              		.thumb
 140              	.L13:
 141              	.LBE35:
 142              	.LBE33:
 143              	.LBE32:
 144              		.loc 1 266 0
 145 0040 BDE8F840 		pop	{r3, r4, r5, r6, r7, lr}
 146              		.loc 1 265 0
 147 0044 FFF7FEBF 		b	_port_irq_epilogue
 148              	.LVL18:
 149              	.L47:
 150              	.LBB49:
 151              	.LBB48:
 152              	.LBB36:
 153              		.loc 1 169 0
 154 0048 2023     		movs	r3, #32
 155              	.LVL19:
 156              	@ 169 "../../os/hal/platforms/STM32/USARTv2/serial_lld.c" 1
 157 004a 83F31188 		msr     BASEPRI, r3
 158              	@ 0 "" 2
 159              	.LVL20:
 160              		.thumb
 161              	.LBE36:
 162              		.loc 1 170 0
 163 004e A98C     		ldrh	r1, [r5, #36]
 164 0050 2748     		ldr	r0, .L51
 165 0052 C9B2     		uxtb	r1, r1
 166 0054 FFF7FEFF 		bl	sdIncomingDataI
 167              	.LVL21:
 168              	.LBB37:
ARM GAS  /tmp/ccgFERJb.s 			page 4


 169              		.loc 1 171 0
 170 0058 0023     		movs	r3, #0
 171              	@ 171 "../../os/hal/platforms/STM32/USARTv2/serial_lld.c" 1
 172 005a 83F31188 		msr     BASEPRI, r3
 173              	@ 0 "" 2
 174              	.LVL22:
 175              		.thumb
 176 005e DBE7     		b	.L9
 177              	.LVL23:
 178              	.L46:
 179              	.LBE37:
 180              	.LBB38:
 181              		.loc 1 162 0
 182 0060 2023     		movs	r3, #32
 183              	.LVL24:
 184              	@ 162 "../../os/hal/platforms/STM32/USARTv2/serial_lld.c" 1
 185 0062 83F31188 		msr     BASEPRI, r3
 186              	@ 0 "" 2
 187              	.LVL25:
 188              		.thumb
 189              	.LBE38:
 190              		.loc 1 163 0
 191 0066 2348     		ldr	r0, .L51+4
 192 0068 4FF40071 		mov	r1, #512
 193 006c FFF7FEFF 		bl	chEvtBroadcastFlagsI
 194              	.LVL26:
 195              	.LBB39:
 196              		.loc 1 164 0
 197 0070 0023     		movs	r3, #0
 198              	@ 164 "../../os/hal/platforms/STM32/USARTv2/serial_lld.c" 1
 199 0072 83F31188 		msr     BASEPRI, r3
 200              	@ 0 "" 2
 201              	.LVL27:
 202              		.thumb
 203 0076 CDE7     		b	.L8
 204              	.LVL28:
 205              	.L45:
 206              	.LBE39:
 207              	.LBB40:
 208              	.LBB41:
 209              		.loc 1 130 0
 210 0078 14F0080F 		tst	r4, #8
 211 007c 0CBF     		ite	eq
 212 007e 0021     		moveq	r1, #0
 213 0080 8021     		movne	r1, #128
 214              	.LVL29:
 215              		.loc 1 131 0
 216 0082 E307     		lsls	r3, r4, #31
 217              		.loc 1 132 0
 218 0084 48BF     		it	mi
 219 0086 41F02001 		orrmi	r1, r1, #32
 220              	.LVL30:
 221              		.loc 1 133 0
 222 008a A007     		lsls	r0, r4, #30
 223              		.loc 1 134 0
 224 008c 48BF     		it	mi
 225 008e 41F04001 		orrmi	r1, r1, #64
ARM GAS  /tmp/ccgFERJb.s 			page 5


 226              	.LVL31:
 227              		.loc 1 135 0
 228 0092 6207     		lsls	r2, r4, #29
 229              		.loc 1 136 0
 230 0094 48BF     		it	mi
 231 0096 41F48071 		orrmi	r1, r1, #256
 232              	.LVL32:
 233              	.LBB42:
 234              		.loc 1 137 0
 235 009a 2023     		movs	r3, #32
 236              	.LVL33:
 237              	@ 137 "../../os/hal/platforms/STM32/USARTv2/serial_lld.c" 1
 238 009c 83F31188 		msr     BASEPRI, r3
 239              	@ 0 "" 2
 240              	.LVL34:
 241              		.thumb
 242              	.LBE42:
 243              		.loc 1 138 0
 244 00a0 1448     		ldr	r0, .L51+4
 245 00a2 FFF7FEFF 		bl	chEvtBroadcastFlagsI
 246              	.LVL35:
 247              	.LBB43:
 248              		.loc 1 139 0
 249 00a6 0023     		movs	r3, #0
 250              	@ 139 "../../os/hal/platforms/STM32/USARTv2/serial_lld.c" 1
 251 00a8 83F31188 		msr     BASEPRI, r3
 252              	@ 0 "" 2
 253              	.LVL36:
 254              		.thumb
 255 00ac B0E7     		b	.L3
 256              	.LVL37:
 257              	.L48:
 258              	.LBE43:
 259              	.LBE41:
 260              	.LBE40:
 261              	.LBB44:
 262              	.LBB45:
 263              		.loc 1 177 0
 264 00ae 2023     		movs	r3, #32
 265              	.LVL38:
 266              	@ 177 "../../os/hal/platforms/STM32/USARTv2/serial_lld.c" 1
 267 00b0 83F31188 		msr     BASEPRI, r3
 268              	@ 0 "" 2
 269              	.LVL39:
 270              		.thumb
 271              	.LBE45:
 272              		.loc 1 178 0
 273 00b4 1048     		ldr	r0, .L51+8
 274 00b6 FFF7FEFF 		bl	chOQGetI
 275              	.LVL40:
 276              		.loc 1 179 0
 277 00ba 0028     		cmp	r0, #0
 278 00bc 0DDB     		blt	.L50
 279              		.loc 1 184 0
 280 00be 80B2     		uxth	r0, r0
 281              	.LVL41:
 282 00c0 2885     		strh	r0, [r5, #40]	@ movhi
ARM GAS  /tmp/ccgFERJb.s 			page 6


 283              	.L12:
 284              	.LBB46:
 285              		.loc 1 185 0
 286 00c2 0023     		movs	r3, #0
 287              	@ 185 "../../os/hal/platforms/STM32/USARTv2/serial_lld.c" 1
 288 00c4 83F31188 		msr     BASEPRI, r3
 289              	@ 0 "" 2
 290              	.LVL42:
 291              		.thumb
 292 00c8 AAE7     		b	.L10
 293              	.LVL43:
 294              	.L49:
 295              	.LBE46:
 296              	.LBE44:
 297              		.loc 1 191 0
 298 00ca 826B     		ldr	r2, [r0, #56]
 299 00cc 002A     		cmp	r2, #0
 300 00ce B1D0     		beq	.L14
 301              		.loc 1 192 0
 302 00d0 0430     		adds	r0, r0, #4
 303 00d2 1021     		movs	r1, #16
 304 00d4 FFF7FEFF 		bl	chEvtBroadcastFlagsI
 305              	.LVL44:
 306 00d8 ACE7     		b	.L14
 307              	.LVL45:
 308              	.L50:
 309              	.LBB47:
 310              		.loc 1 180 0
 311 00da 0648     		ldr	r0, .L51+4
 312              	.LVL46:
 313 00dc 0821     		movs	r1, #8
 314 00de FFF7FEFF 		bl	chEvtBroadcastFlagsI
 315              	.LVL47:
 316              		.loc 1 181 0
 317 00e2 27F0C003 		bic	r3, r7, #192
 318 00e6 43F04002 		orr	r2, r3, #64
 319 00ea 2A60     		str	r2, [r5, #0]
 320 00ec E9E7     		b	.L12
 321              	.L52:
 322 00ee 00BF     		.align	2
 323              	.L51:
 324 00f0 00000000 		.word	.LANCHOR0
 325 00f4 04000000 		.word	.LANCHOR0+4
 326 00f8 30000000 		.word	.LANCHOR0+48
 327              	.LBE47:
 328              	.LBE48:
 329              	.LBE49:
 330              		.cfi_endproc
 331              	.LFE123:
 332              		.size	VectorD4, .-VectorD4
 333 00fc AFF30080 		.section	.text.sd_lld_init,"ax",%progbits
 334              		.align	2
 335              		.p2align 4,,15
 336              		.global	sd_lld_init
 337              		.thumb
 338              		.thumb_func
 339              		.type	sd_lld_init, %function
ARM GAS  /tmp/ccgFERJb.s 			page 7


 340              	sd_lld_init:
 341              	.LFB124:
 342              		.loc 1 373 0
 343              		.cfi_startproc
 344              		@ args = 0, pretend = 0, frame = 0
 345              		@ frame_needed = 0, uses_anonymous_args = 0
 346 0000 10B5     		push	{r4, lr}
 347              	.LCFI1:
 348              		.cfi_def_cfa_offset 8
 349              		.cfi_offset 4, -8
 350              		.cfi_offset 14, -4
 351              		.loc 1 376 0
 352 0002 40F20004 		movw	r4, #:lower16:.LANCHOR0
 353 0006 C0F20004 		movt	r4, #:upper16:.LANCHOR0
 354 000a 40F20002 		movw	r2, #:lower16:notify1
 355 000e C0F20002 		movt	r2, #:upper16:notify1
 356 0012 2046     		mov	r0, r4
 357 0014 0021     		movs	r1, #0
 358 0016 FFF7FEFF 		bl	sdObjectInit
 359              	.LVL48:
 360              		.loc 1 377 0
 361 001a 4FF46052 		mov	r2, #14336
 362              		.loc 1 378 0
 363 001e 4FF4A243 		mov	r3, #20736
 364              		.loc 1 377 0
 365 0022 C4F20102 		movt	r2, 16385
 366              		.loc 1 378 0
 367 0026 C0F22523 		movt	r3, 549
 368              		.loc 1 377 0
 369 002a 6267     		str	r2, [r4, #116]
 370              		.loc 1 378 0
 371 002c A367     		str	r3, [r4, #120]
 372 002e 10BD     		pop	{r4, pc}
 373              		.cfi_endproc
 374              	.LFE124:
 375              		.size	sd_lld_init, .-sd_lld_init
 376              		.section	.text.sd_lld_start,"ax",%progbits
 377              		.align	2
 378              		.p2align 4,,15
 379              		.global	sd_lld_start
 380              		.thumb
 381              		.thumb_func
 382              		.type	sd_lld_start, %function
 383              	sd_lld_start:
 384              	.LFB125:
 385              		.loc 1 422 0
 386              		.cfi_startproc
 387              		@ args = 0, pretend = 0, frame = 0
 388              		@ frame_needed = 0, uses_anonymous_args = 0
 389              	.LVL49:
 390 0000 F8B5     		push	{r3, r4, r5, r6, r7, lr}
 391              	.LCFI2:
 392              		.cfi_def_cfa_offset 24
 393              		.cfi_offset 3, -24
 394              		.cfi_offset 4, -20
 395              		.cfi_offset 5, -16
 396              		.cfi_offset 6, -12
ARM GAS  /tmp/ccgFERJb.s 			page 8


 397              		.cfi_offset 7, -8
 398              		.cfi_offset 14, -4
 399              		.loc 1 427 0
 400 0002 037A     		ldrb	r3, [r0, #8]	@ zero_extendqisi2
 401              		.loc 1 425 0
 402 0004 174C     		ldr	r4, .L59
 403 0006 0029     		cmp	r1, #0
 404 0008 18BF     		it	ne
 405 000a 0C46     		movne	r4, r1
 406              		.loc 1 427 0
 407 000c 012B     		cmp	r3, #1
 408              		.loc 1 422 0
 409 000e 0546     		mov	r5, r0
 410              		.loc 1 427 0
 411 0010 18D0     		beq	.L58
 412              	.LVL50:
 413              	.L56:
 414              	.LBB50:
 415              	.LBB51:
 416              		.loc 1 96 0
 417 0012 AF6F     		ldr	r7, [r5, #120]
 418 0014 2668     		ldr	r6, [r4, #0]
 419              		.loc 1 102 0
 420 0016 6268     		ldr	r2, [r4, #4]
 421              		.loc 1 99 0
 422 0018 A068     		ldr	r0, [r4, #8]
 423              		.loc 1 100 0
 424 001a E168     		ldr	r1, [r4, #12]
 425              		.loc 1 93 0
 426 001c 6B6F     		ldr	r3, [r5, #116]
 427              	.LVL51:
 428              		.loc 1 96 0
 429 001e B7FBF6F4 		udiv	r4, r7, r6
 430              		.loc 1 99 0
 431 0022 40F04000 		orr	r0, r0, #64
 432              		.loc 1 102 0
 433 0026 42F49672 		orr	r2, r2, #300
 434              		.loc 1 96 0
 435 002a A4B2     		uxth	r4, r4
 436 002c 9C81     		strh	r4, [r3, #12]	@ movhi
 437              		.loc 1 100 0
 438 002e 41F00101 		orr	r1, r1, #1
 439              		.loc 1 99 0
 440 0032 5860     		str	r0, [r3, #4]
 441              		.loc 1 102 0
 442 0034 42F00102 		orr	r2, r2, #1
 443              		.loc 1 104 0
 444 0038 4FF0FF30 		mov	r0, #-1
 445              		.loc 1 100 0
 446 003c 9960     		str	r1, [r3, #8]
 447              		.loc 1 101 0
 448 003e 1A60     		str	r2, [r3, #0]
 449              		.loc 1 104 0
 450 0040 1862     		str	r0, [r3, #32]
 451 0042 F8BD     		pop	{r3, r4, r5, r6, r7, pc}
 452              	.LVL52:
 453              	.L58:
ARM GAS  /tmp/ccgFERJb.s 			page 9


 454              	.LBE51:
 455              	.LBE50:
 456              		.loc 1 429 0
 457 0044 0848     		ldr	r0, .L59+4
 458              	.LVL53:
 459 0046 8542     		cmp	r5, r0
 460 0048 E3D1     		bne	.L56
 461              		.loc 1 430 0
 462 004a 4FF48051 		mov	r1, #4096
 463              	.LVL54:
 464 004e C4F20201 		movt	r1, 16386
 465              		.loc 1 431 0
 466 0052 2520     		movs	r0, #37
 467              		.loc 1 430 0
 468 0054 8A69     		ldr	r2, [r1, #24]
 469 0056 42F48046 		orr	r6, r2, #16384
 470 005a 8E61     		str	r6, [r1, #24]
 471              		.loc 1 431 0
 472 005c C021     		movs	r1, #192
 473 005e FFF7FEFF 		bl	nvicEnableVector
 474              	.LVL55:
 475 0062 D6E7     		b	.L56
 476              	.L60:
 477              		.align	2
 478              	.L59:
 479 0064 00000000 		.word	.LANCHOR1
 480 0068 00000000 		.word	.LANCHOR0
 481              		.cfi_endproc
 482              	.LFE125:
 483              		.size	sd_lld_start, .-sd_lld_start
 484 006c AFF30080 		.section	.text.sd_lld_stop,"ax",%progbits
 485              		.align	2
 486              		.p2align 4,,15
 487              		.global	sd_lld_stop
 488              		.thumb
 489              		.thumb_func
 490              		.type	sd_lld_stop, %function
 491              	sd_lld_stop:
 492              	.LFB126:
 493              		.loc 1 483 0
 494              		.cfi_startproc
 495              		@ args = 0, pretend = 0, frame = 0
 496              		@ frame_needed = 0, uses_anonymous_args = 0
 497              		@ link register save eliminated.
 498              	.LVL56:
 499              		.loc 1 485 0
 500 0000 037A     		ldrb	r3, [r0, #8]	@ zero_extendqisi2
 501 0002 022B     		cmp	r3, #2
 502 0004 00D0     		beq	.L65
 503              	.L61:
 504 0006 7047     		bx	lr
 505              	.L65:
 506              		.loc 1 488 0
 507 0008 094B     		ldr	r3, .L66
 508              		.loc 1 486 0
 509 000a 416F     		ldr	r1, [r0, #116]
 510              	.LVL57:
ARM GAS  /tmp/ccgFERJb.s 			page 10


 511              	.LBB52:
 512              	.LBB53:
 513              		.loc 1 115 0
 514 000c 0022     		movs	r2, #0
 515              	.LBE53:
 516              	.LBE52:
 517              		.loc 1 488 0
 518 000e 9842     		cmp	r0, r3
 519              	.LBB55:
 520              	.LBB54:
 521              		.loc 1 115 0
 522 0010 0A60     		str	r2, [r1, #0]
 523              		.loc 1 116 0
 524 0012 4A60     		str	r2, [r1, #4]
 525              		.loc 1 117 0
 526 0014 8A60     		str	r2, [r1, #8]
 527              	.LBE54:
 528              	.LBE55:
 529              		.loc 1 488 0
 530 0016 F6D1     		bne	.L61
 531              		.loc 1 489 0
 532 0018 4FF48051 		mov	r1, #4096
 533              	.LVL58:
 534 001c C4F20201 		movt	r1, 16386
 535              		.loc 1 490 0
 536 0020 2520     		movs	r0, #37
 537              	.LVL59:
 538              		.loc 1 489 0
 539 0022 8A69     		ldr	r2, [r1, #24]
 540 0024 22F48043 		bic	r3, r2, #16384
 541 0028 8B61     		str	r3, [r1, #24]
 542              		.loc 1 530 0
 543              		.loc 1 490 0
 544 002a FFF7FEBF 		b	nvicDisableVector
 545              	.LVL60:
 546              	.L67:
 547 002e 00BF     		.align	2
 548              	.L66:
 549 0030 00000000 		.word	.LANCHOR0
 550              		.cfi_endproc
 551              	.LFE126:
 552              		.size	sd_lld_stop, .-sd_lld_stop
 553              		.global	SD1
 554 0034 AFF30080 		.section	.rodata.default_config,"a",%progbits
 554      AFF30080 
 554      AFF30080 
 555              		.align	2
 556              		.set	.LANCHOR1,. + 0
 557              		.type	default_config, %object
 558              		.size	default_config, 16
 559              	default_config:
 560 0000 00960000 		.word	38400
 561 0004 00000000 		.word	0
 562 0008 00400000 		.word	16384
 563 000c 00000000 		.word	0
 564              		.section	.bss.SD1,"aw",%nobits
 565              		.align	2
ARM GAS  /tmp/ccgFERJb.s 			page 11


 566              		.set	.LANCHOR0,. + 0
 567              		.type	SD1, %object
 568              		.size	SD1, 124
 569              	SD1:
 570 0000 00000000 		.space	124
 570      00000000 
 570      00000000 
 570      00000000 
 570      00000000 
 571              		.text
 572              	.Letext0:
 573              		.file 2 "/opt/ChibiStudio/tools/gcc-arm-none-eabi-4_7-2013q1/bin/../lib/gcc/arm-none-eabi/4.7.3/in
 574              		.file 3 "/opt/ChibiStudio/tools/gcc-arm-none-eabi-4_7-2013q1/bin/../lib/gcc/arm-none-eabi/4.7.3/..
 575              		.file 4 "../../os/ports/GCC/ARMCMx/chtypes.h"
 576              		.file 5 "../../os/kernel/include/chlists.h"
 577              		.file 6 "../../os/kernel/include/chthreads.h"
 578              		.file 7 "../../os/ports/GCC/ARMCMx/chcore_v7m.h"
 579              		.file 8 "../../os/kernel/include/chmtx.h"
 580              		.file 9 "../../os/kernel/include/chevents.h"
 581              		.file 10 "../../os/kernel/include/chqueues.h"
 582              		.file 11 "../../os/hal/platforms/STM32F30x/stm32f30x.h"
 583              		.file 12 "../../os/hal/include/serial.h"
 584              		.file 13 "../../os/hal/platforms/STM32/USARTv2/serial_lld.h"
 585              		.file 14 "../../os/ports/common/ARMCMx/nvic.h"
 586              		.file 15 "../../os/ports/common/ARMCMx/CMSIS/include/core_cm4.h"